******************************************************************************
            TI ARM Clang Linker Unix v2.1.2                    
******************************************************************************
>> Linked Thu Dec 22 10:12:38 2022

OUTPUT FILE NAME:   <sbl_ospi.release.out>
ENTRY POINT SYMBOL: "_vectors_sbl"  address: 70000000


MEMORY CONFIGURATION

         name            origin    length      used     unused   attr    fill
----------------------  --------  ---------  --------  --------  ----  --------
  R5F_VECS              00000000   00000040  00000000  00000040  RWIX
  R5F_TCMA              00000040   00007fc0  00000000  00007fc0  RWIX
  R5F_TCMB0             41010000   00008000  00000000  00008000  RWIX
  MSRAM_VECS            70000000   00000100  00000040  000000c0  RWIX
  MSRAM_0               70000100   0006ff00  00015028  0005aed8  RWIX
  MSRAM_1               70070000   00010000  00007800  00008800  RWIX


SEGMENT ALLOCATION MAP

run origin  load origin   length   init length attrs members
----------  ----------- ---------- ----------- ----- -------
70000000    70000000    00000040   00000040    r-x
  70000000    70000000    00000040   00000040    r-x .vectors
70000100    70000100    00010840   00010840    r-x
  70000100    70000100    0000f8f0   0000f8f0    r-x .text
  7000f9f0    7000f9f0    00000790   00000790    r-x .text.hwi
  70010180    70010180    00000450   00000450    r-x .text.cache
  700105d0    700105d0    00000240   00000240    r-x .text.mpu
  70010810    70010810    00000130   00000130    r-x .text.boot
70010940    70010940    00002758   00002758    rw-
  70010940    70010940    00002758   00002758    rw- .data
70013098    70013098    00002090   00002090    r--
  70013098    70013098    00002090   00002090    r-- .rodata
70070000    70070000    00006400   00000000    rw-
  70070000    70070000    00004000   00000000    rw- .stack
  70074000    70074000    00002400   00000000    rw- .bss
70076400    70076400    00001400   00000000    r--
  70076400    70076400    00001000   00000000    r-- .irqstack
  70077400    70077400    00000100   00000000    r-- .fiqstack
  70077500    70077500    00000100   00000000    r-- .svcstack
  70077600    70077600    00000100   00000000    r-- .abortstack
  70077700    70077700    00000100   00000000    r-- .undefinedstack


SECTION ALLOCATION MAP

 output                                  attributes/
section   page    origin      length       input sections
--------  ----  ----------  ----------   ----------------
.vectors   0    70000000    00000040     
                  70000000    00000040     nortos.am64x.r5f.ti-arm-clang.release.lib : HwiP_armv7r_vectors_nortos_sbl_asm.obj (.vectors)

.text      0    70000100    0000f8f0     
                  70000100    00000648     board.am64x.r5f.ti-arm-clang.release.lib : flash_nor_ospi.obj (.text.Flash_norOspiOpen)
                  70000748    00000008     libc.a : exit.c.obj (.text:abort)
                  70000750    00000624     drivers.am64x.r5f.ti-arm-clang.release.lib : sciclient_rm_irq.obj (.text.Sciclient_rmIrqFindRoute)
                  70000d74    00000004     libclang_rt.builtins.a : aeabi_memcpy.S.obj (.text)
                  70000d78    00000008     nortos.am64x.r5f.ti-arm-clang.release.lib : CacheP_armv7r_asm.obj (.tramp.CacheP_wb.1)
                  70000d80    000005b4     drivers.am64x.r5f.ti-arm-clang.release.lib : ospi_phy.obj (.text.OSPI_phyFindOTP1)
                  70001334    00000008     nortos.am64x.r5f.ti-arm-clang.release.lib : HwiP_armv7r_asm.obj (.tramp.HwiP_enable.1)
                  7000133c    00000004     --HOLE-- [fill = 0]
                  70001340    00000596                                               : printf.obj (.text._vsnprintf)
                  700018d6    00000002     --HOLE-- [fill = 0]
                  700018d8    00000008                                               : HwiP_armv7r_asm.obj (.tramp.HwiP_restore.1)
                  700018e0    00000522     drivers.am64x.r5f.ti-arm-clang.release.lib : udma_ch.obj (.text.Udma_chDisable)
                  70001e02    00000002     --HOLE-- [fill = 0]
                  70001e04    00000008     nortos.am64x.r5f.ti-arm-clang.release.lib : PmuP_armv7r_asm.obj (.tramp.PmuP_enableCounters.1)
                  70001e0c    00000004     --HOLE-- [fill = 0]
                  70001e10    000004e8     drivers.am64x.r5f.ti-arm-clang.release.lib : uart_v0.obj (.text.UART_open)
                  700022f8    00000008     --HOLE-- [fill = 0]
                  70002300    0000046a                                                : udma_event.obj (.text.Udma_eventRegister)
                  7000276a    00000006     --HOLE-- [fill = 0]
                  70002770    000003ee                                                : ddr.obj (.text.DDR_init)
                  70002b5e    00000002     --HOLE-- [fill = 0]
                  70002b60    000003b2                                                : udma_rm.obj (.text.Udma_rmDeinit)
                  70002f12    0000000e     --HOLE-- [fill = 0]
                  70002f20    000003aa     main.obj (.text.main)
                  700032ca    00000006     --HOLE-- [fill = 0]
                  700032d0    0000039c     drivers.am64x.r5f.ti-arm-clang.release.lib : udma_ch.obj (.text.Udma_chOpen)
                  7000366c    00000004     --HOLE-- [fill = 0]
                  70003670    00000388     nortos.am64x.r5f.ti-arm-clang.release.lib : printf.obj (.text._ftoa)
                  700039f8    00000008     --HOLE-- [fill = 0]
                  70003a00    0000037e     drivers.am64x.r5f.ti-arm-clang.release.lib : sciclient.obj (.text.Sciclient_service)
                  70003d7e    00000002     --HOLE-- [fill = 0]
                  70003d80    00000366                                                : udma_rm.obj (.text.Udma_rmInit)
                  700040e6    0000000a     --HOLE-- [fill = 0]
                  700040f0    00000358     board.am64x.r5f.ti-arm-clang.release.lib : flash_nor_ospi.obj (.text.Flash_setQeBit)
                  70004448    00000008     --HOLE-- [fill = 0]
                  70004450    0000032c     drivers.am64x.r5f.ti-arm-clang.release.lib : ospi_phy.obj (.text.OSPI_phyFindOTP2)
                  7000477c    00000004     --HOLE-- [fill = 0]
                  70004780    00000310     nortos.am64x.r5f.ti-arm-clang.release.lib : printf.obj (.text._etoa)
                  70004a90    000002fa     drivers.am64x.r5f.ti-arm-clang.release.lib : ospi_v0.obj (.text.OSPI_open)
                  70004d8a    00000006     --HOLE-- [fill = 0]
                  70004d90    00000292                                                : udma_rmcfg_common.obj (.text.UdmaRmInitPrms_init)
                  70005022    0000000e     --HOLE-- [fill = 0]
                  70005030    0000028c                                                : sciclient_rm_irq.obj (.text.Sciclient_rmIrqGetRoute)
                  700052bc    00000004     --HOLE-- [fill = 0]
                  700052c0    00000288                                                : udma_soc.obj (.text.Udma_initDrvHandle)
                  70005548    00000008     --HOLE-- [fill = 0]
                  70005550    00000226                                                : bootloader_soc.obj (.text.Bootloader_socCpuPowerOnResetR5f)
                  70005776    0000000a     --HOLE-- [fill = 0]
                  70005780    00000224                                                : bootloader_soc.obj (.text.Bootloader_socCpuResetRelease)
                  700059a4    0000000c     --HOLE-- [fill = 0]
                  700059b0    0000021a                                                : uart_v0.obj (.text.UART_masterIsr)
                  70005bca    00000006     --HOLE-- [fill = 0]
                  70005bd0    0000020a                                                : udma_event.obj (.text.Udma_eventUnRegister)
                  70005dda    00000006     --HOLE-- [fill = 0]
                  70005de0    00000202                                                : sciclient_rm_irq.obj (.text.Sciclient_rmProgramInterruptRoute)
                  70005fe2    0000000e     --HOLE-- [fill = 0]
                  70005ff0    000001fe                                                : uart_v0.obj (.text.UART_write)
                  700061ee    00000002     --HOLE-- [fill = 0]
                  700061f0    000001ca                                                : csl_bcdma.obj (.text.CSL_bcdmaChanOp)
                  700063ba    00000006     --HOLE-- [fill = 0]
                  700063c0    000001c0     nortos.am64x.r5f.ti-arm-clang.release.lib : TimerP.obj (.text.TimerP_setup)
                  70006580    000001b0     drivers.am64x.r5f.ti-arm-clang.release.lib : sciclient_rm_irq.obj (.text.Sciclient_rmClearInterruptRoute)
                  70006730    0000019c                                                : udma_ring_common.obj (.text.Udma_ringAlloc)
                  700068cc    00000004     --HOLE-- [fill = 0]
                  700068d0    00000178                                                : bootloader.obj (.text.Bootloader_verifyMulticoreImage)
                  70006a48    00000008     --HOLE-- [fill = 0]
                  70006a50    00000174                                                : bootloader_soc.obj (.text.Bootloader_socCpuResetReleaseSelf)
                  70006bc4    0000000c     --HOLE-- [fill = 0]
                  70006bd0    00000150                                                : bootloader_profile.obj (.text.Bootloader_profilePrintProfileLog)
                  70006d20    00000148                                                : csl_bcdma.obj (.text.CSL_bcdmaChanOpCfgChan)
                  70006e68    00000008     --HOLE-- [fill = 0]
                  70006e70    00000148                                                : ospi_v0.obj (.text.OSPI_setProtocol)
                  70006fb8    00000008     --HOLE-- [fill = 0]
                  70006fc0    00000148                                                : ospi_dma_udma.obj (.text.OspiDma_udmaOpen)
                  70007108    00000008     --HOLE-- [fill = 0]
                  70007110    00000146                                                : uart_v0.obj (.text.UART_close)
                  70007256    0000000a     --HOLE-- [fill = 0]
                  70007260    00000142                                                : sciclient_rm_irq.obj (.text.Sciclient_rmIrqProgramRoute)
                  700073a2    0000000e     --HOLE-- [fill = 0]
                  700073b0    00000140     board.am64x.r5f.ti-arm-clang.release.lib : flash_nor_ospi.obj (.text.Flash_norOspiReset)
                  700074f0    0000013c     drivers.am64x.r5f.ti-arm-clang.release.lib : udma_ch.obj (.text.Udma_chConfigRx)
                  7000762c    00000004     --HOLE-- [fill = 0]
                  70007630    00000138                                                : sciclient_rm_irq.obj (.text.Sciclient_rmIrqDeleteRoute)
                  70007768    00000008     --HOLE-- [fill = 0]
                  70007770    00000132                                                : ospi_v0.obj (.text.OSPI_readCmd)
                  700078a2    0000000e     --HOLE-- [fill = 0]
                  700078b0    00000132     nortos.am64x.r5f.ti-arm-clang.release.lib : printf.obj (.text._ntoa_format)
                  700079e2    0000000e     --HOLE-- [fill = 0]
                  700079f0    0000012a     drivers.am64x.r5f.ti-arm-clang.release.lib : soc.obj (.text.SOC_moduleSetClockFrequency)
                  70007b1a    00000006     --HOLE-- [fill = 0]
                  70007b20    00000120                                                : lpddr4_16bit.obj (.text.LPDDR4_CheckCtlInterrupt)
                  70007c40    0000011e                                                : ospi_dma_udma.obj (.text.OspiDma_udmaUpdateSubmitTR)
                  70007d5e    00000002     --HOLE-- [fill = 0]
                  70007d60    0000011a                                                : bootloader_soc.obj (.text.Bootloader_socCpuPowerOnResetM4f)
                  70007e7a    00000002     --HOLE-- [fill = 0]
                  70007e7c    00000118     libclang_rt.builtins.a : udivmoddi4.S.obj (.text)
                  70007f94    0000000c     --HOLE-- [fill = 0]
                  70007fa0    00000112     drivers.am64x.r5f.ti-arm-clang.release.lib : lpddr4_16bit.obj (.text.LPDDR4_AckCtlInterrupt)
                  700080b2    0000000e     --HOLE-- [fill = 0]
                  700080c0    0000010e                                                : ospi_v0.obj (.text.OSPI_writeCmd)
                  700081ce    00000002     --HOLE-- [fill = 0]
                  700081d0    00000106                                                : udma_rm.obj (.text.Udma_rmSetSharedResRmInitPrms)
                  700082d6    0000000a     --HOLE-- [fill = 0]
                  700082e0    000000fc                                                : csl_lcdma_ringacc.obj (.text.CSL_lcdma_ringaccPop64MultiAccess)
                  700083dc    00000004     --HOLE-- [fill = 0]
                  700083e0    000000fc     nortos.am64x.r5f.ti-arm-clang.release.lib : ClockP_nortos_r5.obj (.text.ClockP_init)
                  700084dc    00000004     --HOLE-- [fill = 0]
                  700084e0    000000fa     drivers.am64x.r5f.ti-arm-clang.release.lib : udma_flow.obj (.text.Udma_flowConfig)
                  700085da    00000006     --HOLE-- [fill = 0]
                  700085e0    000000f6     board.am64x.r5f.ti-arm-clang.release.lib : flash_nor_ospi.obj (.text.Flash_norOspiWrite)
                  700086d6    0000000a     --HOLE-- [fill = 0]
                  700086e0    000000f6     drivers.am64x.r5f.ti-arm-clang.release.lib : udma_ch.obj (.text.Udma_chEnable)
                  700087d6    0000000a     --HOLE-- [fill = 0]
                  700087e0    000000f0                                                : udma_ch.obj (.text.Udma_chFreeResource)
                  700088d0    000000e6                                                : ospi_v0.obj (.text.OSPI_writeIndirect)
                  700089b6    0000000a     --HOLE-- [fill = 0]
                  700089c0    000000da                                                : udma_ch.obj (.text.Udma_chConfigTx)
                  70008a9a    00000006     --HOLE-- [fill = 0]
                  70008aa0    000000d4                                                : bootloader.obj (.text.Bootloader_rprcImageLoad)
                  70008b74    0000000c     --HOLE-- [fill = 0]
                  70008b80    000000d4                                                : csl_lcdma_ringacc.obj (.text.CSL_lcdma_ringaccPush64MultiAccess)
                  70008c54    0000000c     --HOLE-- [fill = 0]
                  70008c60    000000ca     board.am64x.r5f.ti-arm-clang.release.lib : flash_nor_ospi.obj (.text.Flash_norOspiErase)
                  70008d2a    00000006     --HOLE-- [fill = 0]
                  70008d30    000000ca                                              : flash_nor_ospi.obj (.text.Flash_norOspiEraseSector)
                  70008dfa    00000006     --HOLE-- [fill = 0]
                  70008e00    000000c8     drivers.am64x.r5f.ti-arm-clang.release.lib : sciclient.obj (.text.Sciclient_getVersionCheck)
                  70008ec8    00000008     --HOLE-- [fill = 0]
                  70008ed0    000000c6     board.am64x.r5f.ti-arm-clang.release.lib : flash_nor_ospi.obj (.text.Flash_setOeBit)
                  70008f96    0000000a     --HOLE-- [fill = 0]
                  70008fa0    000000c2     drivers.am64x.r5f.ti-arm-clang.release.lib : bootloader.obj (.text.Bootloader_parseMultiCoreAppImage)
                  70009062    0000000e     --HOLE-- [fill = 0]
                  70009070    000000c2                                                : ospi_v0.obj (.text.OSPI_readDirect)
                  70009132    0000000e     --HOLE-- [fill = 0]
                  70009140    000000bc                                                : pinmux.obj (.text.Pinmux_config)
                  700091fc    00000004     --HOLE-- [fill = 0]
                  70009200    000000ba                                                : csl_bcdma.obj (.text.CSL_bcdmaChanOpTeardownChan)
                  700092ba    00000006     --HOLE-- [fill = 0]
                  700092c0    000000b8                                                : csl_lcdma_ringacc.obj (.text.CSL_lcdma_ringaccDequeue)
                  70009378    00000008     --HOLE-- [fill = 0]
                  70009380    000000b8                                                : uart_v0.obj (.text.UART_divisorLatchWrite)
                  70009438    00000008     --HOLE-- [fill = 0]
                  70009440    000000b2                                                : uart_v0.obj (.text.UART_flushTxFifo)
                  700094f2    0000000e     --HOLE-- [fill = 0]
                  70009500    000000b0     nortos.am64x.r5f.ti-arm-clang.release.lib : printf.obj (.text._ntoa_long_long)
                  700095b0    000000aa     drivers.am64x.r5f.ti-arm-clang.release.lib : bootloader.obj (.text.Bootloader_loadSelfCpu)
                  7000965a    00000006     --HOLE-- [fill = 0]
                  70009660    000000aa     board.am64x.r5f.ti-arm-clang.release.lib : flash_nor_ospi.obj (.text.Flash_norOspiWaitReady)
                  7000970a    00000006     --HOLE-- [fill = 0]
                  70009710    000000aa     drivers.am64x.r5f.ti-arm-clang.release.lib : sciclient_rm_irq.obj (.text.Sciclient_rmIaValidateMapping)
                  700097ba    00000006     --HOLE-- [fill = 0]
                  700097c0    000000aa                                                : uart_v0.obj (.text.UART_procLineStatusErr)
                  7000986a    00000006     --HOLE-- [fill = 0]
                  70009870    000000aa                                                : udma_rm.obj (.text.Udma_rmAllocMappedRxCh)
                  7000991a    00000006     --HOLE-- [fill = 0]
                  70009920    000000aa                                                : udma_rm.obj (.text.Udma_rmAllocMappedTxCh)
                  700099ca    00000006     --HOLE-- [fill = 0]
                  700099d0    000000a6     nortos.am64x.r5f.ti-arm-clang.release.lib : printf.obj (.text._out_rev)
                  70009a76    0000000a     --HOLE-- [fill = 0]
                  70009a80    000000a4     drivers.am64x.r5f.ti-arm-clang.release.lib : sciclient_pm.obj (.text.Sciclient_pmQueryModuleClkFreq)
                  70009b24    0000000c     --HOLE-- [fill = 0]
                  70009b30    000000a2                                                : sciclient_rm_irq.obj (.text.Sciclient_rmIrInpIsFree)
                  70009bd2    0000000e     --HOLE-- [fill = 0]
                  70009be0    000000a0     board.am64x.r5f.ti-arm-clang.release.lib : flash_nor_ospi.obj (.text.Flash_norOspiReadId)
                  70009c80    000000a0     drivers.am64x.r5f.ti-arm-clang.release.lib : udma.obj (.text.Udma_init)
                  70009d20    000000a0                                                : udma_rm.obj (.text.Udma_rmAllocBlkCopyCh)
                  70009dc0    000000a0                                                : udma_rm.obj (.text.Udma_rmAllocBlkCopyHcCh)
                  70009e60    000000a0                                                : udma_rm.obj (.text.Udma_rmAllocBlkCopyUhcCh)
                  70009f00    000000a0                                                : udma_rm.obj (.text.Udma_rmAllocIrIntr)
                  70009fa0    000000a0                                                : udma_rm.obj (.text.Udma_rmAllocRxCh)
                  7000a040    000000a0                                                : udma_rm.obj (.text.Udma_rmAllocRxHcCh)
                  7000a0e0    000000a0                                                : udma_rm.obj (.text.Udma_rmAllocRxUhcCh)
                  7000a180    000000a0                                                : udma_rm.obj (.text.Udma_rmAllocTxCh)
                  7000a220    000000a0                                                : udma_rm.obj (.text.Udma_rmAllocTxHcCh)
                  7000a2c0    000000a0                                                : udma_rm.obj (.text.Udma_rmAllocTxUhcCh)
                  7000a360    0000009a                                                : sciclient.obj (.text.Sciclient_init)
                  7000a3fa    00000006     --HOLE-- [fill = 0]
                  7000a400    0000009a                                                : sciclient.obj (.text.Sciclient_sendMessage)
                  7000a49a    00000006     --HOLE-- [fill = 0]
                  7000a4a0    00000096     nortos.am64x.r5f.ti-arm-clang.release.lib : SemaphoreP_nortos.obj (.text.SemaphoreP_pend)
                  7000a536    0000000a     --HOLE-- [fill = 0]
                  7000a540    00000094     drivers.am64x.r5f.ti-arm-clang.release.lib : bootloader.obj (.text.Bootloader_getMsgLen)
                  7000a5d4    0000000c     --HOLE-- [fill = 0]
                  7000a5e0    00000094                                                : ospi_phy.obj (.text.OSPI_phyTuneDDR)
                  7000a674    0000000c     --HOLE-- [fill = 0]
                  7000a680    00000094                                                : uart_v0.obj (.text.UART_init)
                  7000a714    0000000c     --HOLE-- [fill = 0]
                  7000a720    00000094                                                : udma_rm.obj (.text.Udma_rmAllocMappedRing)
                  7000a7b4    0000000c     --HOLE-- [fill = 0]
                  7000a7c0    00000092                                                : sciclient_pm.obj (.text.Sciclient_pmSetModuleClkFreq)
                  7000a852    0000000e     --HOLE-- [fill = 0]
                  7000a860    00000092                                                : udma_ch.obj (.text.Udma_chClose)
                  7000a8f2    0000000e     --HOLE-- [fill = 0]
                  7000a900    00000092                                                : udma_event.obj (.text.Udma_eventFreeResource)
                  7000a992    0000000e     --HOLE-- [fill = 0]
                  7000a9a0    00000090                                                : bootloader_soc.obj (.text.Bootloader_socCpuSetEntryPoint)
                  7000aa30    0000008e                                                : csl_pktdma.obj (.text.CSL_pktdmaTeardownChan)
                  7000aabe    00000002     --HOLE-- [fill = 0]
                  7000aac0    0000008e                                                : udma_ring_lcdma.obj (.text.Udma_ringSetCfgLcdma)
                  7000ab4e    00000002     --HOLE-- [fill = 0]
                  7000ab50    0000008c     nortos.am64x.r5f.ti-arm-clang.release.lib : printf.obj (.text._ntoa_long)
                  7000abdc    00000004     --HOLE-- [fill = 0]
                  7000abe0    0000008a     drivers.am64x.r5f.ti-arm-clang.release.lib : udma_event.obj (.text.Udma_eventIsrFxn)
                  7000ac6a    00000006     --HOLE-- [fill = 0]
                  7000ac70    00000088                                                : udma_rm.obj (.text.Udma_rmGetSciclientDefaultBoardCfgRmRange)
                  7000acf8    00000008     --HOLE-- [fill = 0]
                  7000ad00    00000082                                                : ospi_v0.obj (.text.OSPI_init)
                  7000ad82    0000000e     --HOLE-- [fill = 0]
                  7000ad90    00000082                                                : ospi_dma_udma.obj (.text.OspiDma_udmaCopy)
                  7000ae12    0000000e     --HOLE-- [fill = 0]
                  7000ae20    00000080                                                : sciclient_boardcfg.obj (.text.Sciclient_boardCfgPm)
                  7000aea0    00000080     ti_drivers_config.obj (.text.System_init)
                  7000af20    0000007e     drivers.am64x.r5f.ti-arm-clang.release.lib : bootloader_soc.obj (.text.Bootloader_socOpenFirewalls)
                  7000af9e    00000002     --HOLE-- [fill = 0]
                  7000afa0    0000007c                                                : sciclient_procboot.obj (.text.Sciclient_procBootWaitProcessorState)
                  7000b01c    00000004     --HOLE-- [fill = 0]
                  7000b020    0000007c                                                : sciclient_rm_irq.obj (.text.Sciclient_rmIrOutpIsFree)
                  7000b09c    00000004     --HOLE-- [fill = 0]
                  7000b0a0    0000007c                                                : sciclient_rm_irq.obj (.text.Sciclient_rmIrqGetNode)
                  7000b11c    00000004     --HOLE-- [fill = 0]
                  7000b120    0000007a     board.am64x.r5f.ti-arm-clang.release.lib : flash_nor_ospi.obj (.text.Flash_norOspiRegWrite)
                  7000b19a    00000006     --HOLE-- [fill = 0]
                  7000b1a0    0000007a     drivers.am64x.r5f.ti-arm-clang.release.lib : sciclient_pm.obj (.text.Sciclient_pmGetModuleClkNumParent)
                  7000b21a    00000006     --HOLE-- [fill = 0]
                  7000b220    0000007a                                                : sciclient_rm_irq.obj (.text.Sciclient_rmTranslateIntOutput)
                  7000b29a    00000006     --HOLE-- [fill = 0]
                  7000b2a0    00000078                                                : bootloader_soc.obj (.text.Bootloader_socCpuSetClock)
                  7000b318    00000008     --HOLE-- [fill = 0]
                  7000b320    00000078                                                : bootloader_soc.obj (.text.Bootloader_socOpenFirewallRegion)
                  7000b398    00000008     --HOLE-- [fill = 0]
                  7000b3a0    00000072                                                : bootloader_soc.obj (.text.Bootloader_socCpuPowerOnResetA53)
                  7000b412    0000000e     --HOLE-- [fill = 0]
                  7000b420    00000072                                                : udma_rm.obj (.text.Udma_rmAllocVintrBit)
                  7000b492    0000000e     --HOLE-- [fill = 0]
                  7000b4a0    00000070                                                : bootloader_soc.obj (.text.Bootloader_socMemInitCpu)
                  7000b510    00000070                                                : ospi_phy.obj (.text.OSPI_phyResyncDLL)
                  7000b580    0000006e     ti_board_open_close.obj (.text.Board_flashOpen)
                  7000b5ee    00000002     --HOLE-- [fill = 0]
                  7000b5f0    0000006e     drivers.am64x.r5f.ti-arm-clang.release.lib : csl_pktdma.obj (.text.CSL_pktdmaAccessChanPeerReg)
                  7000b65e    00000002     --HOLE-- [fill = 0]
                  7000b660    0000006e                                                : lpddr4.obj (.text.LPDDR4_Start)
                  7000b6ce    00000002     --HOLE-- [fill = 0]
                  7000b6d0    0000006e                                                : soc.obj (.text.SOC_moduleClockEnable)
                  7000b73e    00000002     --HOLE-- [fill = 0]
                  7000b740    0000006e                                                : sciclient_pm.obj (.text.Sciclient_pmGetModuleState)
                  7000b7ae    00000002     --HOLE-- [fill = 0]
                  7000b7b0    0000006c                                                : bootloader.obj (.text.Bootloader_findSeq)
                  7000b81c    00000004     --HOLE-- [fill = 0]
                  7000b820    0000006c     nortos.am64x.r5f.ti-arm-clang.release.lib : ClockP_nortos.obj (.text.ClockP_timerTickIsr)
                  7000b88c    00000004     --HOLE-- [fill = 0]
                  7000b890    0000006c     drivers.am64x.r5f.ti-arm-clang.release.lib : ospi_dma_udma.obj (.text.OspiDma_udmaClose)
                  7000b8fc    00000004     --HOLE-- [fill = 0]
                  7000b900    0000006c                                                : soc.obj (.text.SOC_isR5FDualCoreMode)
                  7000b96c    00000004     --HOLE-- [fill = 0]
                  7000b970    0000006a     board.am64x.r5f.ti-arm-clang.release.lib : flash.obj (.text.Flash_offsetToSectorPage)
                  7000b9da    00000006     --HOLE-- [fill = 0]
                  7000b9e0    00000068     nortos.am64x.r5f.ti-arm-clang.release.lib : AddrTranslateP.obj (.text.AddrTranslateP_getLocalAddr)
                  7000ba48    00000008     --HOLE-- [fill = 0]
                  7000ba50    00000068     drivers.am64x.r5f.ti-arm-clang.release.lib : bootloader_soc.obj (.text.Bootloader_socCpuRelease)
                  7000bab8    00000008     --HOLE-- [fill = 0]
                  7000bac0    00000068                                                : uart_v0.obj (.text.UART_writeCancelNoCB)
                  7000bb28    00000008     --HOLE-- [fill = 0]
                  7000bb30    00000066                                                : bootloader_soc.obj (.text.Bootloader_socCpuRequest)
                  7000bb96    0000000a     --HOLE-- [fill = 0]
                  7000bba0    00000066     board.am64x.r5f.ti-arm-clang.release.lib : flash_nor_ospi.obj (.text.Flash_norOspiRegRead)
                  7000bc06    0000000a     --HOLE-- [fill = 0]
                  7000bc10    00000066                                              : flash_nor_ospi.obj (.text.Flash_norOspiSetRegCfg)
                  7000bc76    0000000a     --HOLE-- [fill = 0]
                  7000bc80    00000066     drivers.am64x.r5f.ti-arm-clang.release.lib : ospi_v0.obj (.text.OSPI_close)
                  7000bce6    0000000a     --HOLE-- [fill = 0]
                  7000bcf0    00000066                                                : sciclient_pm.obj (.text.Sciclient_pmGetModuleClkFreq)
                  7000bd56    0000000a     --HOLE-- [fill = 0]
                  7000bd60    00000066                                                : sciclient_pm.obj (.text.Sciclient_pmGetModuleClkParent)
                  7000bdc6    0000000a     --HOLE-- [fill = 0]
                  7000bdd0    00000064                                                : bootloader_soc.obj (.text.Bootloader_socCpuGetClock)
                  7000be34    0000000c     --HOLE-- [fill = 0]
                  7000be40    00000064                                                : csl_bcdma.obj (.text.CSL_bcdmaDoChanOp)
                  7000bea4    0000000c     --HOLE-- [fill = 0]
                  7000beb0    00000064                                                : csl_emif.obj (.text.CSL_emifConfig)
                  7000bf14    0000000c     --HOLE-- [fill = 0]
                  7000bf20    00000064                                                : ospi_v0.obj (.text.OSPI_setXferOpCodes)
                  7000bf84    0000000c     --HOLE-- [fill = 0]
                  7000bf90    00000064                                                : sciclient_pm.obj (.text.Sciclient_pmModuleGetClkStatus)
                  7000bff4    0000000c     --HOLE-- [fill = 0]
                  7000c000    00000064                                                : udma_ring_lcdma.obj (.text.Udma_ringFlushRawLcdma)
                  7000c064    0000000c     --HOLE-- [fill = 0]
                  7000c070    00000064     nortos.am64x.r5f.ti-arm-clang.release.lib : PmuP_armv7r.obj (.text.pmu)
                  7000c0d4    0000000c     --HOLE-- [fill = 0]
                  7000c0e0    00000062     drivers.am64x.r5f.ti-arm-clang.release.lib : sciclient.obj (.text.Sciclient_waitForBootNotification)
                  7000c142    0000000e     --HOLE-- [fill = 0]
                  7000c150    00000062                                                : udma_utils.obj (.text.UdmaUtils_makeTrpd)
                  7000c1b2    0000000e     --HOLE-- [fill = 0]
                  7000c1c0    00000062                                                : udma_ring_common.obj (.text.Udma_ringFree)
                  7000c222    0000000e     --HOLE-- [fill = 0]
                  7000c230    00000062                                                : udma_ring_common.obj (.text.Udma_ringQueueRaw)
                  7000c292    0000000e     --HOLE-- [fill = 0]
                  7000c2a0    00000060                                                : udma_rm.obj (.text.Udma_rmFreeMappedRing)
                  7000c300    0000005e                                                : bootloader.obj (.text.Bootloader_runCpu)
                  7000c35e    00000002     --HOLE-- [fill = 0]
                  7000c360    0000005e                                                : sciclient_pm.obj (.text.Sciclient_pmModuleClkRequest)
                  7000c3be    00000002     --HOLE-- [fill = 0]
                  7000c3c0    0000005e                                                : sciclient_pm.obj (.text.Sciclient_pmSetModuleClkParent)
                  7000c41e    00000002     --HOLE-- [fill = 0]
                  7000c420    0000005e     ti_drivers_config.obj (.text.System_deinit)
                  7000c47e    00000002     --HOLE-- [fill = 0]
                  7000c480    0000005c     drivers.am64x.r5f.ti-arm-clang.release.lib : csl_bcdma.obj (.text.CSL_bcdmaChanOpGetChanStats)
                  7000c4dc    00000004     --HOLE-- [fill = 0]
                  7000c4e0    0000005c                                                : csl_bcdma.obj (.text.CSL_bcdmaChanOpSetChanPause)
                  7000c53c    00000004     --HOLE-- [fill = 0]
                  7000c540    0000005c                                                : ospi_phy.obj (.text.OSPI_phyFindRxHigh)
                  7000c59c    00000004     --HOLE-- [fill = 0]
                  7000c5a0    0000005c                                                : ospi_phy.obj (.text.OSPI_phyFindRxLow)
                  7000c5fc    00000004     --HOLE-- [fill = 0]
                  7000c600    0000005c                                                : ospi_phy.obj (.text.OSPI_phyFindTxHigh)
                  7000c65c    00000004     --HOLE-- [fill = 0]
                  7000c660    0000005c                                                : ospi_phy.obj (.text.OSPI_phyFindTxLow)
                  7000c6bc    00000004     --HOLE-- [fill = 0]
                  7000c6c0    0000005c                                                : sciclient_procboot.obj (.text.Sciclient_procBootSetSequenceCtrl)
                  7000c71c    00000004     --HOLE-- [fill = 0]
                  7000c720    0000005c                                                : udma_rm.obj (.text.Udma_rmAllocEvent)
                  7000c77c    00000004     --HOLE-- [fill = 0]
                  7000c780    0000005c                                                : udma_rm.obj (.text.Udma_rmAllocVintr)
                  7000c7dc    00000004     --HOLE-- [fill = 0]
                  7000c7e0    0000005c     nortos.am64x.r5f.ti-arm-clang.release.lib : DebugP_log.obj (.text._DebugP_assert)
                  7000c83c    00000004     --HOLE-- [fill = 0]
                  7000c840    0000005a     drivers.am64x.r5f.ti-arm-clang.release.lib : soc.obj (.text.SOC_generateSwWarmResetMcuDomain)
                  7000c89a    00000006     --HOLE-- [fill = 0]
                  7000c8a0    0000005a                                                : udma_ring_common.obj (.text.Udma_ringDequeueRaw)
                  7000c8fa    00000006     --HOLE-- [fill = 0]
                  7000c900    00000058                                                : soc.obj (.text.SOC_getWarmResetCauseMcuDomain)
                  7000c958    00000008     --HOLE-- [fill = 0]
                  7000c960    00000056     board.am64x.r5f.ti-arm-clang.release.lib : flash_nor_ospi.obj (.text.Flash_norOspiRead)
                  7000c9b6    0000000a     --HOLE-- [fill = 0]
                  7000c9c0    00000056     drivers.am64x.r5f.ti-arm-clang.release.lib : soc.obj (.text.SOC_clearResetCauseMainMcuDomain)
                  7000ca16    0000000a     --HOLE-- [fill = 0]
                  7000ca20    00000056                                                : uart_dma.obj (.text.UART_dmaDisableChannel)
                  7000ca76    0000000a     --HOLE-- [fill = 0]
                  7000ca80    00000056                                                : udma.obj (.text.Udma_deinit)
                  7000cad6    0000000a     --HOLE-- [fill = 0]
                  7000cae0    00000054                                                : csl_bcdma.obj (.text.CSL_bcdmaChanOpGetChanRT)
                  7000cb34    0000000c     --HOLE-- [fill = 0]
                  7000cb40    00000054                                                : csl_intaggr.obj (.text.CSL_intaggrIsIntrPending)
                  7000cb94    0000000c     --HOLE-- [fill = 0]
                  7000cba0    00000054                                                : sciclient_rm.obj (.text.Sciclient_rmGetResourceRange)
                  7000cbf4    0000000c     --HOLE-- [fill = 0]
                  7000cc00    00000054                                                : uart_dma.obj (.text.UART_dmaClose)
                  7000cc54    0000000c     --HOLE-- [fill = 0]
                  7000cc60    00000052                                                : sciclient_pm.obj (.text.Sciclient_pmSetModuleState)
                  7000ccb2    0000000e     --HOLE-- [fill = 0]
                  7000ccc0    00000050                                                : csl_bcdma.obj (.text.CSL_bcdmaChanOpDecChanStats)
                  7000cd10    00000050     nortos.am64x.r5f.ti-arm-clang.release.lib : ClockP_nortos.obj (.text.ClockP_addToList)
                  7000cd60    00000050                                               : ClockP_nortos.obj (.text.ClockP_construct)
                  7000cdb0    00000050     drivers.am64x.r5f.ti-arm-clang.release.lib : bootloader_flash.obj (.text.Flash_imgRead)
                  7000ce00    00000050                                                : sciclient_soc_priv.obj (.text.Sciclient_getContext)
                  7000ce50    00000050                                                : udma_rm.obj (.text.Udma_rmFreeVintrBit)
                  7000cea0    00000050     libc.a : autoinit.c.obj (.text:__TI_auto_init_nobinit_nopinit)
                  7000cef0    0000004e     drivers.am64x.r5f.ti-arm-clang.release.lib : lpddr4.obj (.text.LPDDR4_ReadReg)
                  7000cf3e    00000002     --HOLE-- [fill = 0]
                  7000cf40    0000004e                                                : sciclient_procboot.obj (.text.Sciclient_procBootReleaseProcessor)
                  7000cf8e    00000002     --HOLE-- [fill = 0]
                  7000cf90    0000004e                                                : udma_ch.obj (.text.UdmaChTxPrms_init)
                  7000cfde    00000002     --HOLE-- [fill = 0]
                  7000cfe0    0000004e                                                : udma_soc.obj (.text.Udma_getMappedChRingAttributes)
                  7000d02e    00000002     --HOLE-- [fill = 0]
                  7000d030    0000004c     nortos.am64x.r5f.ti-arm-clang.release.lib : ClockP_nortos.obj (.text.ClockP_getTimeUsec)
                  7000d07c    00000004     --HOLE-- [fill = 0]
                  7000d080    0000004c     ti_drivers_open_close.obj (.text.Drivers_ospiOpen)
                  7000d0cc    00000004     --HOLE-- [fill = 0]
                  7000d0d0    0000004c     ti_drivers_open_close.obj (.text.Drivers_uartOpen)
                  7000d11c    00000004     --HOLE-- [fill = 0]
                  7000d120    0000004c     drivers.am64x.r5f.ti-arm-clang.release.lib : udma_ring_lcdma.obj (.text.Udma_ringSetDoorBellLcdma)
                  7000d16c    00000004     --HOLE-- [fill = 0]
                  7000d170    0000004a                                                : ospi_phy.obj (.text.OSPI_phyReadAttackVector)
                  7000d1ba    00000006     --HOLE-- [fill = 0]
                  7000d1c0    0000004a                                                : sciclient.obj (.text.Sciclient_triggerSecHandover)
                  7000d20a    00000006     --HOLE-- [fill = 0]
                  7000d210    0000004a                                                : udma_ch.obj (.text.UdmaChPrms_init)
                  7000d25a    00000006     --HOLE-- [fill = 0]
                  7000d260    0000004a                                                : udma_rm.obj (.text.Udma_rmFreeMappedRxCh)
                  7000d2aa    00000006     --HOLE-- [fill = 0]
                  7000d2b0    0000004a                                                : udma_rm.obj (.text.Udma_rmFreeMappedTxCh)
                  7000d2fa    00000006     --HOLE-- [fill = 0]
                  7000d300    00000048                                                : csl_bcdma.obj (.text.CSL_bcdmaChanOpSetChanRT)
                  7000d348    00000008     --HOLE-- [fill = 0]
                  7000d350    00000048                                                : csl_intaggr.obj (.text.CSL_intaggrClrIntr)
                  7000d398    00000008     --HOLE-- [fill = 0]
                  7000d3a0    00000048                                                : lpddr4.obj (.text.LPDDR4_WritePhyIndepConfig)
                  7000d3e8    00000008     --HOLE-- [fill = 0]
                  7000d3f0    00000048                                                : ospi_phy.obj (.text.OSPI_phySetRdDelayTxRxDLL)
                  7000d438    00000008     --HOLE-- [fill = 0]
                  7000d440    00000048                                                : udma_ch.obj (.text.UdmaChRxPrms_init)
                  7000d488    00000008     --HOLE-- [fill = 0]
                  7000d490    00000046                                                : lpddr4.obj (.text.LPDDR4_WritePhyConfig)
                  7000d4d6    0000000a     --HOLE-- [fill = 0]
                  7000d4e0    00000046                                                : ospi_v0.obj (.text.OSPI_enablePhy)
                  7000d526    0000000a     --HOLE-- [fill = 0]
                  7000d530    00000046                                                : sciclient_pm.obj (.text.Sciclient_pmSetModuleRst_flags)
                  7000d576    0000000a     --HOLE-- [fill = 0]
                  7000d580    00000046                                                : sciclient_procboot.obj (.text.Sciclient_procBootGetProcessorState)
                  7000d5c6    0000000a     --HOLE-- [fill = 0]
                  7000d5d0    00000044                                                : bootloader.obj (.text.Bootloader_loadCpu)
                  7000d614    0000000c     --HOLE-- [fill = 0]
                  7000d620    00000044                                                : sciclient_pm.obj (.text.Sciclient_pmSetModuleRst)
                  7000d664    0000000c     --HOLE-- [fill = 0]
                  7000d670    00000044                                                : sciclient_procboot.obj (.text.Sciclient_procBootRequestProcessor)
                  7000d6b4    0000000c     --HOLE-- [fill = 0]
                  7000d6c0    00000044                                                : sciclient_rm_irq.obj (.text.Sciclient_rmIrqUnmappedVintRouteDelete)
                  7000d704    0000000c     --HOLE-- [fill = 0]
                  7000d710    00000042                                                : ddr_soc.obj (.text.DDR_socEnableVttRegulator)
                  7000d752    0000000e     --HOLE-- [fill = 0]
                  7000d760    00000042     board.am64x.r5f.ti-arm-clang.release.lib : flash_nor_ospi.obj (.text.Flash_quirkSpansionUNHYSADisable)
                  7000d7a2    0000000e     --HOLE-- [fill = 0]
                  7000d7b0    00000042     drivers.am64x.r5f.ti-arm-clang.release.lib : sciclient_procboot.obj (.text.Sciclient_procBootAuthAndStart)
                  7000d7f2    0000000e     --HOLE-- [fill = 0]
                  7000d800    00000042                                                : sciclient_rm.obj (.text.Sciclient_rmIrqReleaseRaw)
                  7000d842    0000000e     --HOLE-- [fill = 0]
                  7000d850    00000042                                                : sciclient_rm.obj (.text.Sciclient_rmPsilPair)
                  7000d892    0000000e     --HOLE-- [fill = 0]
                  7000d8a0    00000042                                                : sciclient_rm.obj (.text.Sciclient_rmPsilUnpair)
                  7000d8e2    0000000e     --HOLE-- [fill = 0]
                  7000d8f0    00000042     main.obj (.text.flashFixUpOspiBoot)
                  7000d932    0000000e     --HOLE-- [fill = 0]
                  7000d940    00000040     drivers.am64x.r5f.ti-arm-clang.release.lib : bootloader_profile.obj (.text.Bootloader_profileReset)
                  7000d980    00000040                                                : csl_bcdma.obj (.text.CSL_bcdmaChanOpSetBurstSize)
                  7000d9c0    00000040     nortos.am64x.r5f.ti-arm-clang.release.lib : ClockP_nortos.obj (.text.ClockP_stop)
                  7000da00    00000040     ti_dpl_config.obj (.text.Dpl_init)
                  7000da40    00000040     drivers.am64x.r5f.ti-arm-clang.release.lib : lpddr4.obj (.text.LPDDR4_WriteCtlConfig)
                  7000da80    00000040                                                : sciclient_firewall.obj (.text.Sciclient_firewallChangeOwnerInfo)
                  7000dac0    00000040                                                : sciclient_firewall.obj (.text.Sciclient_firewallSetRegion)
                  7000db00    00000040                                                : sciclient_rm.obj (.text.Sciclient_rmIrqSetRaw)
                  7000db40    00000040                                                : sciclient_rm.obj (.text.Sciclient_rmRingCfg)
                  7000db80    00000040                                                : sciclient_rm.obj (.text.Sciclient_rmUdmapFlowCfg)
                  7000dbc0    00000040                                                : sciclient_rm.obj (.text.Sciclient_rmUdmapFlowSizeThreshCfg)
                  7000dc00    00000040                                                : sciclient_rm.obj (.text.Sciclient_rmUdmapRxChCfg)
                  7000dc40    00000040                                                : sciclient_rm.obj (.text.Sciclient_rmUdmapTxChCfg)
                  7000dc80    00000040     nortos.am64x.r5f.ti-arm-clang.release.lib : SemaphoreP_nortos.obj (.text.SemaphoreP_constructBinary)
                  7000dcc0    00000040     drivers.am64x.r5f.ti-arm-clang.release.lib : udma_rm.obj (.text.Udma_rmFreeBlkCopyCh)
                  7000dd00    00000040                                                : udma_rm.obj (.text.Udma_rmFreeBlkCopyHcCh)
                  7000dd40    00000040                                                : udma_rm.obj (.text.Udma_rmFreeBlkCopyUhcCh)
                  7000dd80    00000040                                                : udma_rm.obj (.text.Udma_rmFreeEvent)
                  7000ddc0    00000040                                                : udma_rm.obj (.text.Udma_rmFreeIrIntr)
                  7000de00    00000040                                                : udma_rm.obj (.text.Udma_rmFreeRxCh)
                  7000de40    00000040                                                : udma_rm.obj (.text.Udma_rmFreeRxHcCh)
                  7000de80    00000040                                                : udma_rm.obj (.text.Udma_rmFreeRxUhcCh)
                  7000dec0    00000040                                                : udma_rm.obj (.text.Udma_rmFreeTxCh)
                  7000df00    00000040                                                : udma_rm.obj (.text.Udma_rmFreeTxHcCh)
                  7000df40    00000040                                                : udma_rm.obj (.text.Udma_rmFreeTxUhcCh)
                  7000df80    00000040                                                : udma_rm.obj (.text.Udma_rmFreeVintr)
                  7000dfc0    0000003e                                                : bootloader.obj (.text.Bootloader_open)
                  7000dffe    00000002     --HOLE-- [fill = 0]
                  7000e000    0000003e                                                : soc.obj (.text.SOC_controlModuleUnlockMMR)
                  7000e03e    00000002     --HOLE-- [fill = 0]
                  7000e040    0000003e                                                : sciclient_procboot.obj (.text.Sciclient_procBootSetProcessorCfg)
                  7000e07e    00000002     --HOLE-- [fill = 0]
                  7000e080    0000003e     nortos.am64x.r5f.ti-arm-clang.release.lib : SemaphoreP_nortos.obj (.text.SemaphoreP_constructMutex)
                  7000e0be    00000002     --HOLE-- [fill = 0]
                  7000e0c0    0000003e     drivers.am64x.r5f.ti-arm-clang.release.lib : udma_flow.obj (.text.UdmaFlowPrms_init)
                  7000e0fe    00000002     --HOLE-- [fill = 0]
                  7000e100    0000003e                                                : udma_ring_common.obj (.text.Udma_ringFlushRaw)
                  7000e13e    00000002     --HOLE-- [fill = 0]
                  7000e140    0000003c                                                : bootloader_soc.obj (.text.Bootloader_socTranslateSectionAddr)
                  7000e17c    00000004     --HOLE-- [fill = 0]
                  7000e180    0000003c                                                : csl_bcdma.obj (.text.CSL_bcdmaGetCfg)
                  7000e1bc    00000004     --HOLE-- [fill = 0]
                  7000e1c0    0000003c                                                : udma_ring_lcdma.obj (.text.Udma_ringPrimeReadLcdma)
                  7000e1fc    00000004     --HOLE-- [fill = 0]
                  7000e200    0000003a     nortos.am64x.r5f.ti-arm-clang.release.lib : ClockP_nortos.obj (.text.ClockP_destruct)
                  7000e23a    00000006     --HOLE-- [fill = 0]
                  7000e240    0000003a                                               : DebugP_uartLogWriter.obj (.text.DebugP_uartLogWriterPutChar)
                  7000e27a    00000006     --HOLE-- [fill = 0]
                  7000e280    0000003a     drivers.am64x.r5f.ti-arm-clang.release.lib : ospi_dma.obj (.text.OSPI_dmaOpen)
                  7000e2ba    00000006     --HOLE-- [fill = 0]
                  7000e2c0    0000003a                                                : ospi_v0.obj (.text.OSPI_setDeviceSize)
                  7000e2fa    00000006     --HOLE-- [fill = 0]
                  7000e300    0000003a                                                : uart_dma.obj (.text.UART_dmaOpen)
                  7000e33a    00000006     --HOLE-- [fill = 0]
                  7000e340    00000038                                                : bootloader.obj (.text.Bootloader_getX509CertLen)
                  7000e378    00000008     --HOLE-- [fill = 0]
                  7000e380    00000038                                                : ospi_v0.obj (.text.OSPI_disablePhy)
                  7000e3b8    00000008     --HOLE-- [fill = 0]
                  7000e3c0    00000038                                                : sciclient.obj (.text.Sciclient_getCurrentContext)
                  7000e3f8    00000008     --HOLE-- [fill = 0]
                  7000e400    00000038                                                : udma_ring_lcdma.obj (.text.Udma_lcdmaRingaccMemOps)
                  7000e438    00000008     --HOLE-- [fill = 0]
                  7000e440    00000038     nortos.am64x.r5f.ti-arm-clang.release.lib : DebugP_nortos.obj (.text._DebugP_logZone)
                  7000e478    00000008     --HOLE-- [fill = 0]
                  7000e480    00000036     drivers.am64x.r5f.ti-arm-clang.release.lib : csl_pktdma.obj (.text.CSL_pktdmaGetCfg)
                  7000e4b6    0000000a     --HOLE-- [fill = 0]
                  7000e4c0    00000036     board.am64x.r5f.ti-arm-clang.release.lib : flash.obj (.text.Flash_open)
                  7000e4f6    0000000a     --HOLE-- [fill = 0]
                  7000e500    00000036     ti_power_clock_config.obj (.text.Module_clockSetFrequency)
                  7000e536    0000000a     --HOLE-- [fill = 0]
                  7000e540    00000034     nortos.am64x.r5f.ti-arm-clang.release.lib : ClockP_nortos.obj (.text.ClockP_start)
                  7000e574    0000000c     --HOLE-- [fill = 0]
                  7000e580    00000034     drivers.am64x.r5f.ti-arm-clang.release.lib : lpddr4_16bit.obj (.text.LPDDR4_EnablePIInitiator)
                  7000e5b4    0000000c     --HOLE-- [fill = 0]
                  7000e5c0    00000034                                                : lpddr4.obj (.text.LPDDR4_PollCtlIrq)
                  7000e5f4    0000000c     --HOLE-- [fill = 0]
                  7000e600    00000032                                                : bootloader.obj (.text.Bootloader_BootImageInfo_init)
                  7000e632    0000000e     --HOLE-- [fill = 0]
                  7000e640    00000032     nortos.am64x.r5f.ti-arm-clang.release.lib : ClockP_nortos.obj (.text.ClockP_usleep)
                  7000e672    0000000e     --HOLE-- [fill = 0]
                  7000e680    00000032                                               : SemaphoreP_nortos.obj (.text.SemaphoreP_post)
                  7000e6b2    0000000e     --HOLE-- [fill = 0]
                  7000e6c0    00000032     drivers.am64x.r5f.ti-arm-clang.release.lib : udma_event.obj (.text.UdmaEventPrms_init)
                  7000e6f2    00000002     --HOLE-- [fill = 0]
                  7000e6f4    00000030     nortos.am64x.r5f.ti-arm-clang.release.lib : PmuP_armv7r_asm.obj (.text.pmu)
                  7000e724    0000000c     --HOLE-- [fill = 0]
                  7000e730    0000002e     drivers.am64x.r5f.ti-arm-clang.release.lib : ddr.obj (.text.DDR_setFreq)
                  7000e75e    00000002     --HOLE-- [fill = 0]
                  7000e760    0000002e     ti_power_clock_config.obj (.text.Module_clockDisable)
                  7000e78e    00000002     --HOLE-- [fill = 0]
                  7000e790    0000002e     ti_power_clock_config.obj (.text.Module_clockEnable)
                  7000e7be    00000002     --HOLE-- [fill = 0]
                  7000e7c0    0000002e     drivers.am64x.r5f.ti-arm-clang.release.lib : uart_v0.obj (.text.UART_getHandle)
                  7000e7ee    00000002     --HOLE-- [fill = 0]
                  7000e7f0    0000002e                                                : udma_ring_common.obj (.text.UdmaRingPrms_init)
                  7000e81e    00000002     --HOLE-- [fill = 0]
                  7000e820    0000002e                                                : udma_ch.obj (.text.Udma_chGetCqRingNum)
                  7000e84e    00000002     --HOLE-- [fill = 0]
                  7000e850    0000002c                                                : bootloader_soc.obj (.text.Bootloader_socIsMCUResetIsoEnabled)
                  7000e87c    00000004     --HOLE-- [fill = 0]
                  7000e880    0000002c                                                : csl_pktdma.obj (.text.CSL_pktdmaGetRxRT)
                  7000e8ac    00000004     --HOLE-- [fill = 0]
                  7000e8b0    0000002c                                                : csl_pktdma.obj (.text.CSL_pktdmaGetTxRT)
                  7000e8dc    00000004     --HOLE-- [fill = 0]
                  7000e8e0    0000002c     ti_drivers_open_close.obj (.text.Drivers_close)
                  7000e90c    00000004     --HOLE-- [fill = 0]
                  7000e910    0000002c     drivers.am64x.r5f.ti-arm-clang.release.lib : ospi_v0.obj (.text.OSPI_getHandle)
                  7000e93c    00000004     --HOLE-- [fill = 0]
                  7000e940    0000002a                                                : soc.obj (.text.SOC_controlModuleLockMMR)
                  7000e96a    00000006     --HOLE-- [fill = 0]
                  7000e970    0000002a                                                : udma_utils.obj (.text.Udma_phyToVirtFxn)
                  7000e99a    00000006     --HOLE-- [fill = 0]
                  7000e9a0    00000028                                                : bootloader_soc.obj (.text.Bootloader_socCpuPowerOnReset)
                  7000e9c8    00000008     --HOLE-- [fill = 0]
                  7000e9d0    00000028                                                : csl_intaggr.obj (.text.CSL_intaggrGetCfg)
                  7000e9f8    00000008     --HOLE-- [fill = 0]
                  7000ea00    00000028     nortos.am64x.r5f.ti-arm-clang.release.lib : ClockP_nortos.obj (.text.ClockP_sleepTicks)
                  7000ea28    00000008     --HOLE-- [fill = 0]
                  7000ea30    00000028     drivers.am64x.r5f.ti-arm-clang.release.lib : udma_ch.obj (.text.Udma_chGetCqRingHandle)
                  7000ea58    00000008     --HOLE-- [fill = 0]
                  7000ea60    00000028                                                : udma_ch.obj (.text.Udma_chGetFqRingHandle)
                  7000ea88    00000008     --HOLE-- [fill = 0]
                  7000ea90    00000028                                                : udma_ring_lcdma.obj (.text.Udma_ringGetForwardRingOccLcdma)
                  7000eab8    00000008     --HOLE-- [fill = 0]
                  7000eac0    00000028                                                : udma_ring_lcdma.obj (.text.Udma_ringGetReverseRingOccLcdma)
                  7000eae8    00000008     --HOLE-- [fill = 0]
                  7000eaf0    00000028                                                : udma_rmcfg.obj (.text.Udma_rmGetSharedResPrms)
                  7000eb18    00000008     --HOLE-- [fill = 0]
                  7000eb20    00000026                                                : bootloader_profile.obj (.text.Bootloader_profileAddProfilePoint)
                  7000eb46    0000000a     --HOLE-- [fill = 0]
                  7000eb50    00000026                                                : ospi_v0.obj (.text.OSPI_setNumAddrBytes)
                  7000eb76    0000000a     --HOLE-- [fill = 0]
                  7000eb80    00000024                                                : csl_bcdma.obj (.text.CSL_bcdmaGetChanPeerReg)
                  7000eba4    0000000c     --HOLE-- [fill = 0]
                  7000ebb0    00000024                                                : ospi_dma.obj (.text.OSPI_dmaCopy)
                  7000ebd4    0000000c     --HOLE-- [fill = 0]
                  7000ebe0    00000024                                                : udma_ring_lcdma.obj (.text.Udma_ringPrimeLcdma)
                  7000ec04    0000000c     --HOLE-- [fill = 0]
                  7000ec10    00000024     nortos.am64x.r5f.ti-arm-clang.release.lib : printf.obj (.text.vprintf_)
                  7000ec34    00000024     libclang_rt.builtins.a : aeabi_uldivmod.S.obj (.text)
                  7000ec58    00000008     --HOLE-- [fill = 0]
                  7000ec60    00000022     drivers.am64x.r5f.ti-arm-clang.release.lib : bootloader.obj (.text.Bootloader_runSelfCpu)
                  7000ec82    0000000e     --HOLE-- [fill = 0]
                  7000ec90    00000022                                                : csl_bcdma.obj (.text.CSL_bcdmaSetChanPeerReg)
                  7000ecb2    0000000e     --HOLE-- [fill = 0]
                  7000ecc0    00000022     ti_pinmux_config.obj (.text.Pinmux_init)
                  7000ece2    0000000e     --HOLE-- [fill = 0]
                  7000ecf0    00000022     drivers.am64x.r5f.ti-arm-clang.release.lib : udma_utils.obj (.text.Udma_virtToPhyFxn)
                  7000ed12    0000000e     --HOLE-- [fill = 0]
                  7000ed20    00000020                                                : bootloader_soc.obj (.text.Bootloader_enableMCUPLL)
                  7000ed40    00000020                                                : bootloader_soc.obj (.text.Bootloader_socGetCoreName)
                  7000ed60    00000020                                                : bootloader_soc.obj (.text.Bootloader_socRprcToCslCoreId)
                  7000ed80    00000020                                                : csl_pktdma.obj (.text.CSL_pktdmaSetRxRT)
                  7000eda0    00000020                                                : csl_pktdma.obj (.text.CSL_pktdmaSetTxRT)
                  7000edc0    00000020     nortos.am64x.r5f.ti-arm-clang.release.lib : DebugP_log.obj (.text.DebugP_logZoneEnable)
                  7000ede0    00000020     board.am64x.r5f.ti-arm-clang.release.lib : flash.obj (.text.Flash_getAttrs)
                  7000ee00    00000020                                              : flash.obj (.text.Flash_getHandle)
                  7000ee20    00000020     drivers.am64x.r5f.ti-arm-clang.release.lib : soc.obj (.text.SOC_getSelfCpuClk)
                  7000ee40    00000020     nortos.am64x.r5f.ti-arm-clang.release.lib : TimerP.obj (.text.TimerP_Params_init)
                  7000ee60    00000020     drivers.am64x.r5f.ti-arm-clang.release.lib : udma_utils.obj (.text.UdmaUtils_makeTrpdTr15)
                  7000ee80    0000001e                                                : csl_bcdma.obj (.text.CSL_bcdmaTeardownRxChan)
                  7000ee9e    00000002     --HOLE-- [fill = 0]
                  7000eea0    0000001e                                                : csl_bcdma.obj (.text.CSL_bcdmaTeardownTxChan)
                  7000eebe    00000002     --HOLE-- [fill = 0]
                  7000eec0    0000001e     board.am64x.r5f.ti-arm-clang.release.lib : flash.obj (.text.Flash_read)
                  7000eede    00000002     --HOLE-- [fill = 0]
                  7000eee0    0000001e     drivers.am64x.r5f.ti-arm-clang.release.lib : ospi_v0.obj (.text.OSPI_enableDacMode)
                  7000eefe    00000002     --HOLE-- [fill = 0]
                  7000ef00    0000001e                                                : udma_ring_lcdma.obj (.text.Udma_ringDequeueRawLcdma)
                  7000ef1e    00000002     --HOLE-- [fill = 0]
                  7000ef20    0000001e                                                : udma_ring_lcdma.obj (.text.Udma_ringQueueRawLcdma)
                  7000ef3e    00000002     --HOLE-- [fill = 0]
                  7000ef40    0000001c                                                : bootloader_soc.obj (.text.Bootloader_socCpuGetClkDefault)
                  7000ef5c    00000004     --HOLE-- [fill = 0]
                  7000ef60    0000001c                                                : bootloader_soc.obj (.text.Bootloader_socIsAuthRequired)
                  7000ef7c    00000004     --HOLE-- [fill = 0]
                  7000ef80    0000001c                                                : bootloader_soc.obj (.text.Bootloader_socResetWorkaround)
                  7000ef9c    00000004     --HOLE-- [fill = 0]
                  7000efa0    0000001c                                                : csl_lcdma_ringacc.obj (.text.CSL_lcdma_ringaccPush64)
                  7000efbc    00000004     --HOLE-- [fill = 0]
                  7000efc0    0000001c                                                : csl_pktdma.obj (.text.CSL_pktdmaGetChanPeerReg)
                  7000efdc    00000004     --HOLE-- [fill = 0]
                  7000efe0    0000001c                                                : csl_pktdma.obj (.text.CSL_pktdmaSetChanPeerReg)
                  7000effc    00000004     --HOLE-- [fill = 0]
                  7000f000    0000001c                                                : ospi_v0.obj (.text.OSPI_setRdDataCaptureDelay)
                  7000f01c    00000004     --HOLE-- [fill = 0]
                  7000f020    0000001c                                                : soc.obj (.text.SOC_getCoreName)
                  7000f03c    00000004     --HOLE-- [fill = 0]
                  7000f040    0000001c                                                : udma_utils.obj (.text.UdmaUtils_getRingMemSize)
                  7000f05c    00000004     --HOLE-- [fill = 0]
                  7000f060    0000001c                                                : udma_ring_common.obj (.text.Udma_ringGetNum)
                  7000f07c    00000004     --HOLE-- [fill = 0]
                  7000f080    0000001c     nortos.am64x.r5f.ti-arm-clang.release.lib : boot_armv7r.obj (.text._system_pre_init)
                  7000f09c    0000001c     libsysbm.a : memcpy32.S.obj (.text:TI_memcpy_small)
                  7000f0b8    0000001c     libclang_rt.builtins.a : aeabi_memset.S.obj (.text)
                  7000f0d4    0000000c     --HOLE-- [fill = 0]
                  7000f0e0    0000001a     drivers.am64x.r5f.ti-arm-clang.release.lib : bootloader_profile.obj (.text.Bootloader_profileAddCore)
                  7000f0fa    00000006     --HOLE-- [fill = 0]
                  7000f100    0000001a                                                : csl_emif.obj (.text.CSL_emifDisableECC)
                  7000f11a    00000006     --HOLE-- [fill = 0]
                  7000f120    0000001a                                                : csl_emif.obj (.text.CSL_emifEnableECC)
                  7000f13a    00000006     --HOLE-- [fill = 0]
                  7000f140    0000001a                                                : ospi_v0.obj (.text.OSPI_deinit)
                  7000f15a    00000006     --HOLE-- [fill = 0]
                  7000f160    0000001a                                                : uart_v0.obj (.text.UART_deinit)
                  7000f17a    00000006     --HOLE-- [fill = 0]
                  7000f180    0000001a                                                : uart_dma.obj (.text.UART_writeInterruptDma)
                  7000f19a    00000006     --HOLE-- [fill = 0]
                  7000f1a0    0000001a                                                : udma_rmcfg.obj (.text.Udma_rmGetDefBoardCfgPrms)
                  7000f1ba    00000006     --HOLE-- [fill = 0]
                  7000f1c0    00000018                                                : bootloader_soc.obj (.text.Bootloader_socAuthImage)
                  7000f1d8    00000008     --HOLE-- [fill = 0]
                  7000f1e0    00000018                                                : lpddr4.obj (.text.LPDDR4_Init)
                  7000f1f8    00000008     --HOLE-- [fill = 0]
                  7000f200    00000018                                                : ospi_v0.obj (.text.OSPI_disablePhyPipeline)
                  7000f218    00000008     --HOLE-- [fill = 0]
                  7000f220    00000018                                                : ospi_dma.obj (.text.OSPI_dmaClose)
                  7000f238    00000008     --HOLE-- [fill = 0]
                  7000f240    00000018                                                : ospi_v0.obj (.text.OSPI_enableDDR)
                  7000f258    00000008     --HOLE-- [fill = 0]
                  7000f260    00000018                                                : ospi_v0.obj (.text.OSPI_enablePhyPipeline)
                  7000f278    00000008     --HOLE-- [fill = 0]
                  7000f280    00000018                                                : ospi_v0.obj (.text.OSPI_enableSDR)
                  7000f298    00000008     --HOLE-- [fill = 0]
                  7000f2a0    00000018                                                : ospi_v0.obj (.text.OSPI_setCmdDummyCycles)
                  7000f2b8    00000008     --HOLE-- [fill = 0]
                  7000f2c0    00000018                                                : sciclient_soc_priv.obj (.text.Sciclient_getDevId)
                  7000f2d8    00000008     --HOLE-- [fill = 0]
                  7000f2e0    00000018                                                : udma_ring_lcdma.obj (.text.Udma_ringGetElementCntLcdma)
                  7000f2f8    00000008     --HOLE-- [fill = 0]
                  7000f300    00000018                                                : udma_ring_lcdma.obj (.text.Udma_ringGetMemPtrLcdma)
                  7000f318    00000008     --HOLE-- [fill = 0]
                  7000f320    00000018                                                : udma_ring_lcdma.obj (.text.Udma_ringGetModeLcdma)
                  7000f338    00000008     --HOLE-- [fill = 0]
                  7000f340    00000018                                                : udma_ring_lcdma.obj (.text.Udma_ringGetRdIdxLcdma)
                  7000f358    00000008     --HOLE-- [fill = 0]
                  7000f360    00000018                                                : udma_ring_lcdma.obj (.text.Udma_ringGetWrIdxLcdma)
                  7000f378    00000018     libsysbm.a : memset32.S.obj (.text:TI_memset_small)
                  7000f390    00000016     drivers.am64x.r5f.ti-arm-clang.release.lib : bootloader_soc.obj (.text.Bootloader_socNotifyFirewallOpen)
                  7000f3a6    0000000a     --HOLE-- [fill = 0]
                  7000f3b0    00000016                                                : csl_bcdma.obj (.text.CSL_bcdmaGetRxRT)
                  7000f3c6    0000000a     --HOLE-- [fill = 0]
                  7000f3d0    00000016                                                : csl_bcdma.obj (.text.CSL_bcdmaGetTxRT)
                  7000f3e6    0000000a     --HOLE-- [fill = 0]
                  7000f3f0    00000016                                                : csl_bcdma.obj (.text.CSL_bcdmaSetRxRT)
                  7000f406    0000000a     --HOLE-- [fill = 0]
                  7000f410    00000016                                                : csl_bcdma.obj (.text.CSL_bcdmaSetTxRT)
                  7000f426    0000000a     --HOLE-- [fill = 0]
                  7000f430    00000016                                                : ospi_v0.obj (.text.OSPI_ReadCmdParams_init)
                  7000f446    0000000a     --HOLE-- [fill = 0]
                  7000f450    00000016                                                : ospi_v0.obj (.text.OSPI_WriteCmdParams_init)
                  7000f466    0000000a     --HOLE-- [fill = 0]
                  7000f470    00000014                                                : csl_lcdma_ringacc.obj (.text.CSL_lcdma_ringaccPop64)
                  7000f484    0000000c     --HOLE-- [fill = 0]
                  7000f490    00000014                                                : ospi_v0.obj (.text.OSPI_enableModeBitsCmd)
                  7000f4a4    0000000c     --HOLE-- [fill = 0]
                  7000f4b0    00000014                                                : ospi_v0.obj (.text.OSPI_setReadDummyCycles)
                  7000f4c4    0000000c     --HOLE-- [fill = 0]
                  7000f4d0    00000012                                                : csl_emif.obj (.text.CSL_emifClearECCInterruptStatus)
                  7000f4e2    0000000e     --HOLE-- [fill = 0]
                  7000f4f0    00000012                                                : csl_emif.obj (.text.CSL_emifEnableECCInterrupts)
                  7000f502    0000000e     --HOLE-- [fill = 0]
                  7000f510    00000012                                                : csl_lcdma_ringacc.obj (.text.CSL_lcdma_ringaccGetReverseRingOcc)
                  7000f522    0000000e     --HOLE-- [fill = 0]
                  7000f530    00000012     board.am64x.r5f.ti-arm-clang.release.lib : flash.obj (.text.Flash_reset)
                  7000f542    0000000e     --HOLE-- [fill = 0]
                  7000f550    00000012     drivers.am64x.r5f.ti-arm-clang.release.lib : ospi_v0.obj (.text.OSPI_Transaction_init)
                  7000f562    0000000e     --HOLE-- [fill = 0]
                  7000f570    00000012     nortos.am64x.r5f.ti-arm-clang.release.lib : TimerP.obj (.text.TimerP_clearOverflowInt)
                  7000f582    0000000e     --HOLE-- [fill = 0]
                  7000f590    00000010     drivers.am64x.r5f.ti-arm-clang.release.lib : bootloader.obj (.text.Bootloader_close)
                  7000f5a0    00000010                                                : bootloader.obj (.text.Bootloader_isCorePresent)
                  7000f5b0    00000010                                                : csl_lcdma_ringacc.obj (.text.CSL_lcdma_ringaccIsTeardownComplete)
                  7000f5c0    00000010     board.am64x.r5f.ti-arm-clang.release.lib : flash.obj (.text.Flash_getPhyTuningOffset)
                  7000f5d0    00000010     drivers.am64x.r5f.ti-arm-clang.release.lib : lpddr4.obj (.text.LPDDR4_Probe)
                  7000f5e0    00000010                                                : ospi_v0.obj (.text.OSPI_clearDualOpCodeMode)
                  7000f5f0    00000010                                                : ospi_v0.obj (.text.OSPI_enableModeBitsRead)
                  7000f600    00000010                                                : ospi_phy.obj (.text.OSPI_phyGetTuningData)
                  7000f610    00000010                                                : ospi_v0.obj (.text.OSPI_setDualOpCodeMode)
                  7000f620    00000010                                                : ospi_v0.obj (.text.OSPI_setModeBits)
                  7000f630    00000010                                                : sciclient_rm.obj (.text.Sciclient_rmIrqRelease)
                  7000f640    00000010                                                : udma_rm.obj (.text.Udma_rmTranslateCoreIntrInput)
                  7000f650    00000010                                                : udma_rm.obj (.text.Udma_rmTranslateIrOutput)
                  7000f660    0000000e                                                : bootloader_profile.obj (.text.Bootloader_profileUpdateAppimageSize)
                  7000f66e    00000002     --HOLE-- [fill = 0]
                  7000f670    0000000e                                                : bootloader_profile.obj (.text.Bootloader_profileUpdateMediaAndClk)
                  7000f67e    00000002     --HOLE-- [fill = 0]
                  7000f680    0000000e                                                : csl_lcdma_ringacc.obj (.text.CSL_lcdma_ringaccGetForwardRingOcc)
                  7000f68e    00000002     --HOLE-- [fill = 0]
                  7000f690    0000000e                                                : csl_lcdma_ringacc.obj (.text.CSL_lcdma_ringaccInitRingObj)
                  7000f69e    00000002     --HOLE-- [fill = 0]
                  7000f6a0    0000000e     ti_drivers_open_close.obj (.text.Drivers_open)
                  7000f6ae    00000002     --HOLE-- [fill = 0]
                  7000f6b0    0000000e     board.am64x.r5f.ti-arm-clang.release.lib : flash.obj (.text.Flash_close)
                  7000f6be    00000002     --HOLE-- [fill = 0]
                  7000f6c0    0000000e     ti_power_clock_config.obj (.text.PowerClock_init)
                  7000f6ce    00000002     --HOLE-- [fill = 0]
                  7000f6d0    0000000c     drivers.am64x.r5f.ti-arm-clang.release.lib : bootloader.obj (.text.Bootloader_Params_init)
                  7000f6dc    00000004     --HOLE-- [fill = 0]
                  7000f6e0    0000000c     nortos.am64x.r5f.ti-arm-clang.release.lib : ClockP_nortos.obj (.text.ClockP_getTicks)
                  7000f6ec    00000004     --HOLE-- [fill = 0]
                  7000f6f0    0000000c                                               : DebugP_uartLogWriter.obj (.text.DebugP_uartSetDrvIndex)
                  7000f6fc    00000004     --HOLE-- [fill = 0]
                  7000f700    0000000c     drivers.am64x.r5f.ti-arm-clang.release.lib : ospi_v0.obj (.text.OSPI_getFlashDataBaseAddr)
                  7000f70c    00000004     --HOLE-- [fill = 0]
                  7000f710    0000000c                                                : ospi_v0.obj (.text.OSPI_getInputClk)
                  7000f71c    00000004     --HOLE-- [fill = 0]
                  7000f720    0000000c                                                : sciclient.obj (.text.Sciclient_getSelfDevIdCore)
                  7000f72c    00000004     --HOLE-- [fill = 0]
                  7000f730    0000000a                                                : bootloader.obj (.text.Bootloader_getMulticoreImageSize)
                  7000f73a    00000006     --HOLE-- [fill = 0]
                  7000f740    0000000a                                                : bootloader_soc.obj (.text.Bootloader_socGetSBLMem)
                  7000f74a    00000006     --HOLE-- [fill = 0]
                  7000f750    0000000a                                                : csl_sec_proxy.obj (.text.CSL_secProxyGetDataAddr)
                  7000f75a    00000006     --HOLE-- [fill = 0]
                  7000f760    0000000a     nortos.am64x.r5f.ti-arm-clang.release.lib : ClockP_nortos.obj (.text.ClockP_Params_init)
                  7000f76a    00000006     --HOLE-- [fill = 0]
                  7000f770    0000000a                                               : ClockP_nortos.obj (.text.ClockP_isActive)
                  7000f77a    00000006     --HOLE-- [fill = 0]
                  7000f780    0000000a     drivers.am64x.r5f.ti-arm-clang.release.lib : bootloader_flash.obj (.text.Flash_imgOpen)
                  7000f78a    00000006     --HOLE-- [fill = 0]
                  7000f790    0000000a                                                : ospi_v0.obj (.text.OSPI_setPhyEnableSuccess)
                  7000f79a    00000006     --HOLE-- [fill = 0]
                  7000f7a0    0000000a     nortos.am64x.r5f.ti-arm-clang.release.lib : TimerP.obj (.text.TimerP_start)
                  7000f7aa    00000006     --HOLE-- [fill = 0]
                  7000f7b0    00000008     drivers.am64x.r5f.ti-arm-clang.release.lib : bootloader_flash.obj (.text.Flash_imgSeek)
                  7000f7b8    00000008     --HOLE-- [fill = 0]
                  7000f7c0    00000008     board.am64x.r5f.ti-arm-clang.release.lib : flash_nor_ospi.obj (.text.Flash_norOspiClose)
                  7000f7c8    00000008     --HOLE-- [fill = 0]
                  7000f7d0    00000008     drivers.am64x.r5f.ti-arm-clang.release.lib : ospi_v0.obj (.text.OSPI_setCmdExtType)
                  7000f7d8    00000008     --HOLE-- [fill = 0]
                  7000f7e0    00000008                                                : udma_ring_common.obj (.text.Udma_ringGetForwardRingOcc)
                  7000f7e8    00000008     --HOLE-- [fill = 0]
                  7000f7f0    00000008                                                : udma_ring_common.obj (.text.Udma_ringGetReverseRingOcc)
                  7000f7f8    00000008     --HOLE-- [fill = 0]
                  7000f800    00000008                                                : udma_ring_lcdma.obj (.text.Udma_ringHandleClearRegsLcdma)
                  7000f808    00000008     --HOLE-- [fill = 0]
                  7000f810    00000008     nortos.am64x.r5f.ti-arm-clang.release.lib : printf.obj (.text._out_char)
                  7000f818    00000008     --HOLE-- [fill = 0]
                  7000f820    00000006     drivers.am64x.r5f.ti-arm-clang.release.lib : csl_pktdma.obj (.text.CSL_pktdmaTeardownRxChan)
                  7000f826    0000000a     --HOLE-- [fill = 0]
                  7000f830    00000006                                                : csl_pktdma.obj (.text.CSL_pktdmaTeardownTxChan)
                  7000f836    0000000a     --HOLE-- [fill = 0]
                  7000f840    00000006                                                : ospi_v0.obj (.text.OSPI_isPhyEnable)
                  7000f846    0000000a     --HOLE-- [fill = 0]
                  7000f850    00000006                                                : udma_rm.obj (.text.Udma_rmAllocFreeRing)
                  7000f856    0000000a     --HOLE-- [fill = 0]
                  7000f860    00000004     ti_board_open_close.obj (.text.Board_driversOpen)
                  7000f864    0000000c     --HOLE-- [fill = 0]
                  7000f870    00000004     drivers.am64x.r5f.ti-arm-clang.release.lib : bootloader_soc.obj (.text.Bootloader_socWaitForFWBoot)
                  7000f874    0000000c     --HOLE-- [fill = 0]
                  7000f880    00000004                                                : lpddr4.obj (.text.CPS_UncachedRead32)
                  7000f884    0000000c     --HOLE-- [fill = 0]
                  7000f890    00000004                                                : lpddr4.obj (.text.CPS_UncachedWrite32)
                  7000f894    0000000c     --HOLE-- [fill = 0]
                  7000f8a0    00000004     nortos.am64x.r5f.ti-arm-clang.release.lib : ClockP_nortos_r5.obj (.text.ClockP_getTimerCount)
                  7000f8a4    0000000c     --HOLE-- [fill = 0]
                  7000f8b0    00000004                                               : ClockP_nortos_r5.obj (.text.ClockP_timerClearOverflowInt)
                  7000f8b4    0000000c     --HOLE-- [fill = 0]
                  7000f8c0    00000004     drivers.am64x.r5f.ti-arm-clang.release.lib : bootloader_flash.obj (.text.Flash_imgGetCurOffset)
                  7000f8c4    0000000c     --HOLE-- [fill = 0]
                  7000f8d0    00000004     ti_power_clock_config.obj (.text.PowerClock_deinit)
                  7000f8d4    0000000c     --HOLE-- [fill = 0]
                  7000f8e0    00000004     drivers.am64x.r5f.ti-arm-clang.release.lib : sciclient.obj (.text.Sciclient_deinit)
                  7000f8e4    0000000c     --HOLE-- [fill = 0]
                  7000f8f0    00000004                                                : sciclient_rm.obj (.text.Sciclient_rmIrqSet)
                  7000f8f4    0000000c     --HOLE-- [fill = 0]
                  7000f900    00000004                                                : sciclient_rm.obj (.text.Sciclient_rmIrqTranslateIaOutput)
                  7000f904    0000000c     --HOLE-- [fill = 0]
                  7000f910    00000004     nortos.am64x.r5f.ti-arm-clang.release.lib : TimerP.obj (.text.TimerP_getCount)
                  7000f914    0000000c     --HOLE-- [fill = 0]
                  7000f920    00000004                                               : TimerP.obj (.text.TimerP_getReloadCount)
                  7000f924    0000000c     --HOLE-- [fill = 0]
                  7000f930    00000004     drivers.am64x.r5f.ti-arm-clang.release.lib : udma_utils.obj (.text.Udma_defaultVirtToPhyFxn)
                  7000f934    0000000c     --HOLE-- [fill = 0]
                  7000f940    00000004                                                : udma_soc.obj (.text.Udma_isCacheCoherent)
                  7000f944    0000000c     --HOLE-- [fill = 0]
                  7000f950    00000004     libclang_rt.builtins.a : aeabi_div0.c.obj (.text.__aeabi_ldiv0)
                  7000f954    0000000c     --HOLE-- [fill = 0]
                  7000f960    00000004     ti_dpl_config.obj (.text.putchar_)
                  7000f964    0000000c     --HOLE-- [fill = 0]
                  7000f970    00000002     ti_dpl_config.obj (.text.Dpl_deinit)
                  7000f972    0000000e     --HOLE-- [fill = 0]
                  7000f980    00000002     drivers.am64x.r5f.ti-arm-clang.release.lib : bootloader_flash.obj (.text.Flash_imgClose)
                  7000f982    0000000e     --HOLE-- [fill = 0]
                  7000f990    00000002                                                : ospi_v0.obj (.text.OSPI_isr)
                  7000f992    0000000e     --HOLE-- [fill = 0]
                  7000f9a0    00000002     nortos.am64x.r5f.ti-arm-clang.release.lib : SemaphoreP_nortos.obj (.text.SemaphoreP_destruct)
                  7000f9a2    0000000e     --HOLE-- [fill = 0]
                  7000f9b0    00000002                                               : TaskP_nortos.obj (.text.TaskP_yield)
                  7000f9b2    0000000e     --HOLE-- [fill = 0]
                  7000f9c0    00000002     drivers.am64x.r5f.ti-arm-clang.release.lib : udma_utils.obj (.text.Udma_defaultPhyToVirtFxn)
                  7000f9c2    0000000e     --HOLE-- [fill = 0]
                  7000f9d0    00000002                                                : udma_rm.obj (.text.Udma_rmFreeFreeRing)
                  7000f9d2    0000000e     --HOLE-- [fill = 0]
                  7000f9e0    00000002     nortos.am64x.r5f.ti-arm-clang.release.lib : printf.obj (.text._out_null)
                  7000f9e2    0000000e     --HOLE-- [fill = 0]

.text.hwi 
*          0    7000f9f0    00000790     
                  7000f9f0    00000452     nortos.am64x.r5f.ti-arm-clang.release.lib : HwiP_armv7r_vim.obj (.text.hwi)
                  7000fe42    00000002     --HOLE-- [fill = 0]
                  7000fe44    00000008                                               : HwiP_armv7r_asm.obj (.tramp.HwiP_enableFIQ.1)
                  7000fe4c    00000004     --HOLE-- [fill = 0]
                  7000fe50    0000023e                                               : HwiP_armv7r_handlers_nortos.obj (.text.hwi)
                  7001008e    00000002     --HOLE-- [fill = 0]
                  70010090    00000078                                               : HwiP_armv7r_handlers_nortos_asm.obj (.text.hwi)
                  70010108    00000070                                               : HwiP_armv7r_asm.obj (.text.hwi)
                  70010178    00000008     --HOLE-- [fill = 0]

.text.cache 
*          0    70010180    00000450     
                  70010180    00000340     nortos.am64x.r5f.ti-arm-clang.release.lib : CacheP_armv7r_asm.obj (.text.cache)
                  700104c0    000000f6                                               : CacheP_armv7r.obj (.text.cache)
                  700105b6    00000002     --HOLE-- [fill = 0]
                  700105b8    00000008                                               : CacheP_armv7r_asm.obj (.tramp.CacheP_invL1d.1)
                  700105c0    00000008                                               : HwiP_armv7r_asm.obj (.tramp.HwiP_restore.2)
                  700105c8    00000008                                               : CacheP_armv7r_asm.obj (.tramp.CacheP_enableL1p.1)

.text.mpu 
*          0    700105d0    00000240     
                  700105d0    000001b4     nortos.am64x.r5f.ti-arm-clang.release.lib : MpuP_armv7r.obj (.text.mpu)
                  70010784    00000078                                               : MpuP_armv7r_asm.obj (.text.mpu)
                  700107fc    00000008                                               : MpuP_armv7r_asm.obj (.tramp.MpuP_isEnableAsm.1)
                  70010804    00000008                                               : HwiP_armv7r_asm.obj (.tramp.HwiP_restore.3)
                  7001080c    00000004     --HOLE-- [fill = 0]

.text.boot 
*          0    70010810    00000130     
                  70010810    000000fc     nortos.am64x.r5f.ti-arm-clang.release.lib : boot_armv7r_asm.obj (.text.boot)
                  7001090c    00000004     --HOLE-- [fill = 0]
                  70010910    0000001e                                               : DebugP_log.obj (.text.boot)
                  7001092e    00000002     --HOLE-- [fill = 0]
                  70010930    0000000e     ti_dpl_config.obj (.text.boot)
                  7001093e    00000002     --HOLE-- [fill = 0]

.data      0    70010940    00002758     
                  70010940    000007ec     ti_drivers_config.obj (.data.DDRSS_phyReg)
                  7001112c    0000069c     ti_drivers_config.obj (.data.DDRSS_ctlReg)
                  700117c8    00000564     ti_drivers_config.obj (.data.DDRSS_phyIndepReg)
                  70011d2c    000003f6     ti_drivers_config.obj (.data.DDRSS_phyRegNum)
                  70012122    0000034e     ti_drivers_config.obj (.data.DDRSS_ctlRegNum)
                  70012470    000002b2     ti_drivers_config.obj (.data.DDRSS_phyIndepRegNum)
                  70012722    00000001     drivers.am64x.r5f.ti-arm-clang.release.lib : sciclient.obj (.data.gSecHeaderSizeWords)
                  70012723    00000001     --HOLE-- [fill = 0]
                  70012724    000000c4                                                : bootloader_soc.obj (.data.gAddrTranslateInfo)
                  700127e8    000000b8                                                : sciclient_irq_rm.obj (.data.vint_usage_count_DMASS0_INTAGGR_0)
                  700128a0    000000a8                                                : bootloader_soc.obj (.data.gCoreBootInfo)
                  70012948    0000009c                                                : ospi_v0.obj (.data.gOspiDrvObj)
                  700129e4    0000009c                                                : uart_v0.obj (.data.gUartDrvObj)
                  70012a80    00000080                                                : ospi_phy.obj (.data.gOspiFlashAttackVector)
                  70012b00    00000080                                                : ospi_phy.obj (.data.gReadBuf)
                  70012b80    00000070     ti_board_open_close.obj (.data.gFlashDevCfg_S28HS512T)
                  70012bf0    00000070     ti_pinmux_config.obj (.data.gPinMuxMainDomainCfg)
                  70012c60    00000060     drivers.am64x.r5f.ti-arm-clang.release.lib : sciclient_irq_rm.obj (.data.gRmIrInstances)
                  70012cc0    00000058                                                : udma_rmcfg.obj (.data.gUdmaRmSharedResPrms)
                  70012d18    00000054     ti_drivers_open_close.obj (.data.gUartParams)
                  70012d6c    00000048     ti_drivers_config.obj (.data.gOspiAttrs)
                  70012db4    00000004     ti_drivers_config.obj (.data.gBootloaderConfigNum)
                  70012db8    00000038     ti_drivers_config.obj (.data.gDdrParams)
                  70012df0    00000030     ti_board_open_close.obj (.data.gFlashAttrs_S28HS512T)
                  70012e20    00000028     drivers.am64x.r5f.ti-arm-clang.release.lib : ospi_phy.obj (.data.gPhyTuneWindowParamsGTE133)
                  70012e48    00000028                                                : ospi_phy.obj (.data.gPhyTuneWindowParamsLT133)
                  70012e70    00000024     board.am64x.r5f.ti-arm-clang.release.lib : flash_nor_ospi.obj (.data.gFlashToSpiProtocolMap)
                  70012e94    00000024     ti_power_clock_config.obj (.data.gSocModulesClockFrequency)
                  70012eb8    00000020     ti_drivers_config.obj (.data.gOspiDmaRestrictRegions)
                  70012ed8    00000020     drivers.am64x.r5f.ti-arm-clang.release.lib : sciclient_irq_rm.obj (.data.gRmIaInstances)
                  70012ef8    00000020                                                : sciclient_soc_priv.obj (.data.gSciclientSecProxyCfg)
                  70012f18    0000001c     ti_drivers_config.obj (.data.gBootloaderConfig)
                  70012f34    0000001c     board.am64x.r5f.ti-arm-clang.release.lib : flash_nor_ospi.obj (.data.gFlashNorOspiFxns)
                  70012f50    0000001c     ti_drivers_config.obj (.data.gOspiUdma0Args)
                  70012f6c    0000001c     ti_power_clock_config.obj (.data.gSocModules)
                  70012f88    00000014     drivers.am64x.r5f.ti-arm-clang.release.lib : bootloader_flash.obj (.data.gBootloaderFlashFxns)
                  70012f9c    00000014     ti_dpl_config.obj (.data.gClockConfig)
                  70012fb0    00000014     drivers.am64x.r5f.ti-arm-clang.release.lib : bootloader_soc.obj (.data.gResMemSection)
                  70012fc4    00000014                                                : sciclient_irq_rm.obj (.data.rom_usage_DMASS0_INTAGGR_0)
                  70012fd8    00000010     ti_board_open_close.obj (.data.gFlashConfig)
                  70012fe8    00000010     ti_drivers_config.obj (.data.gUdmaInitPrms)
                  70012ff8    0000000c     nortos.am64x.r5f.ti-arm-clang.release.lib : AddrTranslateP.obj (.data.gAddrTranslateConfig)
                  70013004    0000000c     ti_drivers_config.obj (.data.gBootloader0Args)
                  70013010    0000000c     drivers.am64x.r5f.ti-arm-clang.release.lib : ospi_dma_udma.obj (.data.gOspiDmaUdmaFxns)
                  7001301c    00000008     ti_board_open_close.obj (.data.gFlashParams)
                  70013024    00000008     ti_drivers_config.obj (.data.gOspiConfig)
                  7001302c    00000008     ti_drivers_config.obj (.data.gOspiDmaConfig)
                  70013034    00000008     ti_pinmux_config.obj (.data.gPinMuxMcuDomainCfg)
                  7001303c    00000008     ti_drivers_config.obj (.data.gUartAttrs)
                  70013044    00000008     ti_drivers_config.obj (.data.gUartConfig)
                  7001304c    00000004     nortos.am64x.r5f.ti-arm-clang.release.lib : DebugP_log.obj (.data.gDebugLogZone)
                  70013050    00000008                                               : PmuP_armv7r.obj (.data.pmu)
                  70013058    00000004                                               : DebugP_uartLogWriter.obj (.data.gDebugP_uartDrvIndex)
                  7001305c    00000004     ti_board_open_close.obj (.data.gFlashConfigNum)
                  70013060    00000004     ti_dpl_config.obj (.data.gHwiConfig)
                  70013064    00000004     ti_drivers_config.obj (.data.gOspiConfigNum)
                  70013068    00000004     ti_drivers_config.obj (.data.gOspiDmaConfigNum)
                  7001306c    00000004     ti_drivers_open_close.obj (.data.gOspiParams)
                  70013070    00000004     drivers.am64x.r5f.ti-arm-clang.release.lib : ospi_phy.obj (.data.gPhyTuneWindowParams)
                  70013074    00000004                                                : sciclient.obj (.data.gSciclientHandle.0)
                  70013078    00000004                                                : sciclient.obj (.data.gSciclientHandle.2)
                  7001307c    00000004                                                : sciclient.obj (.data.gSciclientHandle.3)
                  70013080    00000004                                                : sciclient.obj (.data.gSciclientHandle.4)
                  70013084    00000004                                                : sciclient.obj (.data.gSciclientHandle.5)
                  70013088    00000004     ti_drivers_config.obj (.data.gUartConfigNum)
                  7001308c    00000004     ti_drivers_config.obj (.data.gUartDmaConfigNum)
                  70013090    00000004     ti_drivers_config.obj (.data.operatingMode)
                  70013094    00000004     --HOLE-- [fill = 0]

.rodata    0    70013098    00002090     
                  70013098    0000043b     drivers.am64x.r5f.ti-arm-clang.release.lib : bootloader_soc.obj (.rodata.str1.1)
                  700134d3    00000001     --HOLE-- [fill = 0]
                  700134d4    000001a4                                                : udma_rmcfg.obj (.rodata.gUdmaRmDefBoardCfg_Pktdma)
                  70013678    000001a2                                                : ddr.obj (.rodata.str1.1)
                  7001381a    00000158                                                : bootloader_profile.obj (.rodata.str1.1)
                  70013972    00000002     --HOLE-- [fill = 0]
                  70013974    00000138                                                : udma_soc.obj (.rodata.gUdmaTxMappedChRingAttributes)
                  70013aac    00000136                                                : bootloader.obj (.rodata.str1.1)
                  70013be2    00000135                                                : uart_v0.obj (.rodata.str1.1)
                  70013d17    00000001     --HOLE-- [fill = 0]
                  70013d18    00000132                                                : lpddr4_16bit.obj (.rodata.CtlIntMap)
                  70013e4a    00000002     --HOLE-- [fill = 0]
                  70013e4c    0000012c                                                : sciclient_fmwSecureProxyMap.obj (.rodata.gSciclientMap)
                  70013f78    00000103     nortos.am64x.r5f.ti-arm-clang.release.lib : TimerP.obj (.rodata.str1.1)
                  7001407b    000000d4     main.obj (.rodata.str1.1)
                  7001414f    000000d2     drivers.am64x.r5f.ti-arm-clang.release.lib : ospi_dma_udma.obj (.rodata.str1.1)
                  70014221    000000ac     nortos.am64x.r5f.ti-arm-clang.release.lib : ClockP_nortos_r5.obj (.rodata.str1.1)
                  700142cd    000000a9     drivers.am64x.r5f.ti-arm-clang.release.lib : sciclient.obj (.rodata.str1.1)
                  70014376    00000002     --HOLE-- [fill = 0]
                  70014378    0000009c                                                : udma_soc.obj (.rodata.gUdmaRxMappedChRingAttributes)
                  70014414    0000008c     ti_drivers_open_close.obj (.rodata.str1.1)
                  700144a0    00000084     drivers.am64x.r5f.ti-arm-clang.release.lib : udma_rmcfg.obj (.rodata.gUdmaRmDefBoardCfg_Bcdma)
                  70014524    00000084                                                : udma_utils.obj (.rodata.gUdmaUtilsTrSizeTable)
                  700145a8    00000082                                                : sciclient_boardcfg.obj (.rodata.str1.1)
                  7001462a    0000007b                                                : soc.obj (.rodata.str1.1)
                  700146a5    0000006b     nortos.am64x.r5f.ti-arm-clang.release.lib : SemaphoreP_nortos.obj (.rodata.str1.1)
                  70014710    00000068     drivers.am64x.r5f.ti-arm-clang.release.lib : sciclient_irq_rm.obj (.rodata.tisci_if_TIMESYNC_EVENT_INTROUTER0)
                  70014778    00000065                                                : ospi_v0.obj (.rodata.str1.1)
                  700147dd    0000005a     nortos.am64x.r5f.ti-arm-clang.release.lib : ClockP_nortos.obj (.rodata.str1.1)
                  70014837    00000001     --HOLE-- [fill = 0]
                  70014838    00000058     drivers.am64x.r5f.ti-arm-clang.release.lib : sciclient_irq_rm.obj (.rodata.gRmIrqTree)
                  70014890    00000058     board.am64x.r5f.ti-arm-clang.release.lib : flash_nor_ospi.obj (.rodata.str1.1)
                  700148e8    00000050     nortos.am64x.r5f.ti-arm-clang.release.lib : printf.obj (.rodata._ftoa.pow10)
                  70014938    00000050     ti_dpl_config.obj (.rodata.gMpuRegionConfig)
                  70014988    00000050     ti_board_open_close.obj (.rodata.str1.1)
                  700149d8    0000004b     drivers.am64x.r5f.ti-arm-clang.release.lib : uart_dma.obj (.rodata.str1.1)
                  70014a23    0000004b     ti_drivers_config.obj (.rodata.str1.1)
                  70014a6e    00000002     --HOLE-- [fill = 0]
                  70014a70    00000048     drivers.am64x.r5f.ti-arm-clang.release.lib : bootloader_soc.obj (.rodata.gSOC_r5fVectors)
                  70014ab8    00000034                                                : sciclient_irq_rm.obj (.rodata.tisci_if_MAIN_GPIOMUX_INTROUTER0)
                  70014aec    00000030                                                : sciclient_irq_rm.obj (.rodata.tisci_if_DMASS0_INTAGGR_0)
                  70014b1c    0000002d     nortos.am64x.r5f.ti-arm-clang.release.lib : DebugP_log.obj (.rodata.str1.1)
                  70014b49    00000003     --HOLE-- [fill = 0]
                  70014b4c    00000024     drivers.am64x.r5f.ti-arm-clang.release.lib : sciclient_irq_rm.obj (.rodata.tisci_if_MCU_MCU_GPIOMUX_INTROUTER0)
                  70014b70    00000020                                                : soc.obj (.rodata.SOC_getCoreName.coreIdNames)
                  70014b90    00000020                                                : sciclient_irq_rm.obj (.rodata.tisci_if_CPTS0)
                  70014bb0    0000001c                                                : bootloader_soc.obj (.rodata..L__const.Bootloader_socRprcToCslCoreId.rprcCoreIds)
                  70014bcc    0000001c                                                : sciclient_irq_rm.obj (.rodata.tisci_if_PRU_ICSSG0)
                  70014be8    0000001c                                                : sciclient_irq_rm.obj (.rodata.tisci_if_PRU_ICSSG1)
                  70014c04    00000018                                                : sciclient_soc_priv.obj (.rodata..Lswitch.table.Sciclient_getDevId)
                  70014c1c    00000018                                                : sciclient_irq_rm.obj (.rodata.tisci_if_CMP_EVENT_INTROUTER0)
                  70014c34    00000014                                                : sciclient_irq_rm.obj (.rodata.tisci_if_PCIE0)
                  70014c48    00000012     nortos.am64x.r5f.ti-arm-clang.release.lib : printf.obj (.rodata.str1.1)
                  70014c5a    00000002     --HOLE-- [fill = 0]
                  70014c5c    00000010     drivers.am64x.r5f.ti-arm-clang.release.lib : ospi_v0.obj (.rodata.cst16)
                  70014c6c    00000010                                                : sciclient_irq_rm.obj (.rodata.tisci_if_CPSW0)
                  70014c7c    0000000c                                                : bootloader_profile.obj (.rodata..Lswitch.table.Bootloader_profilePrintProfileLog)
                  70014c88    0000000c     ti_dpl_config.obj (.rodata.gMpuConfig)
                  70014c94    0000000b     drivers.am64x.r5f.ti-arm-clang.release.lib : bootloader.obj (.rodata..L__const.Bootloader_getMsgLen.boot_seq_oid)
                  70014c9f    00000001     --HOLE-- [fill = 0]
                  70014ca0    00000008                                                : sciclient_irq_rm.obj (.rodata.CMP_EVENT_INTROUTER0_outp_0_15_to_GICSS0_spi_48_63)
                  70014ca8    00000008                                                : sciclient_irq_rm.obj (.rodata.CMP_EVENT_INTROUTER0_outp_16_23_to_R5FSS0_CORE0_intr_48_55)
                  70014cb0    00000008                                                : sciclient_irq_rm.obj (.rodata.CMP_EVENT_INTROUTER0_outp_16_23_to_R5FSS0_CORE1_intr_48_55)
                  70014cb8    00000008                                                : sciclient_irq_rm.obj (.rodata.CMP_EVENT_INTROUTER0_outp_24_31_to_R5FSS1_CORE0_intr_48_55)
                  70014cc0    00000008                                                : sciclient_irq_rm.obj (.rodata.CMP_EVENT_INTROUTER0_outp_24_31_to_R5FSS1_CORE1_intr_48_55)
                  70014cc8    00000008                                                : sciclient_irq_rm.obj (.rodata.CMP_EVENT_INTROUTER0_outp_32_39_to_DMASS0_INTAGGR_0_intaggr_levi_pend_0_7)
                  70014cd0    00000008                                                : sciclient_irq_rm.obj (.rodata.CPSW0_cpts_comp_0_0_to_CMP_EVENT_INTROUTER0_in_80_80)
                  70014cd8    00000008                                                : sciclient_irq_rm.obj (.rodata.CPSW0_cpts_genf0_1_1_to_TIMESYNC_EVENT_INTROUTER0_in_21_21)
                  70014ce0    00000008                                                : sciclient_irq_rm.obj (.rodata.CPSW0_cpts_genf1_2_2_to_TIMESYNC_EVENT_INTROUTER0_in_22_22)
                  70014ce8    00000008                                                : sciclient_irq_rm.obj (.rodata.CPSW0_cpts_sync_3_3_to_TIMESYNC_EVENT_INTROUTER0_in_34_34)
                  70014cf0    00000008                                                : sciclient_irq_rm.obj (.rodata.CPTS0_cpts_comp_0_0_to_CMP_EVENT_INTROUTER0_in_82_82)
                  70014cf8    00000008                                                : sciclient_irq_rm.obj (.rodata.CPTS0_cpts_genf0_1_1_to_TIMESYNC_EVENT_INTROUTER0_in_16_16)
                  70014d00    00000008                                                : sciclient_irq_rm.obj (.rodata.CPTS0_cpts_genf1_2_2_to_TIMESYNC_EVENT_INTROUTER0_in_17_17)
                  70014d08    00000008                                                : sciclient_irq_rm.obj (.rodata.CPTS0_cpts_genf2_3_3_to_TIMESYNC_EVENT_INTROUTER0_in_18_18)
                  70014d10    00000008                                                : sciclient_irq_rm.obj (.rodata.CPTS0_cpts_genf3_4_4_to_TIMESYNC_EVENT_INTROUTER0_in_19_19)
                  70014d18    00000008                                                : sciclient_irq_rm.obj (.rodata.CPTS0_cpts_genf4_5_5_to_TIMESYNC_EVENT_INTROUTER0_in_20_20)
                  70014d20    00000008                                                : sciclient_irq_rm.obj (.rodata.CPTS0_cpts_genf5_6_6_to_TIMESYNC_EVENT_INTROUTER0_in_24_24)
                  70014d28    00000008                                                : sciclient_irq_rm.obj (.rodata.CPTS0_cpts_sync_7_7_to_TIMESYNC_EVENT_INTROUTER0_in_35_35)
                  70014d30    00000008                                                : sciclient_irq_rm.obj (.rodata.DMASS0_INTAGGR_0_intaggr_vintr_pend_0_39_to_GICSS0_spi_64_103)
                  70014d38    00000008                                                : sciclient_irq_rm.obj (.rodata.DMASS0_INTAGGR_0_intaggr_vintr_pend_120_127_to_R5FSS1_CORE0_intr_8_15)
                  70014d40    00000008                                                : sciclient_irq_rm.obj (.rodata.DMASS0_INTAGGR_0_intaggr_vintr_pend_128_135_to_R5FSS1_CORE1_intr_8_15)
                  70014d48    00000008                                                : sciclient_irq_rm.obj (.rodata.DMASS0_INTAGGR_0_intaggr_vintr_pend_152_159_to_PRU_ICSSG0_pr1_slv_intr_16_23)
                  70014d50    00000008                                                : sciclient_irq_rm.obj (.rodata.DMASS0_INTAGGR_0_intaggr_vintr_pend_160_167_to_PRU_ICSSG1_pr1_slv_intr_16_23)
                  70014d58    00000008                                                : sciclient_irq_rm.obj (.rodata.DMASS0_INTAGGR_0_intaggr_vintr_pend_168_183_to_MCU_M4FSS0_CORE0_nvic_32_47)
                  70014d60    00000008                                                : sciclient_irq_rm.obj (.rodata.DMASS0_INTAGGR_0_intaggr_vintr_pend_40_71_to_R5FSS0_CORE0_intr_64_95)
                  70014d68    00000008                                                : sciclient_irq_rm.obj (.rodata.DMASS0_INTAGGR_0_intaggr_vintr_pend_40_71_to_R5FSS0_CORE1_intr_64_95)
                  70014d70    00000008                                                : sciclient_irq_rm.obj (.rodata.DMASS0_INTAGGR_0_intaggr_vintr_pend_72_79_to_R5FSS0_CORE0_intr_8_15)
                  70014d78    00000008                                                : sciclient_irq_rm.obj (.rodata.DMASS0_INTAGGR_0_intaggr_vintr_pend_80_87_to_R5FSS0_CORE1_intr_8_15)
                  70014d80    00000008                                                : sciclient_irq_rm.obj (.rodata.DMASS0_INTAGGR_0_intaggr_vintr_pend_88_119_to_R5FSS1_CORE0_intr_64_95)
                  70014d88    00000008                                                : sciclient_irq_rm.obj (.rodata.DMASS0_INTAGGR_0_intaggr_vintr_pend_88_119_to_R5FSS1_CORE1_intr_64_95)
                  70014d90    00000008                                                : sciclient_irq_rm.obj (.rodata.EPWM0_epwm_synco_o_0_0_to_TIMESYNC_EVENT_INTROUTER0_in_39_39)
                  70014d98    00000008                                                : sciclient_irq_rm.obj (.rodata.EPWM3_epwm_synco_o_0_0_to_TIMESYNC_EVENT_INTROUTER0_in_40_40)
                  70014da0    00000008                                                : sciclient_irq_rm.obj (.rodata.EPWM6_epwm_synco_o_0_0_to_TIMESYNC_EVENT_INTROUTER0_in_41_41)
                  70014da8    00000008                                                : sciclient_irq_rm.obj (.rodata.GPIO0_gpio_0_89_to_MAIN_GPIOMUX_INTROUTER0_in_0_89)
                  70014db0    00000008                                                : sciclient_irq_rm.obj (.rodata.GPIO0_gpio_bank_90_98_to_MAIN_GPIOMUX_INTROUTER0_in_190_198)
                  70014db8    00000008                                                : sciclient_irq_rm.obj (.rodata.GPIO1_gpio_0_89_to_MAIN_GPIOMUX_INTROUTER0_in_90_179)
                  70014dc0    00000008                                                : sciclient_irq_rm.obj (.rodata.GPIO1_gpio_bank_90_98_to_MAIN_GPIOMUX_INTROUTER0_in_180_188)
                  70014dc8    00000008                                                : sciclient_irq_rm.obj (.rodata.GPMC0_gpmc_sdmareq_0_0_to_DMASS0_INTAGGR_0_intaggr_levi_pend_29_29)
                  70014dd0    00000008                                                : sciclient_irq_rm.obj (.rodata.GTC0_gtc_push_event_0_0_to_TIMESYNC_EVENT_INTROUTER0_in_36_36)
                  70014dd8    00000008                                                : sciclient_irq_rm.obj (.rodata.MAIN_GPIOMUX_INTROUTER0_outp_0_15_to_GICSS0_spi_32_47)
                  70014de0    00000008                                                : sciclient_irq_rm.obj (.rodata.MAIN_GPIOMUX_INTROUTER0_outp_0_15_to_R5FSS0_CORE0_intr_32_47)
                  70014de8    00000008                                                : sciclient_irq_rm.obj (.rodata.MAIN_GPIOMUX_INTROUTER0_outp_0_15_to_R5FSS0_CORE1_intr_32_47)
                  70014df0    00000008                                                : sciclient_irq_rm.obj (.rodata.MAIN_GPIOMUX_INTROUTER0_outp_0_15_to_R5FSS1_CORE0_intr_32_47)
                  70014df8    00000008                                                : sciclient_irq_rm.obj (.rodata.MAIN_GPIOMUX_INTROUTER0_outp_0_15_to_R5FSS1_CORE1_intr_32_47)
                  70014e00    00000008                                                : sciclient_irq_rm.obj (.rodata.MAIN_GPIOMUX_INTROUTER0_outp_16_17_to_DMASS0_INTAGGR_0_intaggr_levi_pend_24_25)
                  70014e08    00000008                                                : sciclient_irq_rm.obj (.rodata.MAIN_GPIOMUX_INTROUTER0_outp_18_23_to_PRU_ICSSG0_pr1_iep0_cap_intr_req_4_9)
                  70014e10    00000008                                                : sciclient_irq_rm.obj (.rodata.MAIN_GPIOMUX_INTROUTER0_outp_18_23_to_PRU_ICSSG1_pr1_iep0_cap_intr_req_4_9)
                  70014e18    00000008                                                : sciclient_irq_rm.obj (.rodata.MAIN_GPIOMUX_INTROUTER0_outp_24_29_to_PRU_ICSSG0_pr1_iep1_cap_intr_req_10_15)
                  70014e20    00000008                                                : sciclient_irq_rm.obj (.rodata.MAIN_GPIOMUX_INTROUTER0_outp_24_29_to_PRU_ICSSG1_pr1_iep1_cap_intr_req_10_15)
                  70014e28    00000008                                                : sciclient_irq_rm.obj (.rodata.MAIN_GPIOMUX_INTROUTER0_outp_30_37_to_DMASS0_INTAGGR_0_intaggr_levi_pend_16_23)
                  70014e30    00000008                                                : sciclient_irq_rm.obj (.rodata.MAIN_GPIOMUX_INTROUTER0_outp_38_45_to_PRU_ICSSG0_pr1_slv_intr_46_53)
                  70014e38    00000008                                                : sciclient_irq_rm.obj (.rodata.MAIN_GPIOMUX_INTROUTER0_outp_46_53_to_PRU_ICSSG1_pr1_slv_intr_46_53)
                  70014e40    00000008                                                : sciclient_irq_rm.obj (.rodata.MCU_GPIO0_gpio_0_29_to_MCU_MCU_GPIOMUX_INTROUTER0_in_0_29)
                  70014e48    00000008                                                : sciclient_irq_rm.obj (.rodata.MCU_GPIO0_gpio_bank_30_31_to_MCU_MCU_GPIOMUX_INTROUTER0_in_30_31)
                  70014e50    00000008                                                : sciclient_irq_rm.obj (.rodata.MCU_MCU_GPIOMUX_INTROUTER0_outp_0_3_to_GICSS0_spi_104_107)
                  70014e58    00000008                                                : sciclient_irq_rm.obj (.rodata.MCU_MCU_GPIOMUX_INTROUTER0_outp_0_3_to_R5FSS0_CORE0_intr_104_107)
                  70014e60    00000008                                                : sciclient_irq_rm.obj (.rodata.MCU_MCU_GPIOMUX_INTROUTER0_outp_0_3_to_R5FSS0_CORE1_intr_104_107)
                  70014e68    00000008                                                : sciclient_irq_rm.obj (.rodata.MCU_MCU_GPIOMUX_INTROUTER0_outp_0_3_to_R5FSS1_CORE0_intr_104_107)
                  70014e70    00000008                                                : sciclient_irq_rm.obj (.rodata.MCU_MCU_GPIOMUX_INTROUTER0_outp_0_3_to_R5FSS1_CORE1_intr_104_107)
                  70014e78    00000008                                                : sciclient_irq_rm.obj (.rodata.MCU_MCU_GPIOMUX_INTROUTER0_outp_4_7_to_MCU_M4FSS0_CORE0_nvic_0_3)
                  70014e80    00000008                                                : sciclient_irq_rm.obj (.rodata.MCU_MCU_GPIOMUX_INTROUTER0_outp_8_11_to_MCU_ESM0_esm_pls_event0_88_91)
                  70014e88    00000008                                                : sciclient_irq_rm.obj (.rodata.MCU_MCU_GPIOMUX_INTROUTER0_outp_8_11_to_MCU_ESM0_esm_pls_event1_92_95)
                  70014e90    00000008                                                : sciclient_irq_rm.obj (.rodata.MCU_MCU_GPIOMUX_INTROUTER0_outp_8_11_to_MCU_ESM0_esm_pls_event2_96_99)
                  70014e98    00000008                                                : sciclient_irq_rm.obj (.rodata.PCIE0_pcie_cpts_comp_0_0_to_CMP_EVENT_INTROUTER0_in_81_81)
                  70014ea0    00000008                                                : sciclient_irq_rm.obj (.rodata.PCIE0_pcie_cpts_genf0_1_1_to_TIMESYNC_EVENT_INTROUTER0_in_23_23)
                  70014ea8    00000008                                                : sciclient_irq_rm.obj (.rodata.PCIE0_pcie_cpts_hw1_push_2_2_to_TIMESYNC_EVENT_INTROUTER0_in_37_37)
                  70014eb0    00000008                                                : sciclient_irq_rm.obj (.rodata.PCIE0_pcie_cpts_sync_3_3_to_TIMESYNC_EVENT_INTROUTER0_in_33_33)
                  70014eb8    00000008                                                : sciclient_irq_rm.obj (.rodata.PCIE0_pcie_ptm_valid_pulse_4_4_to_TIMESYNC_EVENT_INTROUTER0_in_38_38)
                  70014ec0    00000008                                                : sciclient_irq_rm.obj (.rodata.PRU_ICSSG0_pr1_edc0_sync0_out_0_0_to_TIMESYNC_EVENT_INTROUTER0_in_25_25)
                  70014ec8    00000008                                                : sciclient_irq_rm.obj (.rodata.PRU_ICSSG0_pr1_edc0_sync1_out_1_1_to_TIMESYNC_EVENT_INTROUTER0_in_26_26)
                  70014ed0    00000008                                                : sciclient_irq_rm.obj (.rodata.PRU_ICSSG0_pr1_edc1_sync0_out_2_2_to_TIMESYNC_EVENT_INTROUTER0_in_27_27)
                  70014ed8    00000008                                                : sciclient_irq_rm.obj (.rodata.PRU_ICSSG0_pr1_edc1_sync1_out_3_3_to_TIMESYNC_EVENT_INTROUTER0_in_28_28)
                  70014ee0    00000008                                                : sciclient_irq_rm.obj (.rodata.PRU_ICSSG0_pr1_host_intr_req_4_11_to_CMP_EVENT_INTROUTER0_in_0_7)
                  70014ee8    00000008                                                : sciclient_irq_rm.obj (.rodata.PRU_ICSSG0_pr1_iep0_cmp_intr_req_12_27_to_CMP_EVENT_INTROUTER0_in_16_31)
                  70014ef0    00000008                                                : sciclient_irq_rm.obj (.rodata.PRU_ICSSG0_pr1_iep1_cmp_intr_req_28_43_to_CMP_EVENT_INTROUTER0_in_32_47)
                  70014ef8    00000008                                                : sciclient_irq_rm.obj (.rodata.PRU_ICSSG1_pr1_edc0_sync0_out_0_0_to_TIMESYNC_EVENT_INTROUTER0_in_29_29)
                  70014f00    00000008                                                : sciclient_irq_rm.obj (.rodata.PRU_ICSSG1_pr1_edc0_sync1_out_1_1_to_TIMESYNC_EVENT_INTROUTER0_in_30_30)
                  70014f08    00000008                                                : sciclient_irq_rm.obj (.rodata.PRU_ICSSG1_pr1_edc1_sync0_out_2_2_to_TIMESYNC_EVENT_INTROUTER0_in_31_31)
                  70014f10    00000008                                                : sciclient_irq_rm.obj (.rodata.PRU_ICSSG1_pr1_edc1_sync1_out_3_3_to_TIMESYNC_EVENT_INTROUTER0_in_32_32)
                  70014f18    00000008                                                : sciclient_irq_rm.obj (.rodata.PRU_ICSSG1_pr1_host_intr_req_4_11_to_CMP_EVENT_INTROUTER0_in_8_15)
                  70014f20    00000008                                                : sciclient_irq_rm.obj (.rodata.PRU_ICSSG1_pr1_iep0_cmp_intr_req_12_27_to_CMP_EVENT_INTROUTER0_in_48_63)
                  70014f28    00000008                                                : sciclient_irq_rm.obj (.rodata.PRU_ICSSG1_pr1_iep1_cmp_intr_req_28_43_to_CMP_EVENT_INTROUTER0_in_64_79)
                  70014f30    00000008                                                : sciclient_irq_rm.obj (.rodata.TIMER0_timer_pwm_0_0_to_TIMESYNC_EVENT_INTROUTER0_in_0_0)
                  70014f38    00000008                                                : sciclient_irq_rm.obj (.rodata.TIMER1_timer_pwm_0_0_to_TIMESYNC_EVENT_INTROUTER0_in_1_1)
                  70014f40    00000008                                                : sciclient_irq_rm.obj (.rodata.TIMER2_timer_pwm_0_0_to_TIMESYNC_EVENT_INTROUTER0_in_2_2)
                  70014f48    00000008                                                : sciclient_irq_rm.obj (.rodata.TIMER3_timer_pwm_0_0_to_TIMESYNC_EVENT_INTROUTER0_in_3_3)
                  70014f50    00000008                                                : sciclient_irq_rm.obj (.rodata.TIMESYNC_EVENT_INTROUTER0_outl_0_7_to_DMASS0_INTAGGR_0_intaggr_levi_pend_8_15)
                  70014f58    00000008                                                : sciclient_irq_rm.obj (.rodata.TIMESYNC_EVENT_INTROUTER0_outl_10_10_to_PRU_ICSSG0_pr1_edc1_latch0_in_2_2)
                  70014f60    00000008                                                : sciclient_irq_rm.obj (.rodata.TIMESYNC_EVENT_INTROUTER0_outl_11_11_to_PRU_ICSSG0_pr1_edc1_latch1_in_3_3)
                  70014f68    00000008                                                : sciclient_irq_rm.obj (.rodata.TIMESYNC_EVENT_INTROUTER0_outl_12_12_to_PRU_ICSSG1_pr1_edc0_latch0_in_0_0)
                  70014f70    00000008                                                : sciclient_irq_rm.obj (.rodata.TIMESYNC_EVENT_INTROUTER0_outl_13_13_to_PRU_ICSSG1_pr1_edc0_latch1_in_1_1)
                  70014f78    00000008                                                : sciclient_irq_rm.obj (.rodata.TIMESYNC_EVENT_INTROUTER0_outl_14_14_to_PRU_ICSSG1_pr1_edc1_latch0_in_2_2)
                  70014f80    00000008                                                : sciclient_irq_rm.obj (.rodata.TIMESYNC_EVENT_INTROUTER0_outl_15_15_to_PRU_ICSSG1_pr1_edc1_latch1_in_3_3)
                  70014f88    00000008                                                : sciclient_irq_rm.obj (.rodata.TIMESYNC_EVENT_INTROUTER0_outl_16_16_to_CPTS0_cpts_hw1_push_0_0)
                  70014f90    00000008                                                : sciclient_irq_rm.obj (.rodata.TIMESYNC_EVENT_INTROUTER0_outl_17_17_to_CPTS0_cpts_hw2_push_1_1)
                  70014f98    00000008                                                : sciclient_irq_rm.obj (.rodata.TIMESYNC_EVENT_INTROUTER0_outl_18_18_to_CPTS0_cpts_hw3_push_2_2)
                  70014fa0    00000008                                                : sciclient_irq_rm.obj (.rodata.TIMESYNC_EVENT_INTROUTER0_outl_19_19_to_CPTS0_cpts_hw4_push_3_3)
                  70014fa8    00000008                                                : sciclient_irq_rm.obj (.rodata.TIMESYNC_EVENT_INTROUTER0_outl_20_20_to_CPTS0_cpts_hw5_push_4_4)
                  70014fb0    00000008                                                : sciclient_irq_rm.obj (.rodata.TIMESYNC_EVENT_INTROUTER0_outl_21_21_to_CPTS0_cpts_hw6_push_5_5)
                  70014fb8    00000008                                                : sciclient_irq_rm.obj (.rodata.TIMESYNC_EVENT_INTROUTER0_outl_22_22_to_CPTS0_cpts_hw7_push_6_6)
                  70014fc0    00000008                                                : sciclient_irq_rm.obj (.rodata.TIMESYNC_EVENT_INTROUTER0_outl_23_23_to_CPTS0_cpts_hw8_push_7_7)
                  70014fc8    00000008                                                : sciclient_irq_rm.obj (.rodata.TIMESYNC_EVENT_INTROUTER0_outl_29_29_to_PCIE0_pcie_cpts_hw2_push_0_0)
                  70014fd0    00000008                                                : sciclient_irq_rm.obj (.rodata.TIMESYNC_EVENT_INTROUTER0_outl_30_30_to_CPSW0_cpts_hw1_push_0_0)
                  70014fd8    00000008                                                : sciclient_irq_rm.obj (.rodata.TIMESYNC_EVENT_INTROUTER0_outl_31_31_to_CPSW0_cpts_hw2_push_1_1)
                  70014fe0    00000008                                                : sciclient_irq_rm.obj (.rodata.TIMESYNC_EVENT_INTROUTER0_outl_32_32_to_CPSW0_cpts_hw3_push_2_2)
                  70014fe8    00000008                                                : sciclient_irq_rm.obj (.rodata.TIMESYNC_EVENT_INTROUTER0_outl_33_33_to_CPSW0_cpts_hw4_push_3_3)
                  70014ff0    00000008                                                : sciclient_irq_rm.obj (.rodata.TIMESYNC_EVENT_INTROUTER0_outl_34_34_to_CPSW0_cpts_hw5_push_4_4)
                  70014ff8    00000008                                                : sciclient_irq_rm.obj (.rodata.TIMESYNC_EVENT_INTROUTER0_outl_35_35_to_CPSW0_cpts_hw6_push_5_5)
                  70015000    00000008                                                : sciclient_irq_rm.obj (.rodata.TIMESYNC_EVENT_INTROUTER0_outl_36_36_to_CPSW0_cpts_hw7_push_6_6)
                  70015008    00000008                                                : sciclient_irq_rm.obj (.rodata.TIMESYNC_EVENT_INTROUTER0_outl_37_37_to_CPSW0_cpts_hw8_push_7_7)
                  70015010    00000008                                                : sciclient_irq_rm.obj (.rodata.TIMESYNC_EVENT_INTROUTER0_outl_8_8_to_PRU_ICSSG0_pr1_edc0_latch0_in_0_0)
                  70015018    00000008                                                : sciclient_irq_rm.obj (.rodata.TIMESYNC_EVENT_INTROUTER0_outl_9_9_to_PRU_ICSSG0_pr1_edc0_latch1_in_1_1)
                  70015020    00000008     ti_dpl_config.obj (.rodata.gCacheConfig)
                  70015028    00000008     drivers.am64x.r5f.ti-arm-clang.release.lib : sciclient_irq_rm.obj (.rodata.tisci_if_GPIO0)
                  70015030    00000008                                                : sciclient_irq_rm.obj (.rodata.tisci_if_GPIO1)
                  70015038    00000008                                                : sciclient_irq_rm.obj (.rodata.tisci_if_MCU_GPIO0)
                  70015040    00000008                                                : sciclient_irq_rm.obj (.rodata.tisci_irq_CMP_EVENT_INTROUTER0)
                  70015048    00000008                                                : sciclient_irq_rm.obj (.rodata.tisci_irq_CPSW0)
                  70015050    00000008                                                : sciclient_irq_rm.obj (.rodata.tisci_irq_CPTS0)
                  70015058    00000008                                                : sciclient_irq_rm.obj (.rodata.tisci_irq_DMASS0_INTAGGR_0)
                  70015060    00000008                                                : sciclient_irq_rm.obj (.rodata.tisci_irq_EPWM0)
                  70015068    00000008                                                : sciclient_irq_rm.obj (.rodata.tisci_irq_EPWM3)
                  70015070    00000008                                                : sciclient_irq_rm.obj (.rodata.tisci_irq_EPWM6)
                  70015078    00000008                                                : sciclient_irq_rm.obj (.rodata.tisci_irq_GPIO0)
                  70015080    00000008                                                : sciclient_irq_rm.obj (.rodata.tisci_irq_GPIO1)
                  70015088    00000008                                                : sciclient_irq_rm.obj (.rodata.tisci_irq_GPMC0)
                  70015090    00000008                                                : sciclient_irq_rm.obj (.rodata.tisci_irq_GTC0)
                  70015098    00000008                                                : sciclient_irq_rm.obj (.rodata.tisci_irq_MAIN_GPIOMUX_INTROUTER0)
                  700150a0    00000008                                                : sciclient_irq_rm.obj (.rodata.tisci_irq_MCU_GPIO0)
                  700150a8    00000008                                                : sciclient_irq_rm.obj (.rodata.tisci_irq_MCU_MCU_GPIOMUX_INTROUTER0)
                  700150b0    00000008                                                : sciclient_irq_rm.obj (.rodata.tisci_irq_PCIE0)
                  700150b8    00000008                                                : sciclient_irq_rm.obj (.rodata.tisci_irq_PRU_ICSSG0)
                  700150c0    00000008                                                : sciclient_irq_rm.obj (.rodata.tisci_irq_PRU_ICSSG1)
                  700150c8    00000008                                                : sciclient_irq_rm.obj (.rodata.tisci_irq_TIMER0)
                  700150d0    00000008                                                : sciclient_irq_rm.obj (.rodata.tisci_irq_TIMER1)
                  700150d8    00000008                                                : sciclient_irq_rm.obj (.rodata.tisci_irq_TIMER2)
                  700150e0    00000008                                                : sciclient_irq_rm.obj (.rodata.tisci_irq_TIMER3)
                  700150e8    00000008                                                : sciclient_irq_rm.obj (.rodata.tisci_irq_TIMESYNC_EVENT_INTROUTER0)
                  700150f0    00000006                                                : bootloader_soc.obj (.rodata..L__const.Bootloader_socOpenFirewalls.fwlIds)
                  700150f6    00000002     --HOLE-- [fill = 0]
                  700150f8    00000004     nortos.am64x.r5f.ti-arm-clang.release.lib : CacheP_armv7r.obj (.rodata.gCacheL1dCacheLineSize)
                  700150fc    00000004                                               : CacheP_armv7r.obj (.rodata.gCacheL1pCacheLineSize)
                  70015100    00000004     drivers.am64x.r5f.ti-arm-clang.release.lib : sciclient_irq_rm.obj (.rodata.gRmIrqTreeCount)
                  70015104    00000004                                                : sciclient_irq_rm.obj (.rodata.tisci_if_EPWM0)
                  70015108    00000004                                                : sciclient_irq_rm.obj (.rodata.tisci_if_EPWM3)
                  7001510c    00000004                                                : sciclient_irq_rm.obj (.rodata.tisci_if_EPWM6)
                  70015110    00000004                                                : sciclient_irq_rm.obj (.rodata.tisci_if_GPMC0)
                  70015114    00000004                                                : sciclient_irq_rm.obj (.rodata.tisci_if_GTC0)
                  70015118    00000004                                                : sciclient_irq_rm.obj (.rodata.tisci_if_TIMER0)
                  7001511c    00000004                                                : sciclient_irq_rm.obj (.rodata.tisci_if_TIMER1)
                  70015120    00000004                                                : sciclient_irq_rm.obj (.rodata.tisci_if_TIMER2)
                  70015124    00000004                                                : sciclient_irq_rm.obj (.rodata.tisci_if_TIMER3)

.bss       0    70074000    00002400     UNINITIALIZED
                  70074000    00001008     (.common:gHwiCtrl)
                  70075008    000009ec     (.common:gUdmaDrvObj)
                  700759f4    00000280     ti_drivers_config.obj (.bss.gUartObjects)
                  70075c74    00000258     ti_drivers_config.obj (.bss.gOspiUdmaBlkCopyChObj)
                  70075ecc    00000184     ti_drivers_config.obj (.bss.gOspiObjects)
                  70076050    0000011c     (.common:gProfileObj)
                  7007616c    00000014     drivers.am64x.r5f.ti-arm-clang.release.lib : ddr.obj (.bss.gLpddrPd)
                  70076180    00000100     ti_drivers_config.obj (.bss.gOspiUdmaBlkCopyCh0TrpdMem)
                  70076280    00000080     ti_drivers_config.obj (.bss.gOspiUdmaBlkCopyCh0RingMem)
                  70076300    00000038     (.common:gClockCtrl)
                  70076338    00000028     drivers.am64x.r5f.ti-arm-clang.release.lib : sciclient_rm_irq.obj (.bss.gPstack)
                  70076360    00000014     (.common:gFlashObject_S28HS512T)
                  70076374    00000010                                                : ddr.obj (.bss.gLpddrCfg)
                  70076384    00000004     nortos.am64x.r5f.ti-arm-clang.release.lib : HwiP_armv7r_vim.obj (.bss.gdummy)
                  70076388    00000004     (.common:gFlashHandle)
                  7007638c    00000004     (.common:gOspiHandle)
                  70076390    00000004     (.common:gUartHandle)
                  70076394    0000006c     --HOLE--

.stack     0    70070000    00004000     UNINITIALIZED
                  70070000    00000004     nortos.am64x.r5f.ti-arm-clang.release.lib : boot_armv7r_asm.obj (.stack)
                  70070004    00003ffc     --HOLE--

.irqstack 
*          0    70076400    00001000     UNINITIALIZED
                  70076400    00001000     --HOLE--

.fiqstack 
*          0    70077400    00000100     UNINITIALIZED
                  70077400    00000100     --HOLE--

.svcstack 
*          0    70077500    00000100     UNINITIALIZED
                  70077500    00000100     --HOLE--

.abortstack 
*          0    70077600    00000100     UNINITIALIZED
                  70077600    00000100     --HOLE--

.undefinedstack 
*          0    70077700    00000100     UNINITIALIZED
                  70077700    00000100     --HOLE--

__llvm_prf_cnts 
*          0    70070000    00000000     UNINITIALIZED

__llvm_prf_bits 
*          0    70070000    00000000     UNINITIALIZED

MODULE SUMMARY

       Module                                   code    ro data   rw data
       ------                                   ----    -------   -------
    obj/release/
       ti_drivers_config.obj                    222     75        12502  
       main.obj                                 1004    212       0      
       ti_drivers_open_close.obj                210     140       96     
       ti_board_open_close.obj                  114     80        212    
       ti_power_clock_config.obj                164     0         64     
       ti_dpl_config.obj                        84      100       24     
       ti_pinmux_config.obj                     34      0         120    
    +--+----------------------------------------+-------+---------+---------+
       Total:                                   1832    607       13018  
                                                                         
    /home/gtbldadm/nightlybuilds/mcupsdk_internal/jenkins/mcu_plus_sdk_am64x_08_05_00_24/source/board/lib/board.am64x.r5f.ti-arm-clang.release.lib
       flash_nor_ospi.obj                       4448    88        64     
       flash.obj                                302     0         0      
    +--+----------------------------------------+-------+---------+---------+
       Total:                                   4750    88        64     
                                                                         
    /home/gtbldadm/nightlybuilds/mcupsdk_internal/jenkins/mcu_plus_sdk_am64x_08_05_00_24/source/drivers/lib/drivers.am64x.r5f.ti-arm-clang.release.lib
       udma_rm.obj                              5732    0         0      
       bootloader_soc.obj                       3178    1189      384    
       sciclient_rm_irq.obj                     4574    0         40     
       uart_v0.obj                              3486    309       156    
       udma_ch.obj                              3754    0         0      
       ospi_phy.obj                             3062    0         340    
       ospi_v0.obj                              3108    117       156    
       udma_event.obj                           1986    0         0      
       bootloader.obj                           1626    321       0      
       sciclient_irq_rm.obj                     0       1612      332    
       sciclient.obj                            1646    169       21     
       csl_bcdma.obj                            1834    0         0      
       ddr.obj                                  1052    418       36     
       sciclient_pm.obj                         1254    0         0      
       udma_soc.obj                             730     468       0      
       bootloader_profile.obj                   492     356       284    
       soc.obj                                  944     155       0      
       ospi_dma_udma.obj                        852     210       12     
       lpddr4_16bit.obj                         614     306       0      
       udma_ring_common.obj                     850     0         0      
       csl_lcdma_ringacc.obj                    758     0         0      
       udma_ring_lcdma.obj                      738     0         0      
       udma_rmcfg.obj                           66      552       88     
       sciclient_rm.obj                         690     0         0      
       udma_rmcfg_common.obj                    658     0         0      
       sciclient_procboot.obj                   560     0         0      
       csl_pktdma.obj                           526     0         0      
       lpddr4.obj                               494     0         0      
       udma_utils.obj                           240     132       0      
       uart_dma.obj                             254     75        0      
       udma_flow.obj                            312     0         0      
       sciclient_fmwSecureProxyMap.obj          0       300       0      
       sciclient_boardcfg.obj                   128     130       0      
       udma.obj                                 246     0         0      
       csl_intaggr.obj                          196     0         0      
       csl_emif.obj                             188     0         0      
       pinmux.obj                               188     0         0      
       sciclient_soc_priv.obj                   104     24        32     
       sciclient_firewall.obj                   128     0         0      
       bootloader_flash.obj                     104     0         20     
       ospi_dma.obj                             118     0         0      
       ddr_soc.obj                              66      0         0      
       csl_sec_proxy.obj                        10      0         0      
    +--+----------------------------------------+-------+---------+---------+
       Total:                                   47546   6843      1901   
                                                                         
    /home/gtbldadm/nightlybuilds/mcupsdk_internal/jenkins/mcu_plus_sdk_am64x_08_05_00_24/source/kernel/nortos/lib/nortos.am64x.r5f.ti-arm-clang.release.lib
       HwiP_armv7r_vim.obj                      1106    0         4108   
       printf.obj                               3952    98        0      
       CacheP_armv7r_asm.obj                    856     0         0      
       ClockP_nortos.obj                        640     90        56     
       TimerP.obj                               516     259       0      
       HwiP_armv7r_handlers_nortos.obj          574     0         0      
       MpuP_armv7r.obj                          436     0         0      
       SemaphoreP_nortos.obj                    328     107       0      
       ClockP_nortos_r5.obj                     260     172       0      
       CacheP_armv7r.obj                        246     8         0      
       boot_armv7r_asm.obj                      252     0         0      
       DebugP_log.obj                           154     45        4      
       HwiP_armv7r_asm.obj                      152     0         0      
       MpuP_armv7r_asm.obj                      128     0         0      
       HwiP_armv7r_handlers_nortos_asm.obj      120     0         0      
       AddrTranslateP.obj                       104     0         12     
       PmuP_armv7r.obj                          100     0         8      
       DebugP_uartLogWriter.obj                 70      0         4      
       HwiP_armv7r_vectors_nortos_sbl_asm.obj   64      0         0      
       DebugP_nortos.obj                        56      0         0      
       PmuP_armv7r_asm.obj                      56      0         0      
       boot_armv7r.obj                          28      0         0      
       TaskP_nortos.obj                         2       0         0      
    +--+----------------------------------------+-------+---------+---------+
       Total:                                   10200   779       4192   
                                                                         
    /home/gtbldadm/ti/ccs1210/ccs/tools/compiler/ti-cgt-armllvm_2.1.2.LTS/lib/armv7r-ti-none-eabihf/c/libc.a
       autoinit.c.obj                           80      0         0      
       exit.c.obj                               8       0         0      
    +--+----------------------------------------+-------+---------+---------+
       Total:                                   88      0         0      
                                                                         
    /home/gtbldadm/ti/ccs1210/ccs/tools/compiler/ti-cgt-armllvm_2.1.2.LTS/lib/armv7r-ti-none-eabihf/c/libsysbm.a
       memcpy32.S.obj                           28      0         0      
       memset32.S.obj                           24      0         0      
    +--+----------------------------------------+-------+---------+---------+
       Total:                                   52      0         0      
                                                                         
    /home/gtbldadm/ti/ccs1210/ccs/tools/compiler/ti-cgt-armllvm_2.1.2.LTS/lib/clang/14.0.6/lib/armv7r-ti-none-eabihf/libclang_rt.builtins.a
       udivmoddi4.S.obj                         280     0         0      
       aeabi_uldivmod.S.obj                     36      0         0      
       aeabi_memset.S.obj                       28      0         0      
       aeabi_div0.c.obj                         4       0         0      
       aeabi_memcpy.S.obj                       4       0         0      
    +--+----------------------------------------+-------+---------+---------+
       Total:                                   352     0         0      
                                                                         
       Stack:                                   0       0         16384  
    +--+----------------------------------------+-------+---------+---------+
       Grand Total:                             64820   8317      35559  

VENEERS

callee name               veneer name
   callee addr  veneer addr  call addr  call info
--------------  -----------  ---------  ----------------
CacheP_wb                 $Ven$TA$L$PI$$CacheP_wb
   70010274     70000d78     7000e426   drivers.am64x.r5f.ti-arm-clang.release.lib : udma_ring_lcdma.obj (.text.Udma_lcdmaRingaccMemOps)
HwiP_enable               $Ven$TA$L$PI$$HwiP_enable
   70010128     70001334     7000da3c   ti_dpl_config.obj (.text.Dpl_init)
HwiP_restore              $Ven$TA$L$PI$$HwiP_restore
   70010148     700018d8     7000d9fc   nortos.am64x.r5f.ti-arm-clang.release.lib : ClockP_nortos.obj (.text.ClockP_stop)
                             7000e236                                             : ClockP_nortos.obj (.text.ClockP_destruct)
                             7000e570                                             : ClockP_nortos.obj (.text.ClockP_start)
                             7000e6ae                                             : SemaphoreP_nortos.obj (.text.SemaphoreP_post)
PmuP_enableCounters       $Ven$TA$L$PI$$PmuP_enableCounters
   7000e704     70001e04     7000c0d0   nortos.am64x.r5f.ti-arm-clang.release.lib : PmuP_armv7r.obj (.text.pmu)
HwiP_enableFIQ            $Ven$TA$L$PI$$HwiP_enableFIQ
   70010138     7000fe44     7000fe2c   nortos.am64x.r5f.ti-arm-clang.release.lib : HwiP_armv7r_vim.obj (.text.hwi)
CacheP_invL1d             $Ven$TA$L$PI$$CacheP_invL1d
   700101f0     700105b8     700105b2   nortos.am64x.r5f.ti-arm-clang.release.lib : CacheP_armv7r.obj (.text.cache)
HwiP_restore              $Ven$TA$L$PI$$HwiP_restore
   70010148     700105c0     70010566   nortos.am64x.r5f.ti-arm-clang.release.lib : CacheP_armv7r.obj (.text.cache)
CacheP_enableL1p          $Ven$TA$L$PI$$CacheP_enableL1p
   700101d8     700105c8     7001052c   nortos.am64x.r5f.ti-arm-clang.release.lib : CacheP_armv7r.obj (.text.cache)
                             7001058c                                             : CacheP_armv7r.obj (.text.cache)
MpuP_isEnableAsm          $Ven$TA$L$PI$$MpuP_isEnableAsm
   700107d4     700107fc     70010710   nortos.am64x.r5f.ti-arm-clang.release.lib : MpuP_armv7r.obj (.text.mpu)
HwiP_restore              $Ven$TA$L$PI$$HwiP_restore
   70010148     70010804     700106c4   nortos.am64x.r5f.ti-arm-clang.release.lib : MpuP_armv7r.obj (.text.mpu)
                             700106fc                                             : MpuP_armv7r.obj (.text.mpu)

[10 trampolines]
[15 trampoline calls]


GLOBAL SYMBOLS: SORTED ALPHABETICALLY BY Name 

address   name                                                                          
-------   ----                                                                          
7000b9e1  AddrTranslateP_getLocalAddr                                                   
7000f861  Board_driversOpen                                                             
7000b581  Board_flashOpen                                                               
7000e601  Bootloader_BootImageInfo_init                                                 
7000f6d1  Bootloader_Params_init                                                        
7000f591  Bootloader_close                                                              
7000ed21  Bootloader_enableMCUPLL                                                       
7000b7b1  Bootloader_findSeq                                                            
7000a541  Bootloader_getMsgLen                                                          
7000f731  Bootloader_getMulticoreImageSize                                              
7000e341  Bootloader_getX509CertLen                                                     
7000f5a1  Bootloader_isCorePresent                                                      
7000d5d1  Bootloader_loadCpu                                                            
700095b1  Bootloader_loadSelfCpu                                                        
7000dfc1  Bootloader_open                                                               
70008fa1  Bootloader_parseMultiCoreAppImage                                             
7000f0e1  Bootloader_profileAddCore                                                     
7000eb21  Bootloader_profileAddProfilePoint                                             
70006bd1  Bootloader_profilePrintProfileLog                                             
7000d941  Bootloader_profileReset                                                       
7000f661  Bootloader_profileUpdateAppimageSize                                          
7000f671  Bootloader_profileUpdateMediaAndClk                                           
70008aa1  Bootloader_rprcImageLoad                                                      
7000c301  Bootloader_runCpu                                                             
7000ec61  Bootloader_runSelfCpu                                                         
7000f1c1  Bootloader_socAuthImage                                                       
7000ef41  Bootloader_socCpuGetClkDefault                                                
7000bdd1  Bootloader_socCpuGetClock                                                     
7000e9a1  Bootloader_socCpuPowerOnReset                                                 
7000b3a1  Bootloader_socCpuPowerOnResetA53                                              
70007d61  Bootloader_socCpuPowerOnResetM4f                                              
70005551  Bootloader_socCpuPowerOnResetR5f                                              
7000ba51  Bootloader_socCpuRelease                                                      
7000bb31  Bootloader_socCpuRequest                                                      
70005781  Bootloader_socCpuResetRelease                                                 
70006a51  Bootloader_socCpuResetReleaseSelf                                             
7000b2a1  Bootloader_socCpuSetClock                                                     
7000a9a1  Bootloader_socCpuSetEntryPoint                                                
7000ed41  Bootloader_socGetCoreName                                                     
7000f741  Bootloader_socGetSBLMem                                                       
7000ef61  Bootloader_socIsAuthRequired                                                  
7000e851  Bootloader_socIsMCUResetIsoEnabled                                            
7000b4a1  Bootloader_socMemInitCpu                                                      
7000f391  Bootloader_socNotifyFirewallOpen                                              
7000af21  Bootloader_socOpenFirewalls                                                   
7000ef81  Bootloader_socResetWorkaround                                                 
7000ed61  Bootloader_socRprcToCslCoreId                                                 
7000e141  Bootloader_socTranslateSectionAddr                                            
7000f871  Bootloader_socWaitForFWBoot                                                   
700068d1  Bootloader_verifyMulticoreImage                                               
70000748  C$$EXIT                                                                       
70014ca0  CMP_EVENT_INTROUTER0_outp_0_15_to_GICSS0_spi_48_63                            
70014ca8  CMP_EVENT_INTROUTER0_outp_16_23_to_R5FSS0_CORE0_intr_48_55                    
70014cb0  CMP_EVENT_INTROUTER0_outp_16_23_to_R5FSS0_CORE1_intr_48_55                    
70014cb8  CMP_EVENT_INTROUTER0_outp_24_31_to_R5FSS1_CORE0_intr_48_55                    
70014cc0  CMP_EVENT_INTROUTER0_outp_24_31_to_R5FSS1_CORE1_intr_48_55                    
70014cc8  CMP_EVENT_INTROUTER0_outp_32_39_to_DMASS0_INTAGGR_0_intaggr_levi_pend_0_7     
70014cd0  CPSW0_cpts_comp_0_0_to_CMP_EVENT_INTROUTER0_in_80_80                          
70014cd8  CPSW0_cpts_genf0_1_1_to_TIMESYNC_EVENT_INTROUTER0_in_21_21                    
70014ce0  CPSW0_cpts_genf1_2_2_to_TIMESYNC_EVENT_INTROUTER0_in_22_22                    
70014ce8  CPSW0_cpts_sync_3_3_to_TIMESYNC_EVENT_INTROUTER0_in_34_34                     
7000f881  CPS_UncachedRead32                                                            
7000f891  CPS_UncachedWrite32                                                           
70014cf0  CPTS0_cpts_comp_0_0_to_CMP_EVENT_INTROUTER0_in_82_82                          
70014cf8  CPTS0_cpts_genf0_1_1_to_TIMESYNC_EVENT_INTROUTER0_in_16_16                    
70014d00  CPTS0_cpts_genf1_2_2_to_TIMESYNC_EVENT_INTROUTER0_in_17_17                    
70014d08  CPTS0_cpts_genf2_3_3_to_TIMESYNC_EVENT_INTROUTER0_in_18_18                    
70014d10  CPTS0_cpts_genf3_4_4_to_TIMESYNC_EVENT_INTROUTER0_in_19_19                    
70014d18  CPTS0_cpts_genf4_5_5_to_TIMESYNC_EVENT_INTROUTER0_in_20_20                    
70014d20  CPTS0_cpts_genf5_6_6_to_TIMESYNC_EVENT_INTROUTER0_in_24_24                    
70014d28  CPTS0_cpts_sync_7_7_to_TIMESYNC_EVENT_INTROUTER0_in_35_35                     
700061f1  CSL_bcdmaChanOp                                                               
7000e181  CSL_bcdmaGetCfg                                                               
7000eb81  CSL_bcdmaGetChanPeerReg                                                       
7000f3b1  CSL_bcdmaGetRxRT                                                              
7000f3d1  CSL_bcdmaGetTxRT                                                              
7000ec91  CSL_bcdmaSetChanPeerReg                                                       
7000f3f1  CSL_bcdmaSetRxRT                                                              
7000f411  CSL_bcdmaSetTxRT                                                              
7000ee81  CSL_bcdmaTeardownRxChan                                                       
7000eea1  CSL_bcdmaTeardownTxChan                                                       
7000f4d1  CSL_emifClearECCInterruptStatus                                               
7000beb1  CSL_emifConfig                                                                
7000f101  CSL_emifDisableECC                                                            
7000f121  CSL_emifEnableECC                                                             
7000f4f1  CSL_emifEnableECCInterrupts                                                   
7000d351  CSL_intaggrClrIntr                                                            
7000e9d1  CSL_intaggrGetCfg                                                             
7000cb41  CSL_intaggrIsIntrPending                                                      
700092c1  CSL_lcdma_ringaccDequeue                                                      
7000f681  CSL_lcdma_ringaccGetForwardRingOcc                                            
7000f511  CSL_lcdma_ringaccGetReverseRingOcc                                            
7000f691  CSL_lcdma_ringaccInitRingObj                                                  
7000f5b1  CSL_lcdma_ringaccIsTeardownComplete                                           
7000f471  CSL_lcdma_ringaccPop64                                                        
7000efa1  CSL_lcdma_ringaccPush64                                                       
7000e481  CSL_pktdmaGetCfg                                                              
7000efc1  CSL_pktdmaGetChanPeerReg                                                      
7000e881  CSL_pktdmaGetRxRT                                                             
7000e8b1  CSL_pktdmaGetTxRT                                                             
7000efe1  CSL_pktdmaSetChanPeerReg                                                      
7000ed81  CSL_pktdmaSetRxRT                                                             
7000eda1  CSL_pktdmaSetTxRT                                                             
7000f821  CSL_pktdmaTeardownRxChan                                                      
7000f831  CSL_pktdmaTeardownTxChan                                                      
7000f751  CSL_secProxyGetDataAddr                                                       
70010490  CacheP_configForceWrThru                                                      
70010531  CacheP_disable                                                                
70010180  CacheP_disableL1d                                                             
700101a8  CacheP_disableL1p                                                             
70010571  CacheP_enable                                                                 
700101c0  CacheP_enableL1d                                                              
700101d8  CacheP_enableL1p                                                              
70010484  CacheP_getCacheLevelInfo                                                      
7001044c  CacheP_getEnabled                                                             
700104c1  CacheP_init                                                                   
70010591  CacheP_inv                                                                    
700101f0  CacheP_invL1d                                                                 
70010264  CacheP_invL1dAll                                                              
70010228  CacheP_invL1p                                                                 
7001026c  CacheP_invL1pAll                                                              
700104b0  CacheP_setDLFO                                                                
70010274  CacheP_wb                                                                     
700102ec  CacheP_wbAll                                                                  
700102b0  CacheP_wbInv                                                                  
70010394  CacheP_wbInvAll                                                               
700103ac  CacheP_wbInvAllAsm                                                            
7000f761  ClockP_Params_init                                                            
7000cd61  ClockP_construct                                                              
7000e201  ClockP_destruct                                                               
7000f6e1  ClockP_getTicks                                                               
7000d031  ClockP_getTimeUsec                                                            
7000f8a1  ClockP_getTimerCount                                                          
700083e1  ClockP_init                                                                   
7000f771  ClockP_isActive                                                               
7000e541  ClockP_start                                                                  
7000d9c1  ClockP_stop                                                                   
7000f8b1  ClockP_timerClearOverflowInt                                                  
7000b821  ClockP_timerTickIsr                                                           
7000e641  ClockP_usleep                                                                 
7000e6f4  CycleCounterP_getCount32                                                      
7000c071  CycleCounterP_init                                                            
7000c081  CycleCounterP_nsToTicks                                                       
7000c0b1  CycleCounterP_reset                                                           
7001112c  DDRSS_ctlReg                                                                  
70012122  DDRSS_ctlRegNum                                                               
700117c8  DDRSS_phyIndepReg                                                             
70012470  DDRSS_phyIndepRegNum                                                          
70010940  DDRSS_phyReg                                                                  
70011d2c  DDRSS_phyRegNum                                                               
70002771  DDR_init                                                                      
7000d711  DDR_socEnableVttRegulator                                                     
70014d30  DMASS0_INTAGGR_0_intaggr_vintr_pend_0_39_to_GICSS0_spi_64_103                 
70014d38  DMASS0_INTAGGR_0_intaggr_vintr_pend_120_127_to_R5FSS1_CORE0_intr_8_15         
70014d40  DMASS0_INTAGGR_0_intaggr_vintr_pend_128_135_to_R5FSS1_CORE1_intr_8_15         
70014d48  DMASS0_INTAGGR_0_intaggr_vintr_pend_152_159_to_PRU_ICSSG0_pr1_slv_intr_16_23  
70014d50  DMASS0_INTAGGR_0_intaggr_vintr_pend_160_167_to_PRU_ICSSG1_pr1_slv_intr_16_23  
70014d58  DMASS0_INTAGGR_0_intaggr_vintr_pend_168_183_to_MCU_M4FSS0_CORE0_nvic_32_47    
70014d60  DMASS0_INTAGGR_0_intaggr_vintr_pend_40_71_to_R5FSS0_CORE0_intr_64_95          
70014d68  DMASS0_INTAGGR_0_intaggr_vintr_pend_40_71_to_R5FSS0_CORE1_intr_64_95          
70014d70  DMASS0_INTAGGR_0_intaggr_vintr_pend_72_79_to_R5FSS0_CORE0_intr_8_15           
70014d78  DMASS0_INTAGGR_0_intaggr_vintr_pend_80_87_to_R5FSS0_CORE1_intr_8_15           
70014d80  DMASS0_INTAGGR_0_intaggr_vintr_pend_88_119_to_R5FSS1_CORE0_intr_64_95         
70014d88  DMASS0_INTAGGR_0_intaggr_vintr_pend_88_119_to_R5FSS1_CORE1_intr_64_95         
7000edc1  DebugP_logZoneEnable                                                          
7000e241  DebugP_uartLogWriterPutChar                                                   
7000f6f1  DebugP_uartSetDrvIndex                                                        
7000f971  Dpl_deinit                                                                    
7000da01  Dpl_init                                                                      
7000e8e1  Drivers_close                                                                 
7000f6a1  Drivers_open                                                                  
7000d081  Drivers_ospiOpen                                                              
7000d0d1  Drivers_uartOpen                                                              
70014d90  EPWM0_epwm_synco_o_0_0_to_TIMESYNC_EVENT_INTROUTER0_in_39_39                  
70014d98  EPWM3_epwm_synco_o_0_0_to_TIMESYNC_EVENT_INTROUTER0_in_40_40                  
70014da0  EPWM6_epwm_synco_o_0_0_to_TIMESYNC_EVENT_INTROUTER0_in_41_41                  
7000f6b1  Flash_close                                                                   
7000ede1  Flash_getAttrs                                                                
7000ee01  Flash_getHandle                                                               
7000f5c1  Flash_getPhyTuningOffset                                                      
7000b971  Flash_offsetToSectorPage                                                      
7000e4c1  Flash_open                                                                    
7000d761  Flash_quirkSpansionUNHYSADisable                                              
7000eec1  Flash_read                                                                    
7000f531  Flash_reset                                                                   
70014da8  GPIO0_gpio_0_89_to_MAIN_GPIOMUX_INTROUTER0_in_0_89                            
70014db0  GPIO0_gpio_bank_90_98_to_MAIN_GPIOMUX_INTROUTER0_in_190_198                   
70014db8  GPIO1_gpio_0_89_to_MAIN_GPIOMUX_INTROUTER0_in_90_179                          
70014dc0  GPIO1_gpio_bank_90_98_to_MAIN_GPIOMUX_INTROUTER0_in_180_188                   
70014dc8  GPMC0_gpmc_sdmareq_0_0_to_DMASS0_INTAGGR_0_intaggr_levi_pend_29_29            
70014dd0  GTC0_gtc_push_event_0_0_to_TIMESYNC_EVENT_INTROUTER0_in_36_36                 
7000fb11  HwiP_Params_init                                                              
7000fac1  HwiP_clearInt                                                                 
7000fb31  HwiP_construct                                                                
70010061  HwiP_data_abort_handler                                                       
7000fc81  HwiP_destruct                                                                 
70010108  HwiP_disable                                                                  
70010118  HwiP_disableFIQ                                                               
7000fa21  HwiP_disableInt                                                               
70010160  HwiP_disableVIC                                                               
70010128  HwiP_enable                                                                   
70010138  HwiP_enableFIQ                                                                
7000f9f1  HwiP_enableInt                                                                
70010150  HwiP_enableVIC                                                                
7000fee1  HwiP_fiq_handler                                                              
70010170  HwiP_getCPSR                                                                  
7000fe31  HwiP_inISR                                                                    
7000fd61  HwiP_init                                                                     
70010090  HwiP_irq_handler                                                              
7000fe51  HwiP_irq_handler_c                                                            
7000fae1  HwiP_post                                                                     
70010031  HwiP_prefetch_abort_handler                                                   
7000ffa1  HwiP_reserved_handler                                                         
70010148  HwiP_restore                                                                  
7000fa61  HwiP_restoreInt                                                               
70010001  HwiP_svc_handler                                                              
7000ffd1  HwiP_undefined_handler                                                        
70007fa1  LPDDR4_AckCtlInterrupt                                                        
70007b21  LPDDR4_CheckCtlInterrupt                                                      
7000e581  LPDDR4_EnablePIInitiator                                                      
7000f1e1  LPDDR4_Init                                                                   
7000e5c1  LPDDR4_PollCtlIrq                                                             
7000f5d1  LPDDR4_Probe                                                                  
7000cef1  LPDDR4_ReadReg                                                                
7000b661  LPDDR4_Start                                                                  
7000da41  LPDDR4_WriteCtlConfig                                                         
7000d491  LPDDR4_WritePhyConfig                                                         
7000d3a1  LPDDR4_WritePhyIndepConfig                                                    
70014dd8  MAIN_GPIOMUX_INTROUTER0_outp_0_15_to_GICSS0_spi_32_47                         
70014de0  MAIN_GPIOMUX_INTROUTER0_outp_0_15_to_R5FSS0_CORE0_intr_32_47                  
70014de8  MAIN_GPIOMUX_INTROUTER0_outp_0_15_to_R5FSS0_CORE1_intr_32_47                  
70014df0  MAIN_GPIOMUX_INTROUTER0_outp_0_15_to_R5FSS1_CORE0_intr_32_47                  
70014df8  MAIN_GPIOMUX_INTROUTER0_outp_0_15_to_R5FSS1_CORE1_intr_32_47                  
70014e00  MAIN_GPIOMUX_INTROUTER0_outp_16_17_to_DMASS0_INTAGGR_0_intaggr_levi_pend_24_25
70014e08  MAIN_GPIOMUX_INTROUTER0_outp_18_23_to_PRU_ICSSG0_pr1_iep0_cap_intr_req_4_9    
70014e10  MAIN_GPIOMUX_INTROUTER0_outp_18_23_to_PRU_ICSSG1_pr1_iep0_cap_intr_req_4_9    
70014e18  MAIN_GPIOMUX_INTROUTER0_outp_24_29_to_PRU_ICSSG0_pr1_iep1_cap_intr_req_10_15  
70014e20  MAIN_GPIOMUX_INTROUTER0_outp_24_29_to_PRU_ICSSG1_pr1_iep1_cap_intr_req_10_15  
70014e28  MAIN_GPIOMUX_INTROUTER0_outp_30_37_to_DMASS0_INTAGGR_0_intaggr_levi_pend_16_23
70014e30  MAIN_GPIOMUX_INTROUTER0_outp_38_45_to_PRU_ICSSG0_pr1_slv_intr_46_53           
70014e38  MAIN_GPIOMUX_INTROUTER0_outp_46_53_to_PRU_ICSSG1_pr1_slv_intr_46_53           
70014e40  MCU_GPIO0_gpio_0_29_to_MCU_MCU_GPIOMUX_INTROUTER0_in_0_29                     
70014e48  MCU_GPIO0_gpio_bank_30_31_to_MCU_MCU_GPIOMUX_INTROUTER0_in_30_31              
70014e50  MCU_MCU_GPIOMUX_INTROUTER0_outp_0_3_to_GICSS0_spi_104_107                     
70014e58  MCU_MCU_GPIOMUX_INTROUTER0_outp_0_3_to_R5FSS0_CORE0_intr_104_107              
70014e60  MCU_MCU_GPIOMUX_INTROUTER0_outp_0_3_to_R5FSS0_CORE1_intr_104_107              
70014e68  MCU_MCU_GPIOMUX_INTROUTER0_outp_0_3_to_R5FSS1_CORE0_intr_104_107              
70014e70  MCU_MCU_GPIOMUX_INTROUTER0_outp_0_3_to_R5FSS1_CORE1_intr_104_107              
70014e78  MCU_MCU_GPIOMUX_INTROUTER0_outp_4_7_to_MCU_M4FSS0_CORE0_nvic_0_3              
70014e80  MCU_MCU_GPIOMUX_INTROUTER0_outp_8_11_to_MCU_ESM0_esm_pls_event0_88_91         
70014e88  MCU_MCU_GPIOMUX_INTROUTER0_outp_8_11_to_MCU_ESM0_esm_pls_event1_92_95         
70014e90  MCU_MCU_GPIOMUX_INTROUTER0_outp_8_11_to_MCU_ESM0_esm_pls_event2_96_99         
7000e761  Module_clockDisable                                                           
7000e791  Module_clockEnable                                                            
7000e501  Module_clockSetFrequency                                                      
700105d1  MpuP_RegionAttrs_init                                                         
700106d1  MpuP_disable                                                                  
70010784  MpuP_disableAsm                                                               
7001079c  MpuP_disableBRAsm                                                             
70010691  MpuP_enable                                                                   
700107ac  MpuP_enableAsm                                                                
700107c4  MpuP_enableBRAsm                                                              
70010721  MpuP_init                                                                     
70010711  MpuP_isEnable                                                                 
700107d4  MpuP_isEnableAsm                                                              
700105e1  MpuP_setRegion                                                                
700107e8  MpuP_setRegionAsm                                                             
7000f431  OSPI_ReadCmdParams_init                                                       
7000f551  OSPI_Transaction_init                                                         
7000f451  OSPI_WriteCmdParams_init                                                      
7000f5e1  OSPI_clearDualOpCodeMode                                                      
7000bc81  OSPI_close                                                                    
7000f141  OSPI_deinit                                                                   
7000e381  OSPI_disablePhy                                                               
7000f201  OSPI_disablePhyPipeline                                                       
7000f221  OSPI_dmaClose                                                                 
7000ebb1  OSPI_dmaCopy                                                                  
7000e281  OSPI_dmaOpen                                                                  
7000f241  OSPI_enableDDR                                                                
7000eee1  OSPI_enableDacMode                                                            
7000f491  OSPI_enableModeBitsCmd                                                        
7000f5f1  OSPI_enableModeBitsRead                                                       
7000d4e1  OSPI_enablePhy                                                                
7000f261  OSPI_enablePhyPipeline                                                        
7000f281  OSPI_enableSDR                                                                
7000f701  OSPI_getFlashDataBaseAddr                                                     
7000e911  OSPI_getHandle                                                                
7000f711  OSPI_getInputClk                                                              
7000ad01  OSPI_init                                                                     
7000f841  OSPI_isPhyEnable                                                              
70004a91  OSPI_open                                                                     
70000d81  OSPI_phyFindOTP1                                                              
70004451  OSPI_phyFindOTP2                                                              
7000c541  OSPI_phyFindRxHigh                                                            
7000c5a1  OSPI_phyFindRxLow                                                             
7000c601  OSPI_phyFindTxHigh                                                            
7000c661  OSPI_phyFindTxLow                                                             
7000f601  OSPI_phyGetTuningData                                                         
7000d171  OSPI_phyReadAttackVector                                                      
7000b511  OSPI_phyResyncDLL                                                             
7000d3f1  OSPI_phySetRdDelayTxRxDLL                                                     
7000a5e1  OSPI_phyTuneDDR                                                               
70007771  OSPI_readCmd                                                                  
70009071  OSPI_readDirect                                                               
7000f2a1  OSPI_setCmdDummyCycles                                                        
7000f7d1  OSPI_setCmdExtType                                                            
7000e2c1  OSPI_setDeviceSize                                                            
7000f611  OSPI_setDualOpCodeMode                                                        
7000f621  OSPI_setModeBits                                                              
7000eb51  OSPI_setNumAddrBytes                                                          
7000f791  OSPI_setPhyEnableSuccess                                                      
70006e71  OSPI_setProtocol                                                              
7000f001  OSPI_setRdDataCaptureDelay                                                    
7000f4b1  OSPI_setReadDummyCycles                                                       
7000bf21  OSPI_setXferOpCodes                                                           
700080c1  OSPI_writeCmd                                                                 
700088d1  OSPI_writeIndirect                                                            
70014e98  PCIE0_pcie_cpts_comp_0_0_to_CMP_EVENT_INTROUTER0_in_81_81                     
70014ea0  PCIE0_pcie_cpts_genf0_1_1_to_TIMESYNC_EVENT_INTROUTER0_in_23_23               
70014ea8  PCIE0_pcie_cpts_hw1_push_2_2_to_TIMESYNC_EVENT_INTROUTER0_in_37_37            
70014eb0  PCIE0_pcie_cpts_sync_3_3_to_TIMESYNC_EVENT_INTROUTER0_in_33_33                
70014eb8  PCIE0_pcie_ptm_valid_pulse_4_4_to_TIMESYNC_EVENT_INTROUTER0_in_38_38          
70014ec0  PRU_ICSSG0_pr1_edc0_sync0_out_0_0_to_TIMESYNC_EVENT_INTROUTER0_in_25_25       
70014ec8  PRU_ICSSG0_pr1_edc0_sync1_out_1_1_to_TIMESYNC_EVENT_INTROUTER0_in_26_26       
70014ed0  PRU_ICSSG0_pr1_edc1_sync0_out_2_2_to_TIMESYNC_EVENT_INTROUTER0_in_27_27       
70014ed8  PRU_ICSSG0_pr1_edc1_sync1_out_3_3_to_TIMESYNC_EVENT_INTROUTER0_in_28_28       
70014ee0  PRU_ICSSG0_pr1_host_intr_req_4_11_to_CMP_EVENT_INTROUTER0_in_0_7              
70014ee8  PRU_ICSSG0_pr1_iep0_cmp_intr_req_12_27_to_CMP_EVENT_INTROUTER0_in_16_31       
70014ef0  PRU_ICSSG0_pr1_iep1_cmp_intr_req_28_43_to_CMP_EVENT_INTROUTER0_in_32_47       
70014ef8  PRU_ICSSG1_pr1_edc0_sync0_out_0_0_to_TIMESYNC_EVENT_INTROUTER0_in_29_29       
70014f00  PRU_ICSSG1_pr1_edc0_sync1_out_1_1_to_TIMESYNC_EVENT_INTROUTER0_in_30_30       
70014f08  PRU_ICSSG1_pr1_edc1_sync0_out_2_2_to_TIMESYNC_EVENT_INTROUTER0_in_31_31       
70014f10  PRU_ICSSG1_pr1_edc1_sync1_out_3_3_to_TIMESYNC_EVENT_INTROUTER0_in_32_32       
70014f18  PRU_ICSSG1_pr1_host_intr_req_4_11_to_CMP_EVENT_INTROUTER0_in_8_15             
70014f20  PRU_ICSSG1_pr1_iep0_cmp_intr_req_12_27_to_CMP_EVENT_INTROUTER0_in_48_63       
70014f28  PRU_ICSSG1_pr1_iep1_cmp_intr_req_28_43_to_CMP_EVENT_INTROUTER0_in_64_79       
70009141  Pinmux_config                                                                 
7000ecc1  Pinmux_init                                                                   
7000e71c  PmuP_clearOverflowStatus                                                      
7000e70c  PmuP_disableCounters                                                          
7000e704  PmuP_enableCounters                                                           
7000e714  PmuP_getOverflowStatus                                                        
7000e6fc  PmuP_setup                                                                    
7000f8d1  PowerClock_deinit                                                             
7000f6c1  PowerClock_init                                                               
7000c9c1  SOC_clearResetCauseMainMcuDomain                                              
7000e941  SOC_controlModuleLockMMR                                                      
7000e001  SOC_controlModuleUnlockMMR                                                    
7000c841  SOC_generateSwWarmResetMcuDomain                                              
7000f021  SOC_getCoreName                                                               
7000ee21  SOC_getSelfCpuClk                                                             
7000c901  SOC_getWarmResetCauseMcuDomain                                                
7000b901  SOC_isR5FDualCoreMode                                                         
7000b6d1  SOC_moduleClockEnable                                                         
700079f1  SOC_moduleSetClockFrequency                                                   
7000ae21  Sciclient_boardCfgPm                                                          
7000f8e1  Sciclient_deinit                                                              
7000da81  Sciclient_firewallChangeOwnerInfo                                             
7000dac1  Sciclient_firewallSetRegion                                                   
7000ce01  Sciclient_getContext                                                          
7000e3c1  Sciclient_getCurrentContext                                                   
7000f2c1  Sciclient_getDevId                                                            
7000f721  Sciclient_getSelfDevIdCore                                                    
70008e01  Sciclient_getVersionCheck                                                     
7000a361  Sciclient_init                                                                
7000bcf1  Sciclient_pmGetModuleClkFreq                                                  
7000b1a1  Sciclient_pmGetModuleClkNumParent                                             
7000bd61  Sciclient_pmGetModuleClkParent                                                
7000b741  Sciclient_pmGetModuleState                                                    
7000c361  Sciclient_pmModuleClkRequest                                                  
7000bf91  Sciclient_pmModuleGetClkStatus                                                
70009a81  Sciclient_pmQueryModuleClkFreq                                                
7000a7c1  Sciclient_pmSetModuleClkFreq                                                  
7000c3c1  Sciclient_pmSetModuleClkParent                                                
7000d621  Sciclient_pmSetModuleRst                                                      
7000d531  Sciclient_pmSetModuleRst_flags                                                
7000cc61  Sciclient_pmSetModuleState                                                    
7000d7b1  Sciclient_procBootAuthAndStart                                                
7000d581  Sciclient_procBootGetProcessorState                                           
7000cf41  Sciclient_procBootReleaseProcessor                                            
7000d671  Sciclient_procBootRequestProcessor                                            
7000e041  Sciclient_procBootSetProcessorCfg                                             
7000c6c1  Sciclient_procBootSetSequenceCtrl                                             
7000afa1  Sciclient_procBootWaitProcessorState                                          
70006581  Sciclient_rmClearInterruptRoute                                               
7000cba1  Sciclient_rmGetResourceRange                                                  
7000b021  Sciclient_rmIrOutpIsFree                                                      
7000f631  Sciclient_rmIrqRelease                                                        
7000d801  Sciclient_rmIrqReleaseRaw                                                     
7000f8f1  Sciclient_rmIrqSet                                                            
7000db01  Sciclient_rmIrqSetRaw                                                         
7000f901  Sciclient_rmIrqTranslateIaOutput                                              
70005de1  Sciclient_rmProgramInterruptRoute                                             
7000d851  Sciclient_rmPsilPair                                                          
7000d8a1  Sciclient_rmPsilUnpair                                                        
7000db41  Sciclient_rmRingCfg                                                           
7000b221  Sciclient_rmTranslateIntOutput                                                
7000db81  Sciclient_rmUdmapFlowCfg                                                      
7000dbc1  Sciclient_rmUdmapFlowSizeThreshCfg                                            
7000dc01  Sciclient_rmUdmapRxChCfg                                                      
7000dc41  Sciclient_rmUdmapTxChCfg                                                      
70003a01  Sciclient_service                                                             
7000d1c1  Sciclient_triggerSecHandover                                                  
7000c0e1  Sciclient_waitForBootNotification                                             
7000dc81  SemaphoreP_constructBinary                                                    
7000e081  SemaphoreP_constructMutex                                                     
7000f9a1  SemaphoreP_destruct                                                           
7000a4a1  SemaphoreP_pend                                                               
7000e681  SemaphoreP_post                                                               
7000c421  System_deinit                                                                 
7000aea1  System_init                                                                   
70014f30  TIMER0_timer_pwm_0_0_to_TIMESYNC_EVENT_INTROUTER0_in_0_0                      
70014f38  TIMER1_timer_pwm_0_0_to_TIMESYNC_EVENT_INTROUTER0_in_1_1                      
70014f40  TIMER2_timer_pwm_0_0_to_TIMESYNC_EVENT_INTROUTER0_in_2_2                      
70014f48  TIMER3_timer_pwm_0_0_to_TIMESYNC_EVENT_INTROUTER0_in_3_3                      
70014f50  TIMESYNC_EVENT_INTROUTER0_outl_0_7_to_DMASS0_INTAGGR_0_intaggr_levi_pend_8_15 
70014f58  TIMESYNC_EVENT_INTROUTER0_outl_10_10_to_PRU_ICSSG0_pr1_edc1_latch0_in_2_2     
70014f60  TIMESYNC_EVENT_INTROUTER0_outl_11_11_to_PRU_ICSSG0_pr1_edc1_latch1_in_3_3     
70014f68  TIMESYNC_EVENT_INTROUTER0_outl_12_12_to_PRU_ICSSG1_pr1_edc0_latch0_in_0_0     
70014f70  TIMESYNC_EVENT_INTROUTER0_outl_13_13_to_PRU_ICSSG1_pr1_edc0_latch1_in_1_1     
70014f78  TIMESYNC_EVENT_INTROUTER0_outl_14_14_to_PRU_ICSSG1_pr1_edc1_latch0_in_2_2     
70014f80  TIMESYNC_EVENT_INTROUTER0_outl_15_15_to_PRU_ICSSG1_pr1_edc1_latch1_in_3_3     
70014f88  TIMESYNC_EVENT_INTROUTER0_outl_16_16_to_CPTS0_cpts_hw1_push_0_0               
70014f90  TIMESYNC_EVENT_INTROUTER0_outl_17_17_to_CPTS0_cpts_hw2_push_1_1               
70014f98  TIMESYNC_EVENT_INTROUTER0_outl_18_18_to_CPTS0_cpts_hw3_push_2_2               
70014fa0  TIMESYNC_EVENT_INTROUTER0_outl_19_19_to_CPTS0_cpts_hw4_push_3_3               
70014fa8  TIMESYNC_EVENT_INTROUTER0_outl_20_20_to_CPTS0_cpts_hw5_push_4_4               
70014fb0  TIMESYNC_EVENT_INTROUTER0_outl_21_21_to_CPTS0_cpts_hw6_push_5_5               
70014fb8  TIMESYNC_EVENT_INTROUTER0_outl_22_22_to_CPTS0_cpts_hw7_push_6_6               
70014fc0  TIMESYNC_EVENT_INTROUTER0_outl_23_23_to_CPTS0_cpts_hw8_push_7_7               
70014fc8  TIMESYNC_EVENT_INTROUTER0_outl_29_29_to_PCIE0_pcie_cpts_hw2_push_0_0          
70014fd0  TIMESYNC_EVENT_INTROUTER0_outl_30_30_to_CPSW0_cpts_hw1_push_0_0               
70014fd8  TIMESYNC_EVENT_INTROUTER0_outl_31_31_to_CPSW0_cpts_hw2_push_1_1               
70014fe0  TIMESYNC_EVENT_INTROUTER0_outl_32_32_to_CPSW0_cpts_hw3_push_2_2               
70014fe8  TIMESYNC_EVENT_INTROUTER0_outl_33_33_to_CPSW0_cpts_hw4_push_3_3               
70014ff0  TIMESYNC_EVENT_INTROUTER0_outl_34_34_to_CPSW0_cpts_hw5_push_4_4               
70014ff8  TIMESYNC_EVENT_INTROUTER0_outl_35_35_to_CPSW0_cpts_hw6_push_5_5               
70015000  TIMESYNC_EVENT_INTROUTER0_outl_36_36_to_CPSW0_cpts_hw7_push_6_6               
70015008  TIMESYNC_EVENT_INTROUTER0_outl_37_37_to_CPSW0_cpts_hw8_push_7_7               
70015010  TIMESYNC_EVENT_INTROUTER0_outl_8_8_to_PRU_ICSSG0_pr1_edc0_latch0_in_0_0       
70015018  TIMESYNC_EVENT_INTROUTER0_outl_9_9_to_PRU_ICSSG0_pr1_edc0_latch1_in_1_1       
7000f09c  TI_memcpy_small                                                               
7000f378  TI_memset_small                                                               
7000f9b1  TaskP_yield                                                                   
7000ee41  TimerP_Params_init                                                            
7000f571  TimerP_clearOverflowInt                                                       
7000f911  TimerP_getCount                                                               
7000f921  TimerP_getReloadCount                                                         
700063c1  TimerP_setup                                                                  
7000f7a1  TimerP_start                                                                  
70007111  UART_close                                                                    
7000f161  UART_deinit                                                                   
7000cc01  UART_dmaClose                                                                 
7000ca21  UART_dmaDisableChannel                                                        
7000e301  UART_dmaOpen                                                                  
70009441  UART_flushTxFifo                                                              
7000e7c1  UART_getHandle                                                                
7000a681  UART_init                                                                     
70001e11  UART_open                                                                     
70005ff1  UART_write                                                                    
7000f181  UART_writeInterruptDma                                                        
7000d211  UdmaChPrms_init                                                               
7000d441  UdmaChRxPrms_init                                                             
7000cf91  UdmaChTxPrms_init                                                             
7000e6c1  UdmaEventPrms_init                                                            
7000e0c1  UdmaFlowPrms_init                                                             
7000e7f1  UdmaRingPrms_init                                                             
70004d91  UdmaRmInitPrms_init                                                           
7000f041  UdmaUtils_getRingMemSize                                                      
7000c151  UdmaUtils_makeTrpd                                                            
7000ee61  UdmaUtils_makeTrpdTr15                                                        
7000a861  Udma_chClose                                                                  
700074f1  Udma_chConfigRx                                                               
700089c1  Udma_chConfigTx                                                               
700018e1  Udma_chDisable                                                                
700086e1  Udma_chEnable                                                                 
7000ea31  Udma_chGetCqRingHandle                                                        
7000e821  Udma_chGetCqRingNum                                                           
7000ea61  Udma_chGetFqRingHandle                                                        
700032d1  Udma_chOpen                                                                   
7000f9c1  Udma_defaultPhyToVirtFxn                                                      
7000f931  Udma_defaultVirtToPhyFxn                                                      
7000ca81  Udma_deinit                                                                   
70002301  Udma_eventRegister                                                            
70005bd1  Udma_eventUnRegister                                                          
700084e1  Udma_flowConfig                                                               
7000cfe1  Udma_getMappedChRingAttributes                                                
70009c81  Udma_init                                                                     
700052c1  Udma_initDrvHandle                                                            
7000f941  Udma_isCacheCoherent                                                          
7000e401  Udma_lcdmaRingaccMemOps                                                       
7000e971  Udma_phyToVirtFxn                                                             
70006731  Udma_ringAlloc                                                                
7000c8a1  Udma_ringDequeueRaw                                                           
7000ef01  Udma_ringDequeueRawLcdma                                                      
7000e101  Udma_ringFlushRaw                                                             
7000c001  Udma_ringFlushRawLcdma                                                        
7000c1c1  Udma_ringFree                                                                 
7000f2e1  Udma_ringGetElementCntLcdma                                                   
7000f7e1  Udma_ringGetForwardRingOcc                                                    
7000ea91  Udma_ringGetForwardRingOccLcdma                                               
7000f301  Udma_ringGetMemPtrLcdma                                                       
7000f321  Udma_ringGetModeLcdma                                                         
7000f061  Udma_ringGetNum                                                               
7000f341  Udma_ringGetRdIdxLcdma                                                        
7000f7f1  Udma_ringGetReverseRingOcc                                                    
7000eac1  Udma_ringGetReverseRingOccLcdma                                               
7000f361  Udma_ringGetWrIdxLcdma                                                        
7000f801  Udma_ringHandleClearRegsLcdma                                                 
7000ebe1  Udma_ringPrimeLcdma                                                           
7000e1c1  Udma_ringPrimeReadLcdma                                                       
7000c231  Udma_ringQueueRaw                                                             
7000ef21  Udma_ringQueueRawLcdma                                                        
7000aac1  Udma_ringSetCfgLcdma                                                          
7000d121  Udma_ringSetDoorBellLcdma                                                     
70009d21  Udma_rmAllocBlkCopyCh                                                         
70009dc1  Udma_rmAllocBlkCopyHcCh                                                       
70009e61  Udma_rmAllocBlkCopyUhcCh                                                      
7000c721  Udma_rmAllocEvent                                                             
7000f851  Udma_rmAllocFreeRing                                                          
70009f01  Udma_rmAllocIrIntr                                                            
7000a721  Udma_rmAllocMappedRing                                                        
70009871  Udma_rmAllocMappedRxCh                                                        
70009921  Udma_rmAllocMappedTxCh                                                        
70009fa1  Udma_rmAllocRxCh                                                              
7000a041  Udma_rmAllocRxHcCh                                                            
7000a0e1  Udma_rmAllocRxUhcCh                                                           
7000a181  Udma_rmAllocTxCh                                                              
7000a221  Udma_rmAllocTxHcCh                                                            
7000a2c1  Udma_rmAllocTxUhcCh                                                           
7000c781  Udma_rmAllocVintr                                                             
7000b421  Udma_rmAllocVintrBit                                                          
70002b61  Udma_rmDeinit                                                                 
7000dcc1  Udma_rmFreeBlkCopyCh                                                          
7000dd01  Udma_rmFreeBlkCopyHcCh                                                        
7000dd41  Udma_rmFreeBlkCopyUhcCh                                                       
7000dd81  Udma_rmFreeEvent                                                              
7000f9d1  Udma_rmFreeFreeRing                                                           
7000ddc1  Udma_rmFreeIrIntr                                                             
7000c2a1  Udma_rmFreeMappedRing                                                         
7000d261  Udma_rmFreeMappedRxCh                                                         
7000d2b1  Udma_rmFreeMappedTxCh                                                         
7000de01  Udma_rmFreeRxCh                                                               
7000de41  Udma_rmFreeRxHcCh                                                             
7000de81  Udma_rmFreeRxUhcCh                                                            
7000dec1  Udma_rmFreeTxCh                                                               
7000df01  Udma_rmFreeTxHcCh                                                             
7000df41  Udma_rmFreeTxUhcCh                                                            
7000df81  Udma_rmFreeVintr                                                              
7000ce51  Udma_rmFreeVintrBit                                                           
7000f1a1  Udma_rmGetDefBoardCfgPrms                                                     
7000ac71  Udma_rmGetSciclientDefaultBoardCfgRmRange                                     
7000eaf1  Udma_rmGetSharedResPrms                                                       
70003d81  Udma_rmInit                                                                   
700081d1  Udma_rmSetSharedResRmInitPrms                                                 
7000f641  Udma_rmTranslateCoreIntrInput                                                 
7000f651  Udma_rmTranslateIrOutput                                                      
7000ecf1  Udma_virtToPhyFxn                                                             
7000c7e1  _DebugP_assert                                                                
70010911  _DebugP_assertNoLog                                                           
7000e441  _DebugP_logZone                                                               
70077700  __ABORT_STACK_END                                                             
00000100  __ABORT_STACK_SIZE                                                            
70077600  __ABORT_STACK_START                                                           
70076400  __BSS_END                                                                     
70074000  __BSS_START                                                                   
70077500  __FIQ_STACK_END                                                               
00000100  __FIQ_STACK_SIZE                                                              
70077400  __FIQ_STACK_START                                                             
70077400  __IRQ_STACK_END                                                               
00001000  __IRQ_STACK_SIZE                                                              
70076400  __IRQ_STACK_START                                                             
70074000  __STACK_END                                                                   
00004000  __STACK_SIZE                                                                  
70077600  __SVC_STACK_END                                                               
00000100  __SVC_STACK_SIZE                                                              
70077500  __SVC_STACK_START                                                             
UNDEFED   __TI_CINIT_Base                                                               
UNDEFED   __TI_CINIT_Limit                                                              
UNDEFED   __TI_Handler_Table_Base                                                       
UNDEFED   __TI_Handler_Table_Limit                                                      
7000cea0  __TI_auto_init_nobinit_nopinit                                                
ffffffff  __TI_pprof_out_hndl                                                           
ffffffff  __TI_prof_data_size                                                           
ffffffff  __TI_prof_data_start                                                          
70000000  __TI_static_base__                                                            
70077800  __UNDEFINED_STACK_END                                                         
00000100  __UNDEFINED_STACK_SIZE                                                        
70077700  __UNDEFINED_STACK_START                                                       
7000f950  __aeabi_ldiv0                                                                 
7000f0c8  __aeabi_memclr                                                                
7000f0c8  __aeabi_memclr4                                                               
7000f0c8  __aeabi_memclr8                                                               
70000d74  __aeabi_memcpy                                                                
70000d74  __aeabi_memcpy4                                                               
70000d74  __aeabi_memcpy8                                                               
7000f0b8  __aeabi_memset                                                                
7000f0b8  __aeabi_memset4                                                               
7000f0b8  __aeabi_memset8                                                               
7000ec34  __aeabi_uldivmod                                                              
ffffffff  __binit__                                                                     
70010931  __mpu_init                                                                    
70070000  __stack                                                                       
70070000  __start___llvm_prf_bits                                                       
70070000  __start___llvm_prf_cnts                                                       
70070000  __stop___llvm_prf_bits                                                        
70070000  __stop___llvm_prf_cnts                                                        
70007e7c  __udivmoddi4                                                                  
70010834  _c_int00                                                                      
70010810  _c_int00_sbl                                                                  
UNDEFED   _system_post_cinit                                                            
7000f081  _system_pre_init                                                              
70000000  _vectors_sbl                                                                  
70000748  abort                                                                         
ffffffff  binit                                                                         
7000d8f1  flashFixUpOspiBoot                                                            
70012ff8  gAddrTranslateConfig                                                          
70012724  gAddrTranslateInfo                                                            
70013004  gBootloader0Args                                                              
70012f18  gBootloaderConfig                                                             
70012db4  gBootloaderConfigNum                                                          
70012f88  gBootloaderFlashFxns                                                          
70015020  gCacheConfig                                                                  
700150f8  gCacheL1dCacheLineSize                                                        
700150fc  gCacheL1pCacheLineSize                                                        
70012f9c  gClockConfig                                                                  
70076300  gClockCtrl                                                                    
700128a0  gCoreBootInfo                                                                 
7001304c  gDebugLogZone                                                                 
70013058  gDebugP_uartDrvIndex                                                          
70012df0  gFlashAttrs_S28HS512T                                                         
70012fd8  gFlashConfig                                                                  
7001305c  gFlashConfigNum                                                               
70012b80  gFlashDevCfg_S28HS512T                                                        
70076388  gFlashHandle                                                                  
70012f34  gFlashNorOspiFxns                                                             
70076360  gFlashObject_S28HS512T                                                        
7001301c  gFlashParams                                                                  
70012e70  gFlashToSpiProtocolMap                                                        
70013060  gHwiConfig                                                                    
70074000  gHwiCtrl                                                                      
70014c88  gMpuConfig                                                                    
70014938  gMpuRegionConfig                                                              
70013024  gOspiConfig                                                                   
70013064  gOspiConfigNum                                                                
7001302c  gOspiDmaConfig                                                                
70013068  gOspiDmaConfigNum                                                             
70013010  gOspiDmaUdmaFxns                                                              
7007638c  gOspiHandle                                                                   
7001306c  gOspiParams                                                                   
70012f50  gOspiUdma0Args                                                                
70013070  gPhyTuneWindowParams                                                          
70012e20  gPhyTuneWindowParamsGTE133                                                    
70012e48  gPhyTuneWindowParamsLT133                                                     
70076050  gProfileObj                                                                   
70012fb0  gResMemSection                                                                
70012ed8  gRmIaInstances                                                                
70012c60  gRmIrInstances                                                                
70014838  gRmIrqTree                                                                    
70015100  gRmIrqTreeCount                                                               
70014a70  gSOC_r5fVectors                                                               
70013e4c  gSciclientMap                                                                 
70012ef8  gSciclientSecProxyCfg                                                         
70012f6c  gSocModules                                                                   
70012e94  gSocModulesClockFrequency                                                     
70013044  gUartConfig                                                                   
70013088  gUartConfigNum                                                                
70010940  gUartDmaConfig                                                                
7001308c  gUartDmaConfigNum                                                             
70076390  gUartHandle                                                                   
70012d18  gUartParams                                                                   
70075008  gUdmaDrvObj                                                                   
700144a0  gUdmaRmDefBoardCfg_Bcdma                                                      
700134d4  gUdmaRmDefBoardCfg_Pktdma                                                     
70012cc0  gUdmaRmSharedResPrms                                                          
70014378  gUdmaRxMappedChRingAttributes                                                 
70013974  gUdmaTxMappedChRingAttributes                                                 
70002f21  main                                                                          
70013090  operatingMode                                                                 
7000f961  putchar_                                                                      
70014c1c  tisci_if_CMP_EVENT_INTROUTER0                                                 
70014c6c  tisci_if_CPSW0                                                                
70014b90  tisci_if_CPTS0                                                                
70014aec  tisci_if_DMASS0_INTAGGR_0                                                     
70015104  tisci_if_EPWM0                                                                
70015108  tisci_if_EPWM3                                                                
7001510c  tisci_if_EPWM6                                                                
70015028  tisci_if_GPIO0                                                                
70015030  tisci_if_GPIO1                                                                
70015110  tisci_if_GPMC0                                                                
70015114  tisci_if_GTC0                                                                 
70014ab8  tisci_if_MAIN_GPIOMUX_INTROUTER0                                              
70015038  tisci_if_MCU_GPIO0                                                            
70014b4c  tisci_if_MCU_MCU_GPIOMUX_INTROUTER0                                           
70014c34  tisci_if_PCIE0                                                                
70014bcc  tisci_if_PRU_ICSSG0                                                           
70014be8  tisci_if_PRU_ICSSG1                                                           
70015118  tisci_if_TIMER0                                                               
7001511c  tisci_if_TIMER1                                                               
70015120  tisci_if_TIMER2                                                               
70015124  tisci_if_TIMER3                                                               
70014710  tisci_if_TIMESYNC_EVENT_INTROUTER0                                            
700127e8  vint_usage_count_DMASS0_INTAGGR_0                                             
7000ec11  vprintf_                                                                      


GLOBAL SYMBOLS: SORTED BY Symbol Address 

address   name                                                                          
-------   ----                                                                          
00000100  __ABORT_STACK_SIZE                                                            
00000100  __FIQ_STACK_SIZE                                                              
00000100  __SVC_STACK_SIZE                                                              
00000100  __UNDEFINED_STACK_SIZE                                                        
00001000  __IRQ_STACK_SIZE                                                              
00004000  __STACK_SIZE                                                                  
70000000  __TI_static_base__                                                            
70000000  _vectors_sbl                                                                  
70000748  C$$EXIT                                                                       
70000748  abort                                                                         
70000d74  __aeabi_memcpy                                                                
70000d74  __aeabi_memcpy4                                                               
70000d74  __aeabi_memcpy8                                                               
70000d81  OSPI_phyFindOTP1                                                              
700018e1  Udma_chDisable                                                                
70001e11  UART_open                                                                     
70002301  Udma_eventRegister                                                            
70002771  DDR_init                                                                      
70002b61  Udma_rmDeinit                                                                 
70002f21  main                                                                          
700032d1  Udma_chOpen                                                                   
70003a01  Sciclient_service                                                             
70003d81  Udma_rmInit                                                                   
70004451  OSPI_phyFindOTP2                                                              
70004a91  OSPI_open                                                                     
70004d91  UdmaRmInitPrms_init                                                           
700052c1  Udma_initDrvHandle                                                            
70005551  Bootloader_socCpuPowerOnResetR5f                                              
70005781  Bootloader_socCpuResetRelease                                                 
70005bd1  Udma_eventUnRegister                                                          
70005de1  Sciclient_rmProgramInterruptRoute                                             
70005ff1  UART_write                                                                    
700061f1  CSL_bcdmaChanOp                                                               
700063c1  TimerP_setup                                                                  
70006581  Sciclient_rmClearInterruptRoute                                               
70006731  Udma_ringAlloc                                                                
700068d1  Bootloader_verifyMulticoreImage                                               
70006a51  Bootloader_socCpuResetReleaseSelf                                             
70006bd1  Bootloader_profilePrintProfileLog                                             
70006e71  OSPI_setProtocol                                                              
70007111  UART_close                                                                    
700074f1  Udma_chConfigRx                                                               
70007771  OSPI_readCmd                                                                  
700079f1  SOC_moduleSetClockFrequency                                                   
70007b21  LPDDR4_CheckCtlInterrupt                                                      
70007d61  Bootloader_socCpuPowerOnResetM4f                                              
70007e7c  __udivmoddi4                                                                  
70007fa1  LPDDR4_AckCtlInterrupt                                                        
700080c1  OSPI_writeCmd                                                                 
700081d1  Udma_rmSetSharedResRmInitPrms                                                 
700083e1  ClockP_init                                                                   
700084e1  Udma_flowConfig                                                               
700086e1  Udma_chEnable                                                                 
700088d1  OSPI_writeIndirect                                                            
700089c1  Udma_chConfigTx                                                               
70008aa1  Bootloader_rprcImageLoad                                                      
70008e01  Sciclient_getVersionCheck                                                     
70008fa1  Bootloader_parseMultiCoreAppImage                                             
70009071  OSPI_readDirect                                                               
70009141  Pinmux_config                                                                 
700092c1  CSL_lcdma_ringaccDequeue                                                      
70009441  UART_flushTxFifo                                                              
700095b1  Bootloader_loadSelfCpu                                                        
70009871  Udma_rmAllocMappedRxCh                                                        
70009921  Udma_rmAllocMappedTxCh                                                        
70009a81  Sciclient_pmQueryModuleClkFreq                                                
70009c81  Udma_init                                                                     
70009d21  Udma_rmAllocBlkCopyCh                                                         
70009dc1  Udma_rmAllocBlkCopyHcCh                                                       
70009e61  Udma_rmAllocBlkCopyUhcCh                                                      
70009f01  Udma_rmAllocIrIntr                                                            
70009fa1  Udma_rmAllocRxCh                                                              
7000a041  Udma_rmAllocRxHcCh                                                            
7000a0e1  Udma_rmAllocRxUhcCh                                                           
7000a181  Udma_rmAllocTxCh                                                              
7000a221  Udma_rmAllocTxHcCh                                                            
7000a2c1  Udma_rmAllocTxUhcCh                                                           
7000a361  Sciclient_init                                                                
7000a4a1  SemaphoreP_pend                                                               
7000a541  Bootloader_getMsgLen                                                          
7000a5e1  OSPI_phyTuneDDR                                                               
7000a681  UART_init                                                                     
7000a721  Udma_rmAllocMappedRing                                                        
7000a7c1  Sciclient_pmSetModuleClkFreq                                                  
7000a861  Udma_chClose                                                                  
7000a9a1  Bootloader_socCpuSetEntryPoint                                                
7000aac1  Udma_ringSetCfgLcdma                                                          
7000ac71  Udma_rmGetSciclientDefaultBoardCfgRmRange                                     
7000ad01  OSPI_init                                                                     
7000ae21  Sciclient_boardCfgPm                                                          
7000aea1  System_init                                                                   
7000af21  Bootloader_socOpenFirewalls                                                   
7000afa1  Sciclient_procBootWaitProcessorState                                          
7000b021  Sciclient_rmIrOutpIsFree                                                      
7000b1a1  Sciclient_pmGetModuleClkNumParent                                             
7000b221  Sciclient_rmTranslateIntOutput                                                
7000b2a1  Bootloader_socCpuSetClock                                                     
7000b3a1  Bootloader_socCpuPowerOnResetA53                                              
7000b421  Udma_rmAllocVintrBit                                                          
7000b4a1  Bootloader_socMemInitCpu                                                      
7000b511  OSPI_phyResyncDLL                                                             
7000b581  Board_flashOpen                                                               
7000b661  LPDDR4_Start                                                                  
7000b6d1  SOC_moduleClockEnable                                                         
7000b741  Sciclient_pmGetModuleState                                                    
7000b7b1  Bootloader_findSeq                                                            
7000b821  ClockP_timerTickIsr                                                           
7000b901  SOC_isR5FDualCoreMode                                                         
7000b971  Flash_offsetToSectorPage                                                      
7000b9e1  AddrTranslateP_getLocalAddr                                                   
7000ba51  Bootloader_socCpuRelease                                                      
7000bb31  Bootloader_socCpuRequest                                                      
7000bc81  OSPI_close                                                                    
7000bcf1  Sciclient_pmGetModuleClkFreq                                                  
7000bd61  Sciclient_pmGetModuleClkParent                                                
7000bdd1  Bootloader_socCpuGetClock                                                     
7000beb1  CSL_emifConfig                                                                
7000bf21  OSPI_setXferOpCodes                                                           
7000bf91  Sciclient_pmModuleGetClkStatus                                                
7000c001  Udma_ringFlushRawLcdma                                                        
7000c071  CycleCounterP_init                                                            
7000c081  CycleCounterP_nsToTicks                                                       
7000c0b1  CycleCounterP_reset                                                           
7000c0e1  Sciclient_waitForBootNotification                                             
7000c151  UdmaUtils_makeTrpd                                                            
7000c1c1  Udma_ringFree                                                                 
7000c231  Udma_ringQueueRaw                                                             
7000c2a1  Udma_rmFreeMappedRing                                                         
7000c301  Bootloader_runCpu                                                             
7000c361  Sciclient_pmModuleClkRequest                                                  
7000c3c1  Sciclient_pmSetModuleClkParent                                                
7000c421  System_deinit                                                                 
7000c541  OSPI_phyFindRxHigh                                                            
7000c5a1  OSPI_phyFindRxLow                                                             
7000c601  OSPI_phyFindTxHigh                                                            
7000c661  OSPI_phyFindTxLow                                                             
7000c6c1  Sciclient_procBootSetSequenceCtrl                                             
7000c721  Udma_rmAllocEvent                                                             
7000c781  Udma_rmAllocVintr                                                             
7000c7e1  _DebugP_assert                                                                
7000c841  SOC_generateSwWarmResetMcuDomain                                              
7000c8a1  Udma_ringDequeueRaw                                                           
7000c901  SOC_getWarmResetCauseMcuDomain                                                
7000c9c1  SOC_clearResetCauseMainMcuDomain                                              
7000ca21  UART_dmaDisableChannel                                                        
7000ca81  Udma_deinit                                                                   
7000cb41  CSL_intaggrIsIntrPending                                                      
7000cba1  Sciclient_rmGetResourceRange                                                  
7000cc01  UART_dmaClose                                                                 
7000cc61  Sciclient_pmSetModuleState                                                    
7000cd61  ClockP_construct                                                              
7000ce01  Sciclient_getContext                                                          
7000ce51  Udma_rmFreeVintrBit                                                           
7000cea0  __TI_auto_init_nobinit_nopinit                                                
7000cef1  LPDDR4_ReadReg                                                                
7000cf41  Sciclient_procBootReleaseProcessor                                            
7000cf91  UdmaChTxPrms_init                                                             
7000cfe1  Udma_getMappedChRingAttributes                                                
7000d031  ClockP_getTimeUsec                                                            
7000d081  Drivers_ospiOpen                                                              
7000d0d1  Drivers_uartOpen                                                              
7000d121  Udma_ringSetDoorBellLcdma                                                     
7000d171  OSPI_phyReadAttackVector                                                      
7000d1c1  Sciclient_triggerSecHandover                                                  
7000d211  UdmaChPrms_init                                                               
7000d261  Udma_rmFreeMappedRxCh                                                         
7000d2b1  Udma_rmFreeMappedTxCh                                                         
7000d351  CSL_intaggrClrIntr                                                            
7000d3a1  LPDDR4_WritePhyIndepConfig                                                    
7000d3f1  OSPI_phySetRdDelayTxRxDLL                                                     
7000d441  UdmaChRxPrms_init                                                             
7000d491  LPDDR4_WritePhyConfig                                                         
7000d4e1  OSPI_enablePhy                                                                
7000d531  Sciclient_pmSetModuleRst_flags                                                
7000d581  Sciclient_procBootGetProcessorState                                           
7000d5d1  Bootloader_loadCpu                                                            
7000d621  Sciclient_pmSetModuleRst                                                      
7000d671  Sciclient_procBootRequestProcessor                                            
7000d711  DDR_socEnableVttRegulator                                                     
7000d761  Flash_quirkSpansionUNHYSADisable                                              
7000d7b1  Sciclient_procBootAuthAndStart                                                
7000d801  Sciclient_rmIrqReleaseRaw                                                     
7000d851  Sciclient_rmPsilPair                                                          
7000d8a1  Sciclient_rmPsilUnpair                                                        
7000d8f1  flashFixUpOspiBoot                                                            
7000d941  Bootloader_profileReset                                                       
7000d9c1  ClockP_stop                                                                   
7000da01  Dpl_init                                                                      
7000da41  LPDDR4_WriteCtlConfig                                                         
7000da81  Sciclient_firewallChangeOwnerInfo                                             
7000dac1  Sciclient_firewallSetRegion                                                   
7000db01  Sciclient_rmIrqSetRaw                                                         
7000db41  Sciclient_rmRingCfg                                                           
7000db81  Sciclient_rmUdmapFlowCfg                                                      
7000dbc1  Sciclient_rmUdmapFlowSizeThreshCfg                                            
7000dc01  Sciclient_rmUdmapRxChCfg                                                      
7000dc41  Sciclient_rmUdmapTxChCfg                                                      
7000dc81  SemaphoreP_constructBinary                                                    
7000dcc1  Udma_rmFreeBlkCopyCh                                                          
7000dd01  Udma_rmFreeBlkCopyHcCh                                                        
7000dd41  Udma_rmFreeBlkCopyUhcCh                                                       
7000dd81  Udma_rmFreeEvent                                                              
7000ddc1  Udma_rmFreeIrIntr                                                             
7000de01  Udma_rmFreeRxCh                                                               
7000de41  Udma_rmFreeRxHcCh                                                             
7000de81  Udma_rmFreeRxUhcCh                                                            
7000dec1  Udma_rmFreeTxCh                                                               
7000df01  Udma_rmFreeTxHcCh                                                             
7000df41  Udma_rmFreeTxUhcCh                                                            
7000df81  Udma_rmFreeVintr                                                              
7000dfc1  Bootloader_open                                                               
7000e001  SOC_controlModuleUnlockMMR                                                    
7000e041  Sciclient_procBootSetProcessorCfg                                             
7000e081  SemaphoreP_constructMutex                                                     
7000e0c1  UdmaFlowPrms_init                                                             
7000e101  Udma_ringFlushRaw                                                             
7000e141  Bootloader_socTranslateSectionAddr                                            
7000e181  CSL_bcdmaGetCfg                                                               
7000e1c1  Udma_ringPrimeReadLcdma                                                       
7000e201  ClockP_destruct                                                               
7000e241  DebugP_uartLogWriterPutChar                                                   
7000e281  OSPI_dmaOpen                                                                  
7000e2c1  OSPI_setDeviceSize                                                            
7000e301  UART_dmaOpen                                                                  
7000e341  Bootloader_getX509CertLen                                                     
7000e381  OSPI_disablePhy                                                               
7000e3c1  Sciclient_getCurrentContext                                                   
7000e401  Udma_lcdmaRingaccMemOps                                                       
7000e441  _DebugP_logZone                                                               
7000e481  CSL_pktdmaGetCfg                                                              
7000e4c1  Flash_open                                                                    
7000e501  Module_clockSetFrequency                                                      
7000e541  ClockP_start                                                                  
7000e581  LPDDR4_EnablePIInitiator                                                      
7000e5c1  LPDDR4_PollCtlIrq                                                             
7000e601  Bootloader_BootImageInfo_init                                                 
7000e641  ClockP_usleep                                                                 
7000e681  SemaphoreP_post                                                               
7000e6c1  UdmaEventPrms_init                                                            
7000e6f4  CycleCounterP_getCount32                                                      
7000e6fc  PmuP_setup                                                                    
7000e704  PmuP_enableCounters                                                           
7000e70c  PmuP_disableCounters                                                          
7000e714  PmuP_getOverflowStatus                                                        
7000e71c  PmuP_clearOverflowStatus                                                      
7000e761  Module_clockDisable                                                           
7000e791  Module_clockEnable                                                            
7000e7c1  UART_getHandle                                                                
7000e7f1  UdmaRingPrms_init                                                             
7000e821  Udma_chGetCqRingNum                                                           
7000e851  Bootloader_socIsMCUResetIsoEnabled                                            
7000e881  CSL_pktdmaGetRxRT                                                             
7000e8b1  CSL_pktdmaGetTxRT                                                             
7000e8e1  Drivers_close                                                                 
7000e911  OSPI_getHandle                                                                
7000e941  SOC_controlModuleLockMMR                                                      
7000e971  Udma_phyToVirtFxn                                                             
7000e9a1  Bootloader_socCpuPowerOnReset                                                 
7000e9d1  CSL_intaggrGetCfg                                                             
7000ea31  Udma_chGetCqRingHandle                                                        
7000ea61  Udma_chGetFqRingHandle                                                        
7000ea91  Udma_ringGetForwardRingOccLcdma                                               
7000eac1  Udma_ringGetReverseRingOccLcdma                                               
7000eaf1  Udma_rmGetSharedResPrms                                                       
7000eb21  Bootloader_profileAddProfilePoint                                             
7000eb51  OSPI_setNumAddrBytes                                                          
7000eb81  CSL_bcdmaGetChanPeerReg                                                       
7000ebb1  OSPI_dmaCopy                                                                  
7000ebe1  Udma_ringPrimeLcdma                                                           
7000ec11  vprintf_                                                                      
7000ec34  __aeabi_uldivmod                                                              
7000ec61  Bootloader_runSelfCpu                                                         
7000ec91  CSL_bcdmaSetChanPeerReg                                                       
7000ecc1  Pinmux_init                                                                   
7000ecf1  Udma_virtToPhyFxn                                                             
7000ed21  Bootloader_enableMCUPLL                                                       
7000ed41  Bootloader_socGetCoreName                                                     
7000ed61  Bootloader_socRprcToCslCoreId                                                 
7000ed81  CSL_pktdmaSetRxRT                                                             
7000eda1  CSL_pktdmaSetTxRT                                                             
7000edc1  DebugP_logZoneEnable                                                          
7000ede1  Flash_getAttrs                                                                
7000ee01  Flash_getHandle                                                               
7000ee21  SOC_getSelfCpuClk                                                             
7000ee41  TimerP_Params_init                                                            
7000ee61  UdmaUtils_makeTrpdTr15                                                        
7000ee81  CSL_bcdmaTeardownRxChan                                                       
7000eea1  CSL_bcdmaTeardownTxChan                                                       
7000eec1  Flash_read                                                                    
7000eee1  OSPI_enableDacMode                                                            
7000ef01  Udma_ringDequeueRawLcdma                                                      
7000ef21  Udma_ringQueueRawLcdma                                                        
7000ef41  Bootloader_socCpuGetClkDefault                                                
7000ef61  Bootloader_socIsAuthRequired                                                  
7000ef81  Bootloader_socResetWorkaround                                                 
7000efa1  CSL_lcdma_ringaccPush64                                                       
7000efc1  CSL_pktdmaGetChanPeerReg                                                      
7000efe1  CSL_pktdmaSetChanPeerReg                                                      
7000f001  OSPI_setRdDataCaptureDelay                                                    
7000f021  SOC_getCoreName                                                               
7000f041  UdmaUtils_getRingMemSize                                                      
7000f061  Udma_ringGetNum                                                               
7000f081  _system_pre_init                                                              
7000f09c  TI_memcpy_small                                                               
7000f0b8  __aeabi_memset                                                                
7000f0b8  __aeabi_memset4                                                               
7000f0b8  __aeabi_memset8                                                               
7000f0c8  __aeabi_memclr                                                                
7000f0c8  __aeabi_memclr4                                                               
7000f0c8  __aeabi_memclr8                                                               
7000f0e1  Bootloader_profileAddCore                                                     
7000f101  CSL_emifDisableECC                                                            
7000f121  CSL_emifEnableECC                                                             
7000f141  OSPI_deinit                                                                   
7000f161  UART_deinit                                                                   
7000f181  UART_writeInterruptDma                                                        
7000f1a1  Udma_rmGetDefBoardCfgPrms                                                     
7000f1c1  Bootloader_socAuthImage                                                       
7000f1e1  LPDDR4_Init                                                                   
7000f201  OSPI_disablePhyPipeline                                                       
7000f221  OSPI_dmaClose                                                                 
7000f241  OSPI_enableDDR                                                                
7000f261  OSPI_enablePhyPipeline                                                        
7000f281  OSPI_enableSDR                                                                
7000f2a1  OSPI_setCmdDummyCycles                                                        
7000f2c1  Sciclient_getDevId                                                            
7000f2e1  Udma_ringGetElementCntLcdma                                                   
7000f301  Udma_ringGetMemPtrLcdma                                                       
7000f321  Udma_ringGetModeLcdma                                                         
7000f341  Udma_ringGetRdIdxLcdma                                                        
7000f361  Udma_ringGetWrIdxLcdma                                                        
7000f378  TI_memset_small                                                               
7000f391  Bootloader_socNotifyFirewallOpen                                              
7000f3b1  CSL_bcdmaGetRxRT                                                              
7000f3d1  CSL_bcdmaGetTxRT                                                              
7000f3f1  CSL_bcdmaSetRxRT                                                              
7000f411  CSL_bcdmaSetTxRT                                                              
7000f431  OSPI_ReadCmdParams_init                                                       
7000f451  OSPI_WriteCmdParams_init                                                      
7000f471  CSL_lcdma_ringaccPop64                                                        
7000f491  OSPI_enableModeBitsCmd                                                        
7000f4b1  OSPI_setReadDummyCycles                                                       
7000f4d1  CSL_emifClearECCInterruptStatus                                               
7000f4f1  CSL_emifEnableECCInterrupts                                                   
7000f511  CSL_lcdma_ringaccGetReverseRingOcc                                            
7000f531  Flash_reset                                                                   
7000f551  OSPI_Transaction_init                                                         
7000f571  TimerP_clearOverflowInt                                                       
7000f591  Bootloader_close                                                              
7000f5a1  Bootloader_isCorePresent                                                      
7000f5b1  CSL_lcdma_ringaccIsTeardownComplete                                           
7000f5c1  Flash_getPhyTuningOffset                                                      
7000f5d1  LPDDR4_Probe                                                                  
7000f5e1  OSPI_clearDualOpCodeMode                                                      
7000f5f1  OSPI_enableModeBitsRead                                                       
7000f601  OSPI_phyGetTuningData                                                         
7000f611  OSPI_setDualOpCodeMode                                                        
7000f621  OSPI_setModeBits                                                              
7000f631  Sciclient_rmIrqRelease                                                        
7000f641  Udma_rmTranslateCoreIntrInput                                                 
7000f651  Udma_rmTranslateIrOutput                                                      
7000f661  Bootloader_profileUpdateAppimageSize                                          
7000f671  Bootloader_profileUpdateMediaAndClk                                           
7000f681  CSL_lcdma_ringaccGetForwardRingOcc                                            
7000f691  CSL_lcdma_ringaccInitRingObj                                                  
7000f6a1  Drivers_open                                                                  
7000f6b1  Flash_close                                                                   
7000f6c1  PowerClock_init                                                               
7000f6d1  Bootloader_Params_init                                                        
7000f6e1  ClockP_getTicks                                                               
7000f6f1  DebugP_uartSetDrvIndex                                                        
7000f701  OSPI_getFlashDataBaseAddr                                                     
7000f711  OSPI_getInputClk                                                              
7000f721  Sciclient_getSelfDevIdCore                                                    
7000f731  Bootloader_getMulticoreImageSize                                              
7000f741  Bootloader_socGetSBLMem                                                       
7000f751  CSL_secProxyGetDataAddr                                                       
7000f761  ClockP_Params_init                                                            
7000f771  ClockP_isActive                                                               
7000f791  OSPI_setPhyEnableSuccess                                                      
7000f7a1  TimerP_start                                                                  
7000f7d1  OSPI_setCmdExtType                                                            
7000f7e1  Udma_ringGetForwardRingOcc                                                    
7000f7f1  Udma_ringGetReverseRingOcc                                                    
7000f801  Udma_ringHandleClearRegsLcdma                                                 
7000f821  CSL_pktdmaTeardownRxChan                                                      
7000f831  CSL_pktdmaTeardownTxChan                                                      
7000f841  OSPI_isPhyEnable                                                              
7000f851  Udma_rmAllocFreeRing                                                          
7000f861  Board_driversOpen                                                             
7000f871  Bootloader_socWaitForFWBoot                                                   
7000f881  CPS_UncachedRead32                                                            
7000f891  CPS_UncachedWrite32                                                           
7000f8a1  ClockP_getTimerCount                                                          
7000f8b1  ClockP_timerClearOverflowInt                                                  
7000f8d1  PowerClock_deinit                                                             
7000f8e1  Sciclient_deinit                                                              
7000f8f1  Sciclient_rmIrqSet                                                            
7000f901  Sciclient_rmIrqTranslateIaOutput                                              
7000f911  TimerP_getCount                                                               
7000f921  TimerP_getReloadCount                                                         
7000f931  Udma_defaultVirtToPhyFxn                                                      
7000f941  Udma_isCacheCoherent                                                          
7000f950  __aeabi_ldiv0                                                                 
7000f961  putchar_                                                                      
7000f971  Dpl_deinit                                                                    
7000f9a1  SemaphoreP_destruct                                                           
7000f9b1  TaskP_yield                                                                   
7000f9c1  Udma_defaultPhyToVirtFxn                                                      
7000f9d1  Udma_rmFreeFreeRing                                                           
7000f9f1  HwiP_enableInt                                                                
7000fa21  HwiP_disableInt                                                               
7000fa61  HwiP_restoreInt                                                               
7000fac1  HwiP_clearInt                                                                 
7000fae1  HwiP_post                                                                     
7000fb11  HwiP_Params_init                                                              
7000fb31  HwiP_construct                                                                
7000fc81  HwiP_destruct                                                                 
7000fd61  HwiP_init                                                                     
7000fe31  HwiP_inISR                                                                    
7000fe51  HwiP_irq_handler_c                                                            
7000fee1  HwiP_fiq_handler                                                              
7000ffa1  HwiP_reserved_handler                                                         
7000ffd1  HwiP_undefined_handler                                                        
70010001  HwiP_svc_handler                                                              
70010031  HwiP_prefetch_abort_handler                                                   
70010061  HwiP_data_abort_handler                                                       
70010090  HwiP_irq_handler                                                              
70010108  HwiP_disable                                                                  
70010118  HwiP_disableFIQ                                                               
70010128  HwiP_enable                                                                   
70010138  HwiP_enableFIQ                                                                
70010148  HwiP_restore                                                                  
70010150  HwiP_enableVIC                                                                
70010160  HwiP_disableVIC                                                               
70010170  HwiP_getCPSR                                                                  
70010180  CacheP_disableL1d                                                             
700101a8  CacheP_disableL1p                                                             
700101c0  CacheP_enableL1d                                                              
700101d8  CacheP_enableL1p                                                              
700101f0  CacheP_invL1d                                                                 
70010228  CacheP_invL1p                                                                 
70010264  CacheP_invL1dAll                                                              
7001026c  CacheP_invL1pAll                                                              
70010274  CacheP_wb                                                                     
700102b0  CacheP_wbInv                                                                  
700102ec  CacheP_wbAll                                                                  
70010394  CacheP_wbInvAll                                                               
700103ac  CacheP_wbInvAllAsm                                                            
7001044c  CacheP_getEnabled                                                             
70010484  CacheP_getCacheLevelInfo                                                      
70010490  CacheP_configForceWrThru                                                      
700104b0  CacheP_setDLFO                                                                
700104c1  CacheP_init                                                                   
70010531  CacheP_disable                                                                
70010571  CacheP_enable                                                                 
70010591  CacheP_inv                                                                    
700105d1  MpuP_RegionAttrs_init                                                         
700105e1  MpuP_setRegion                                                                
70010691  MpuP_enable                                                                   
700106d1  MpuP_disable                                                                  
70010711  MpuP_isEnable                                                                 
70010721  MpuP_init                                                                     
70010784  MpuP_disableAsm                                                               
7001079c  MpuP_disableBRAsm                                                             
700107ac  MpuP_enableAsm                                                                
700107c4  MpuP_enableBRAsm                                                              
700107d4  MpuP_isEnableAsm                                                              
700107e8  MpuP_setRegionAsm                                                             
70010810  _c_int00_sbl                                                                  
70010834  _c_int00                                                                      
70010911  _DebugP_assertNoLog                                                           
70010931  __mpu_init                                                                    
70010940  DDRSS_phyReg                                                                  
70010940  gUartDmaConfig                                                                
7001112c  DDRSS_ctlReg                                                                  
700117c8  DDRSS_phyIndepReg                                                             
70011d2c  DDRSS_phyRegNum                                                               
70012122  DDRSS_ctlRegNum                                                               
70012470  DDRSS_phyIndepRegNum                                                          
70012724  gAddrTranslateInfo                                                            
700127e8  vint_usage_count_DMASS0_INTAGGR_0                                             
700128a0  gCoreBootInfo                                                                 
70012b80  gFlashDevCfg_S28HS512T                                                        
70012c60  gRmIrInstances                                                                
70012cc0  gUdmaRmSharedResPrms                                                          
70012d18  gUartParams                                                                   
70012db4  gBootloaderConfigNum                                                          
70012df0  gFlashAttrs_S28HS512T                                                         
70012e20  gPhyTuneWindowParamsGTE133                                                    
70012e48  gPhyTuneWindowParamsLT133                                                     
70012e70  gFlashToSpiProtocolMap                                                        
70012e94  gSocModulesClockFrequency                                                     
70012ed8  gRmIaInstances                                                                
70012ef8  gSciclientSecProxyCfg                                                         
70012f18  gBootloaderConfig                                                             
70012f34  gFlashNorOspiFxns                                                             
70012f50  gOspiUdma0Args                                                                
70012f6c  gSocModules                                                                   
70012f88  gBootloaderFlashFxns                                                          
70012f9c  gClockConfig                                                                  
70012fb0  gResMemSection                                                                
70012fd8  gFlashConfig                                                                  
70012ff8  gAddrTranslateConfig                                                          
70013004  gBootloader0Args                                                              
70013010  gOspiDmaUdmaFxns                                                              
7001301c  gFlashParams                                                                  
70013024  gOspiConfig                                                                   
7001302c  gOspiDmaConfig                                                                
70013044  gUartConfig                                                                   
7001304c  gDebugLogZone                                                                 
70013058  gDebugP_uartDrvIndex                                                          
7001305c  gFlashConfigNum                                                               
70013060  gHwiConfig                                                                    
70013064  gOspiConfigNum                                                                
70013068  gOspiDmaConfigNum                                                             
7001306c  gOspiParams                                                                   
70013070  gPhyTuneWindowParams                                                          
70013088  gUartConfigNum                                                                
7001308c  gUartDmaConfigNum                                                             
70013090  operatingMode                                                                 
700134d4  gUdmaRmDefBoardCfg_Pktdma                                                     
70013974  gUdmaTxMappedChRingAttributes                                                 
70013e4c  gSciclientMap                                                                 
70014378  gUdmaRxMappedChRingAttributes                                                 
700144a0  gUdmaRmDefBoardCfg_Bcdma                                                      
70014710  tisci_if_TIMESYNC_EVENT_INTROUTER0                                            
70014838  gRmIrqTree                                                                    
70014938  gMpuRegionConfig                                                              
70014a70  gSOC_r5fVectors                                                               
70014ab8  tisci_if_MAIN_GPIOMUX_INTROUTER0                                              
70014aec  tisci_if_DMASS0_INTAGGR_0                                                     
70014b4c  tisci_if_MCU_MCU_GPIOMUX_INTROUTER0                                           
70014b90  tisci_if_CPTS0                                                                
70014bcc  tisci_if_PRU_ICSSG0                                                           
70014be8  tisci_if_PRU_ICSSG1                                                           
70014c1c  tisci_if_CMP_EVENT_INTROUTER0                                                 
70014c34  tisci_if_PCIE0                                                                
70014c6c  tisci_if_CPSW0                                                                
70014c88  gMpuConfig                                                                    
70014ca0  CMP_EVENT_INTROUTER0_outp_0_15_to_GICSS0_spi_48_63                            
70014ca8  CMP_EVENT_INTROUTER0_outp_16_23_to_R5FSS0_CORE0_intr_48_55                    
70014cb0  CMP_EVENT_INTROUTER0_outp_16_23_to_R5FSS0_CORE1_intr_48_55                    
70014cb8  CMP_EVENT_INTROUTER0_outp_24_31_to_R5FSS1_CORE0_intr_48_55                    
70014cc0  CMP_EVENT_INTROUTER0_outp_24_31_to_R5FSS1_CORE1_intr_48_55                    
70014cc8  CMP_EVENT_INTROUTER0_outp_32_39_to_DMASS0_INTAGGR_0_intaggr_levi_pend_0_7     
70014cd0  CPSW0_cpts_comp_0_0_to_CMP_EVENT_INTROUTER0_in_80_80                          
70014cd8  CPSW0_cpts_genf0_1_1_to_TIMESYNC_EVENT_INTROUTER0_in_21_21                    
70014ce0  CPSW0_cpts_genf1_2_2_to_TIMESYNC_EVENT_INTROUTER0_in_22_22                    
70014ce8  CPSW0_cpts_sync_3_3_to_TIMESYNC_EVENT_INTROUTER0_in_34_34                     
70014cf0  CPTS0_cpts_comp_0_0_to_CMP_EVENT_INTROUTER0_in_82_82                          
70014cf8  CPTS0_cpts_genf0_1_1_to_TIMESYNC_EVENT_INTROUTER0_in_16_16                    
70014d00  CPTS0_cpts_genf1_2_2_to_TIMESYNC_EVENT_INTROUTER0_in_17_17                    
70014d08  CPTS0_cpts_genf2_3_3_to_TIMESYNC_EVENT_INTROUTER0_in_18_18                    
70014d10  CPTS0_cpts_genf3_4_4_to_TIMESYNC_EVENT_INTROUTER0_in_19_19                    
70014d18  CPTS0_cpts_genf4_5_5_to_TIMESYNC_EVENT_INTROUTER0_in_20_20                    
70014d20  CPTS0_cpts_genf5_6_6_to_TIMESYNC_EVENT_INTROUTER0_in_24_24                    
70014d28  CPTS0_cpts_sync_7_7_to_TIMESYNC_EVENT_INTROUTER0_in_35_35                     
70014d30  DMASS0_INTAGGR_0_intaggr_vintr_pend_0_39_to_GICSS0_spi_64_103                 
70014d38  DMASS0_INTAGGR_0_intaggr_vintr_pend_120_127_to_R5FSS1_CORE0_intr_8_15         
70014d40  DMASS0_INTAGGR_0_intaggr_vintr_pend_128_135_to_R5FSS1_CORE1_intr_8_15         
70014d48  DMASS0_INTAGGR_0_intaggr_vintr_pend_152_159_to_PRU_ICSSG0_pr1_slv_intr_16_23  
70014d50  DMASS0_INTAGGR_0_intaggr_vintr_pend_160_167_to_PRU_ICSSG1_pr1_slv_intr_16_23  
70014d58  DMASS0_INTAGGR_0_intaggr_vintr_pend_168_183_to_MCU_M4FSS0_CORE0_nvic_32_47    
70014d60  DMASS0_INTAGGR_0_intaggr_vintr_pend_40_71_to_R5FSS0_CORE0_intr_64_95          
70014d68  DMASS0_INTAGGR_0_intaggr_vintr_pend_40_71_to_R5FSS0_CORE1_intr_64_95          
70014d70  DMASS0_INTAGGR_0_intaggr_vintr_pend_72_79_to_R5FSS0_CORE0_intr_8_15           
70014d78  DMASS0_INTAGGR_0_intaggr_vintr_pend_80_87_to_R5FSS0_CORE1_intr_8_15           
70014d80  DMASS0_INTAGGR_0_intaggr_vintr_pend_88_119_to_R5FSS1_CORE0_intr_64_95         
70014d88  DMASS0_INTAGGR_0_intaggr_vintr_pend_88_119_to_R5FSS1_CORE1_intr_64_95         
70014d90  EPWM0_epwm_synco_o_0_0_to_TIMESYNC_EVENT_INTROUTER0_in_39_39                  
70014d98  EPWM3_epwm_synco_o_0_0_to_TIMESYNC_EVENT_INTROUTER0_in_40_40                  
70014da0  EPWM6_epwm_synco_o_0_0_to_TIMESYNC_EVENT_INTROUTER0_in_41_41                  
70014da8  GPIO0_gpio_0_89_to_MAIN_GPIOMUX_INTROUTER0_in_0_89                            
70014db0  GPIO0_gpio_bank_90_98_to_MAIN_GPIOMUX_INTROUTER0_in_190_198                   
70014db8  GPIO1_gpio_0_89_to_MAIN_GPIOMUX_INTROUTER0_in_90_179                          
70014dc0  GPIO1_gpio_bank_90_98_to_MAIN_GPIOMUX_INTROUTER0_in_180_188                   
70014dc8  GPMC0_gpmc_sdmareq_0_0_to_DMASS0_INTAGGR_0_intaggr_levi_pend_29_29            
70014dd0  GTC0_gtc_push_event_0_0_to_TIMESYNC_EVENT_INTROUTER0_in_36_36                 
70014dd8  MAIN_GPIOMUX_INTROUTER0_outp_0_15_to_GICSS0_spi_32_47                         
70014de0  MAIN_GPIOMUX_INTROUTER0_outp_0_15_to_R5FSS0_CORE0_intr_32_47                  
70014de8  MAIN_GPIOMUX_INTROUTER0_outp_0_15_to_R5FSS0_CORE1_intr_32_47                  
70014df0  MAIN_GPIOMUX_INTROUTER0_outp_0_15_to_R5FSS1_CORE0_intr_32_47                  
70014df8  MAIN_GPIOMUX_INTROUTER0_outp_0_15_to_R5FSS1_CORE1_intr_32_47                  
70014e00  MAIN_GPIOMUX_INTROUTER0_outp_16_17_to_DMASS0_INTAGGR_0_intaggr_levi_pend_24_25
70014e08  MAIN_GPIOMUX_INTROUTER0_outp_18_23_to_PRU_ICSSG0_pr1_iep0_cap_intr_req_4_9    
70014e10  MAIN_GPIOMUX_INTROUTER0_outp_18_23_to_PRU_ICSSG1_pr1_iep0_cap_intr_req_4_9    
70014e18  MAIN_GPIOMUX_INTROUTER0_outp_24_29_to_PRU_ICSSG0_pr1_iep1_cap_intr_req_10_15  
70014e20  MAIN_GPIOMUX_INTROUTER0_outp_24_29_to_PRU_ICSSG1_pr1_iep1_cap_intr_req_10_15  
70014e28  MAIN_GPIOMUX_INTROUTER0_outp_30_37_to_DMASS0_INTAGGR_0_intaggr_levi_pend_16_23
70014e30  MAIN_GPIOMUX_INTROUTER0_outp_38_45_to_PRU_ICSSG0_pr1_slv_intr_46_53           
70014e38  MAIN_GPIOMUX_INTROUTER0_outp_46_53_to_PRU_ICSSG1_pr1_slv_intr_46_53           
70014e40  MCU_GPIO0_gpio_0_29_to_MCU_MCU_GPIOMUX_INTROUTER0_in_0_29                     
70014e48  MCU_GPIO0_gpio_bank_30_31_to_MCU_MCU_GPIOMUX_INTROUTER0_in_30_31              
70014e50  MCU_MCU_GPIOMUX_INTROUTER0_outp_0_3_to_GICSS0_spi_104_107                     
70014e58  MCU_MCU_GPIOMUX_INTROUTER0_outp_0_3_to_R5FSS0_CORE0_intr_104_107              
70014e60  MCU_MCU_GPIOMUX_INTROUTER0_outp_0_3_to_R5FSS0_CORE1_intr_104_107              
70014e68  MCU_MCU_GPIOMUX_INTROUTER0_outp_0_3_to_R5FSS1_CORE0_intr_104_107              
70014e70  MCU_MCU_GPIOMUX_INTROUTER0_outp_0_3_to_R5FSS1_CORE1_intr_104_107              
70014e78  MCU_MCU_GPIOMUX_INTROUTER0_outp_4_7_to_MCU_M4FSS0_CORE0_nvic_0_3              
70014e80  MCU_MCU_GPIOMUX_INTROUTER0_outp_8_11_to_MCU_ESM0_esm_pls_event0_88_91         
70014e88  MCU_MCU_GPIOMUX_INTROUTER0_outp_8_11_to_MCU_ESM0_esm_pls_event1_92_95         
70014e90  MCU_MCU_GPIOMUX_INTROUTER0_outp_8_11_to_MCU_ESM0_esm_pls_event2_96_99         
70014e98  PCIE0_pcie_cpts_comp_0_0_to_CMP_EVENT_INTROUTER0_in_81_81                     
70014ea0  PCIE0_pcie_cpts_genf0_1_1_to_TIMESYNC_EVENT_INTROUTER0_in_23_23               
70014ea8  PCIE0_pcie_cpts_hw1_push_2_2_to_TIMESYNC_EVENT_INTROUTER0_in_37_37            
70014eb0  PCIE0_pcie_cpts_sync_3_3_to_TIMESYNC_EVENT_INTROUTER0_in_33_33                
70014eb8  PCIE0_pcie_ptm_valid_pulse_4_4_to_TIMESYNC_EVENT_INTROUTER0_in_38_38          
70014ec0  PRU_ICSSG0_pr1_edc0_sync0_out_0_0_to_TIMESYNC_EVENT_INTROUTER0_in_25_25       
70014ec8  PRU_ICSSG0_pr1_edc0_sync1_out_1_1_to_TIMESYNC_EVENT_INTROUTER0_in_26_26       
70014ed0  PRU_ICSSG0_pr1_edc1_sync0_out_2_2_to_TIMESYNC_EVENT_INTROUTER0_in_27_27       
70014ed8  PRU_ICSSG0_pr1_edc1_sync1_out_3_3_to_TIMESYNC_EVENT_INTROUTER0_in_28_28       
70014ee0  PRU_ICSSG0_pr1_host_intr_req_4_11_to_CMP_EVENT_INTROUTER0_in_0_7              
70014ee8  PRU_ICSSG0_pr1_iep0_cmp_intr_req_12_27_to_CMP_EVENT_INTROUTER0_in_16_31       
70014ef0  PRU_ICSSG0_pr1_iep1_cmp_intr_req_28_43_to_CMP_EVENT_INTROUTER0_in_32_47       
70014ef8  PRU_ICSSG1_pr1_edc0_sync0_out_0_0_to_TIMESYNC_EVENT_INTROUTER0_in_29_29       
70014f00  PRU_ICSSG1_pr1_edc0_sync1_out_1_1_to_TIMESYNC_EVENT_INTROUTER0_in_30_30       
70014f08  PRU_ICSSG1_pr1_edc1_sync0_out_2_2_to_TIMESYNC_EVENT_INTROUTER0_in_31_31       
70014f10  PRU_ICSSG1_pr1_edc1_sync1_out_3_3_to_TIMESYNC_EVENT_INTROUTER0_in_32_32       
70014f18  PRU_ICSSG1_pr1_host_intr_req_4_11_to_CMP_EVENT_INTROUTER0_in_8_15             
70014f20  PRU_ICSSG1_pr1_iep0_cmp_intr_req_12_27_to_CMP_EVENT_INTROUTER0_in_48_63       
70014f28  PRU_ICSSG1_pr1_iep1_cmp_intr_req_28_43_to_CMP_EVENT_INTROUTER0_in_64_79       
70014f30  TIMER0_timer_pwm_0_0_to_TIMESYNC_EVENT_INTROUTER0_in_0_0                      
70014f38  TIMER1_timer_pwm_0_0_to_TIMESYNC_EVENT_INTROUTER0_in_1_1                      
70014f40  TIMER2_timer_pwm_0_0_to_TIMESYNC_EVENT_INTROUTER0_in_2_2                      
70014f48  TIMER3_timer_pwm_0_0_to_TIMESYNC_EVENT_INTROUTER0_in_3_3                      
70014f50  TIMESYNC_EVENT_INTROUTER0_outl_0_7_to_DMASS0_INTAGGR_0_intaggr_levi_pend_8_15 
70014f58  TIMESYNC_EVENT_INTROUTER0_outl_10_10_to_PRU_ICSSG0_pr1_edc1_latch0_in_2_2     
70014f60  TIMESYNC_EVENT_INTROUTER0_outl_11_11_to_PRU_ICSSG0_pr1_edc1_latch1_in_3_3     
70014f68  TIMESYNC_EVENT_INTROUTER0_outl_12_12_to_PRU_ICSSG1_pr1_edc0_latch0_in_0_0     
70014f70  TIMESYNC_EVENT_INTROUTER0_outl_13_13_to_PRU_ICSSG1_pr1_edc0_latch1_in_1_1     
70014f78  TIMESYNC_EVENT_INTROUTER0_outl_14_14_to_PRU_ICSSG1_pr1_edc1_latch0_in_2_2     
70014f80  TIMESYNC_EVENT_INTROUTER0_outl_15_15_to_PRU_ICSSG1_pr1_edc1_latch1_in_3_3     
70014f88  TIMESYNC_EVENT_INTROUTER0_outl_16_16_to_CPTS0_cpts_hw1_push_0_0               
70014f90  TIMESYNC_EVENT_INTROUTER0_outl_17_17_to_CPTS0_cpts_hw2_push_1_1               
70014f98  TIMESYNC_EVENT_INTROUTER0_outl_18_18_to_CPTS0_cpts_hw3_push_2_2               
70014fa0  TIMESYNC_EVENT_INTROUTER0_outl_19_19_to_CPTS0_cpts_hw4_push_3_3               
70014fa8  TIMESYNC_EVENT_INTROUTER0_outl_20_20_to_CPTS0_cpts_hw5_push_4_4               
70014fb0  TIMESYNC_EVENT_INTROUTER0_outl_21_21_to_CPTS0_cpts_hw6_push_5_5               
70014fb8  TIMESYNC_EVENT_INTROUTER0_outl_22_22_to_CPTS0_cpts_hw7_push_6_6               
70014fc0  TIMESYNC_EVENT_INTROUTER0_outl_23_23_to_CPTS0_cpts_hw8_push_7_7               
70014fc8  TIMESYNC_EVENT_INTROUTER0_outl_29_29_to_PCIE0_pcie_cpts_hw2_push_0_0          
70014fd0  TIMESYNC_EVENT_INTROUTER0_outl_30_30_to_CPSW0_cpts_hw1_push_0_0               
70014fd8  TIMESYNC_EVENT_INTROUTER0_outl_31_31_to_CPSW0_cpts_hw2_push_1_1               
70014fe0  TIMESYNC_EVENT_INTROUTER0_outl_32_32_to_CPSW0_cpts_hw3_push_2_2               
70014fe8  TIMESYNC_EVENT_INTROUTER0_outl_33_33_to_CPSW0_cpts_hw4_push_3_3               
70014ff0  TIMESYNC_EVENT_INTROUTER0_outl_34_34_to_CPSW0_cpts_hw5_push_4_4               
70014ff8  TIMESYNC_EVENT_INTROUTER0_outl_35_35_to_CPSW0_cpts_hw6_push_5_5               
70015000  TIMESYNC_EVENT_INTROUTER0_outl_36_36_to_CPSW0_cpts_hw7_push_6_6               
70015008  TIMESYNC_EVENT_INTROUTER0_outl_37_37_to_CPSW0_cpts_hw8_push_7_7               
70015010  TIMESYNC_EVENT_INTROUTER0_outl_8_8_to_PRU_ICSSG0_pr1_edc0_latch0_in_0_0       
70015018  TIMESYNC_EVENT_INTROUTER0_outl_9_9_to_PRU_ICSSG0_pr1_edc0_latch1_in_1_1       
70015020  gCacheConfig                                                                  
70015028  tisci_if_GPIO0                                                                
70015030  tisci_if_GPIO1                                                                
70015038  tisci_if_MCU_GPIO0                                                            
700150f8  gCacheL1dCacheLineSize                                                        
700150fc  gCacheL1pCacheLineSize                                                        
70015100  gRmIrqTreeCount                                                               
70015104  tisci_if_EPWM0                                                                
70015108  tisci_if_EPWM3                                                                
7001510c  tisci_if_EPWM6                                                                
70015110  tisci_if_GPMC0                                                                
70015114  tisci_if_GTC0                                                                 
70015118  tisci_if_TIMER0                                                               
7001511c  tisci_if_TIMER1                                                               
70015120  tisci_if_TIMER2                                                               
70015124  tisci_if_TIMER3                                                               
70070000  __stack                                                                       
70070000  __start___llvm_prf_bits                                                       
70070000  __start___llvm_prf_cnts                                                       
70070000  __stop___llvm_prf_bits                                                        
70070000  __stop___llvm_prf_cnts                                                        
70074000  __BSS_START                                                                   
70074000  __STACK_END                                                                   
70074000  gHwiCtrl                                                                      
70075008  gUdmaDrvObj                                                                   
70076050  gProfileObj                                                                   
70076300  gClockCtrl                                                                    
70076360  gFlashObject_S28HS512T                                                        
70076388  gFlashHandle                                                                  
7007638c  gOspiHandle                                                                   
70076390  gUartHandle                                                                   
70076400  __BSS_END                                                                     
70076400  __IRQ_STACK_START                                                             
70077400  __FIQ_STACK_START                                                             
70077400  __IRQ_STACK_END                                                               
70077500  __FIQ_STACK_END                                                               
70077500  __SVC_STACK_START                                                             
70077600  __ABORT_STACK_START                                                           
70077600  __SVC_STACK_END                                                               
70077700  __ABORT_STACK_END                                                             
70077700  __UNDEFINED_STACK_START                                                       
70077800  __UNDEFINED_STACK_END                                                         
ffffffff  __TI_pprof_out_hndl                                                           
ffffffff  __TI_prof_data_size                                                           
ffffffff  __TI_prof_data_start                                                          
ffffffff  __binit__                                                                     
ffffffff  binit                                                                         
UNDEFED   __TI_CINIT_Base                                                               
UNDEFED   __TI_CINIT_Limit                                                              
UNDEFED   __TI_Handler_Table_Base                                                       
UNDEFED   __TI_Handler_Table_Limit                                                      
UNDEFED   _system_post_cinit                                                            

[704 symbols]
