******************************************************************************
            TI ARM Clang Linker Unix v2.1.2                    
******************************************************************************
>> Linked Tue Nov  7 14:49:48 2023

OUTPUT FILE NAME:   <embedded_kafka.release.out>
ENTRY POINT SYMBOL: "_vectors"  address: 00000000


MEMORY CONFIGURATION

         name            origin    length      used     unused   attr    fill
----------------------  --------  ---------  --------  --------  ----  --------
  R5F_VECS              00000000   00000040  00000040  00000000  RWIX
  R5F_TCMA              00000040   00007fc0  000010d0  00006ef0  RWIX
  R5F_TCMB0             41010000   00008000  00000000  00008000  RWIX
  FLASH                 60180000   00080000  00000000  00080000  RWIX
  MSRAM                 700c0000   00040000  00000000  00040000  RWIX
  USER_SHM_MEM          701d0000   00000080  00000000  00000080  RWIX
  LOG_SHM_MEM           701d0080   00003f80  00003800  00000780  RWIX
  RTOS_NORTOS_IPC_SHM_M 701d4000   0000c000  00008ac0  00003540  RWIX
  DDR_0                 a1100000   00100000  00000000  00100000  RWIX
  DDR_1                 a1200000   00e00000  0003b480  00dc4b80  RWIX


SEGMENT ALLOCATION MAP

run origin  load origin   length   init length attrs members
----------  ----------- ---------- ----------- ----- -------
00000000    00000000    00001110   00001110    r-x
  00000000    00000000    00000040   00000040    r-x .vectors
  00000040    00000040    000008d0   000008d0    r-x .text.hwi
  00000910    00000910    00000450   00000450    r-x .text.cache
  00000d60    00000d60    00000240   00000240    r-x .text.mpu
  00000fa0    00000fa0    00000160   00000160    r-x .text.boot
  00001100    00001100    00000008   00000008    r-x .text:abort
  00001108    00001108    00000008   00000008    r-- .ARM.exidx
a1200000    a1200000    00024c40   00024c40    r-x
  a1200000    a1200000    0001b130   0001b130    r-x .text
  a121b130    a121b130    00009b10   00009b10    r-- .rodata
a1224c40    a1224c40    00014da0   00000000    rw-
  a1224c40    a1224c40    00008da0   00000000    rw- .bss
  a122d9e0    a122d9e0    00008000   00000000    rw- .sysmem
  a12359e0    a12359e0    00004000   00000000    rw- .stack
a12399e0    a12399e0    000006a0   000006a0    rw-
  a12399e0    a12399e0    000006a0   000006a0    rw- .data
a123a080    a123a080    00001400   00000000    r--
  a123a080    a123a080    00000100   00000000    r-- .irqstack
  a123a180    a123a180    00000100   00000000    r-- .fiqstack
  a123a280    a123a280    00001000   00000000    r-- .svcstack
  a123b280    a123b280    00000100   00000000    r-- .abortstack
  a123b380    a123b380    00000100   00000000    r-- .undefinedstack


SECTION ALLOCATION MAP

 output                                  attributes/
section   page    origin      length       input sections
--------  ----  ----------  ----------   ----------------
.vectors   0    00000000    00000040     
                  00000000    00000040     freertos.am64x.r5f.ti-arm-clang.release.lib : HwiP_armv7r_vectors_freertos_asm.obj (.vectors)

.text.hwi 
*          0    00000040    000008d0     
                  00000040    00000452     freertos.am64x.r5f.ti-arm-clang.release.lib : HwiP_armv7r_vim.obj (.text.hwi)
                  00000492    00000002     --HOLE-- [fill = 0]
                  00000494    00000008                                                 : HwiP_armv7r_asm.obj (.tramp.HwiP_enableFIQ.1)
                  0000049c    00000004     --HOLE-- [fill = 0]
                  000004a0    0000020e                                                 : HwiP_armv7r_handlers_freertos.obj (.text.hwi)
                  000006ae    00000002     --HOLE-- [fill = 0]
                  000006b0    000001ec                                                 : portASM.obj (.text.hwi)
                  0000089c    00000070                                                 : HwiP_armv7r_asm.obj (.text.hwi)
                  0000090c    00000004     --HOLE-- [fill = 0]

.text.cache 
*          0    00000910    00000450     
                  00000910    00000340     freertos.am64x.r5f.ti-arm-clang.release.lib : CacheP_armv7r_asm.obj (.text.cache)
                  00000c50    000000f6                                                 : CacheP_armv7r.obj (.text.cache)
                  00000d46    00000002     --HOLE-- [fill = 0]
                  00000d48    00000008                                                 : CacheP_armv7r_asm.obj (.tramp.CacheP_invL1d.1)
                  00000d50    00000008                                                 : HwiP_armv7r_asm.obj (.tramp.HwiP_restore.1)
                  00000d58    00000008                                                 : CacheP_armv7r_asm.obj (.tramp.CacheP_enableL1p.1)

.text.mpu 
*          0    00000d60    00000240     
                  00000d60    000001b4     freertos.am64x.r5f.ti-arm-clang.release.lib : MpuP_armv7r.obj (.text.mpu)
                  00000f14    00000078                                                 : MpuP_armv7r_asm.obj (.text.mpu)
                  00000f8c    00000008                                                 : MpuP_armv7r_asm.obj (.tramp.MpuP_isEnableAsm.1)
                  00000f94    00000008                                                 : HwiP_armv7r_asm.obj (.tramp.HwiP_restore.2)
                  00000f9c    00000004     --HOLE-- [fill = 0]

.text.boot 
*          0    00000fa0    00000160     
                  00000fa0    000000fc     freertos.am64x.r5f.ti-arm-clang.release.lib : boot_armv7r_asm.obj (.text.boot)
                  0000109c    00000004     --HOLE-- [fill = 0]
                  000010a0    0000001e                                                 : DebugP_log.obj (.text.boot)
                  000010be    00000002     --HOLE-- [fill = 0]
                  000010c0    0000000e     ti_dpl_config.obj (.text.boot)
                  000010ce    00000002     --HOLE-- [fill = 0]
                  000010d0    00000008     libc.a : exit.c.obj (.tramp.exit.1)
                  000010d8    0000000c     main.obj (.tramp.main.1)
                  000010e4    00000008     libc.a : autoinit.c.obj (.tramp.__TI_auto_init_nobinit_nopinit.1)
                  000010ec    0000000c     freertos.am64x.r5f.ti-arm-clang.release.lib : boot_armv7r.obj (.tramp._system_pre_init.1)
                  000010f8    00000008     --HOLE-- [fill = 0]

.text:abort 
*          0    00001100    00000008     
                  00001100    00000008     libc.a : exit.c.obj (.text:abort)

.init_array 
*          0    00001110    00000000     UNINITIALIZED

.fini_array 
*          0    00001110    00000000     UNINITIALIZED

.text      0    a1200000    0001b130     
                  a1200000    00000fe8     libc.a : _printfi.c.obj (.text:__TI_printfi)
                  a1200fe8    00000004            : _lock.c.obj (.text._nop)
                  a1200fec    00000004            : fprintf.c.obj (.text._outc)
                  a1200ff0    000007cc     Configurer.obj (.text._ZN8nlohmann16json_abi_v3_11_26detail10serializerINS0_10basic_jsonINSt3__13mapENS4_6vectorENS4_12basic_stringIcNS4_11char_traitsIcEENS4_9allocatorIcEEEEbxydSA_NS0_14adl_serializerENS6_IhNSA_IhEEEEvEEE4dumpERKSG_bbjj)
                  a12017bc    00000004     libc.a : fprintf.c.obj (.text._outs)
                  a12017c0    000005aa     Configurer.obj (.text._ZN8nlohmann16json_abi_v3_11_26detail5lexerINS0_10basic_jsonINSt3__13mapENS4_6vectorENS4_12basic_stringIcNS4_11char_traitsIcEENS4_9allocatorIcEEEEbxydSA_NS0_14adl_serializerENS6_IhNSA_IhEEEEvEENS1_22iterator_input_adapterIPcEEE11scan_stringEv)
                  a1201d6a    00000002     --HOLE-- [fill = 0]
                  a1201d6c    00000004     libc.a : fseek.c.obj (.text.fseek)
                  a1201d70    00000596     freertos.am64x.r5f.ti-arm-clang.release.lib : printf.obj (.text._vsnprintf)
                  a1202306    00000002     --HOLE-- [fill = 0]
                  a1202308    00000004     libsysbm.a : remove.c.obj (.text.remove)
                  a120230c    00000004     libclang_rt.builtins.a : aeabi_memcpy.S.obj (.text)
                  a1202310    000004e8     drivers.am64x.r5f.ti-arm-clang.release.lib : uart_v0.obj (.text.UART_open)
                  a12027f8    00000004     libclang_rt.builtins.a : aeabi_memmove.S.obj (.text)
                  a12027fc    00000004     --HOLE-- [fill = 0]
                  a1202800    000004cc     libc++.a : string.cpp.obj (.text._ZNSt3__112_GLOBAL__N_117as_integer_helperIlNS_12basic_stringIcNS_11char_traitsIcEENS_9allocatorIcEEEEPFlPKcPPciEEET_RKS7_RKT0_PjiT1_)
                  a1202ccc    00000004     --HOLE-- [fill = 0]
                  a1202cd0    000004cc     libc.a : strtod.c.obj (.text.strtod)
                  a120319c    00000004     --HOLE-- [fill = 0]
                  a12031a0    00000478     Configurer.obj (.text._ZN8nlohmann16json_abi_v3_11_26detail6parserINS0_10basic_jsonINSt3__13mapENS4_6vectorENS4_12basic_stringIcNS4_11char_traitsIcEENS4_9allocatorIcEEEEbxydSA_NS0_14adl_serializerENS6_IhNSA_IhEEEEvEENS1_22iterator_input_adapterIPcEEE18sax_parse_internalINS1_28json_sax_dom_callback_parserISG_EEEEbPT_)
                  a1203618    00000008     libc++.a : string.cpp.obj (.tramp._ZNSt3__112basic_stringIcNS_11char_traitsIcEENS_9allocatorIcEEEC1ERKS5_.1)
                  a1203620    0000045c     Configurer.obj (.text._ZN8nlohmann16json_abi_v3_11_26detail6parserINS0_10basic_jsonINSt3__13mapENS4_6vectorENS4_12basic_stringIcNS4_11char_traitsIcEENS4_9allocatorIcEEEEbxydSA_NS0_14adl_serializerENS6_IhNSA_IhEEEEvEENS1_22iterator_input_adapterIPcEEE18sax_parse_internalINS1_19json_sax_dom_parserISG_EEEEbPT_)
                  a1203a7c    00000004     --HOLE-- [fill = 0]
                  a1203a80    000003b0     Configurer.obj (.text._ZN8nlohmann16json_abi_v3_11_26detail9dtoa_impl16grisu2_digit_genEPcRiS4_NS2_5diyfpES5_S5_)
                  a1203e30    00000390     Configurer.obj (.text._ZN8nlohmann16json_abi_v3_11_210basic_jsonINSt3__13mapENS2_6vectorENS2_12basic_stringIcNS2_11char_traitsIcEENS2_9allocatorIcEEEEbxydS8_NS0_14adl_serializerENS4_IhNS8_IhEEEEvE10json_value7destroyENS0_6detail7value_tE)
                  a12041c0    00000388     freertos.am64x.r5f.ti-arm-clang.release.lib : printf.obj (.text._ftoa)
                  a1204548    00000008     libc++abi.a : stdlib_stdexcept.cpp.obj (.tramp._ZNKSt13runtime_error4whatEv.1)
                  a1204550    0000037e     drivers.am64x.r5f.ti-arm-clang.release.lib : sciclient.obj (.text.Sciclient_service)
                  a12048ce    00000002     --HOLE-- [fill = 0]
                  a12048d0    00000372                                                : ipc_notify_v0.obj (.text.IpcNotify_init)
                  a1204c42    00000002     --HOLE-- [fill = 0]
                  a1204c44    0000000c     libc.a : aeabi_portable.c.obj (.text.__aeabi_errno_addr)
                  a1204c50    0000035e     Broker.obj (.text._ZN6Broker15handleOperationEPKcP8Endpoint)
                  a1204fae    00000002     --HOLE-- [fill = 0]
                  a1204fb0    00000354     libc++.a : charconv.cpp.obj (.text._ZNSt3__16__itoa8__u32toaEjPc)
                  a1205304    0000000c     libc.a : setlocale.c.obj (.text.localeconv)
                  a1205310    00000310     freertos.am64x.r5f.ti-arm-clang.release.lib : printf.obj (.text._etoa)
                  a1205620    000002d0     Configurer.obj (.text._ZN8nlohmann16json_abi_v3_11_26detail5lexerINS0_10basic_jsonINSt3__13mapENS4_6vectorENS4_12basic_stringIcNS4_11char_traitsIcEENS4_9allocatorIcEEEEbxydSA_NS0_14adl_serializerENS6_IhNSA_IhEEEEvEENS1_22iterator_input_adapterIPcEEE11scan_numberEv)
                  a12058f0    000002b8     Broker.obj (.text._ZN6Broker12askForTopicsEv)
                  a1205ba8    00000008     libc++.a : string.cpp.obj (.tramp._ZNSt3__112basic_stringIcNS_11char_traitsIcEENS_9allocatorIcEEE6appendEPKcj.1)
                  a1205bb0    000002ac     Configurer.obj (.text._ZN8nlohmann16json_abi_v3_11_26detail6parserINS0_10basic_jsonINSt3__13mapENS4_6vectorENS4_12basic_stringIcNS4_11char_traitsIcEENS4_9allocatorIcEEEEbxydSA_NS0_14adl_serializerENS6_IhNSA_IhEEEEvEENS1_22iterator_input_adapterIPcEEE5parseEbRSG_)
                  a1205e5c    00000004     --HOLE-- [fill = 0]
                  a1205e60    000002a6     Configurer.obj (.text._ZN8nlohmann16json_abi_v3_11_26detail10serializerINS0_10basic_jsonINSt3__13mapENS4_6vectorENS4_12basic_stringIcNS4_11char_traitsIcEENS4_9allocatorIcEEEEbxydSA_NS0_14adl_serializerENS6_IhNSA_IhEEEEvEEE12dump_escapedERKSC_b)
                  a1206106    00000002     --HOLE-- [fill = 0]
                  a1206108    0000028c     libc.a : strtoll.c.obj (.text.strtoll)
                  a1206394    00000004     --HOLE-- [fill = 0]
                  a1206398    00000278            : _printfi.c.obj (.text._pconv_a)
                  a1206610    00000242     Configurer.obj (.text._ZNSt3__113__tree_removeIPNS_16__tree_node_baseIPvEEEEvT_S5_)
                  a1206852    00000006     --HOLE-- [fill = 0]
                  a1206858    00000230     libc.a : _printfi.c.obj (.text._pconv_g)
                  a1206a88    00000230            : strtoull.c.obj (.text.strtoull)
                  a1206cb8    00000008     libc++.a : string.cpp.obj (.tramp._ZNSt3__112basic_stringIcNS_11char_traitsIcEENS_9allocatorIcEEE9push_backEc.1)
                  a1206cc0    0000021e     freertos.am64x.r5f.ti-arm-clang.release.lib : timers.obj (.text.prvTimerTask)
                  a1206ede    00000002     --HOLE-- [fill = 0]
                  a1206ee0    0000021a     drivers.am64x.r5f.ti-arm-clang.release.lib : uart_v0.obj (.text.UART_masterIsr)
                  a12070fa    00000006     --HOLE-- [fill = 0]
                  a1207100    00000218     embedded_kafka.obj (.text._Z8produceriiNSt3__112basic_stringIcNS_11char_traitsIcEENS_9allocatorIcEEEE)
                  a1207318    00000008     libc++.a : memory.cpp.obj (.tramp._ZNSt3__119__shared_weak_countD2Ev.1)
                  a1207320    00000210     SystemManager.obj (.text._ZN13SystemManager4initEv)
                  a1207530    00000210     libc++abi.a : private_typeinfo.cpp.obj (.text._ZNK10__cxxabiv120__si_class_type_info16search_below_dstEPNS_19__dynamic_cast_infoEPKvib)
                  a1207740    0000020a     Configurer.obj (.text._ZN8nlohmann16json_abi_v3_11_26detail6parserINS0_10basic_jsonINSt3__13mapENS4_6vectorENS4_12basic_stringIcNS4_11char_traitsIcEENS4_9allocatorIcEEEEbxydSA_NS0_14adl_serializerENS6_IhNSA_IhEEEEvEENS1_22iterator_input_adapterIPcEEE17exception_messageENS1_10lexer_baseISG_E10token_typeERKSC_)
                  a120794a    00000006     --HOLE-- [fill = 0]
                  a1207950    00000208     libc++.a : string.cpp.obj (.text._ZNSt3__112basic_stringIcNS_11char_traitsIcEENS_9allocatorIcEEEaSERKS5_)
                  a1207b58    00000208     libc.a : strtol.c.obj (.text.strtol)
                  a1207d60    00000204     Configurer.obj (.text._ZN8nlohmann16json_abi_v3_11_26detail10serializerINS0_10basic_jsonINSt3__13mapENS4_6vectorENS4_12basic_stringIcNS4_11char_traitsIcEENS4_9allocatorIcEEEEbxydSA_NS0_14adl_serializerENS6_IhNSA_IhEEEEvEEE12dump_integerIxLi0EEEvT_)
                  a1207f64    0000000c     libc.a : memory.c.obj (.text.malloc)
                  a1207f70    000001fe     drivers.am64x.r5f.ti-arm-clang.release.lib : uart_v0.obj (.text.UART_write)
                  a120816e    00000002     --HOLE-- [fill = 0]
                  a1208170    000001fe     Configurer.obj (.text._ZN8nlohmann16json_abi_v3_11_26detail28json_sax_dom_callback_parserINS0_10basic_jsonINSt3__13mapENS4_6vectorENS4_12basic_stringIcNS4_11char_traitsIcEENS4_9allocatorIcEEEEbxydSA_NS0_14adl_serializerENS6_IhNSA_IhEEEEvEEE12handle_valueIRSC_EENS4_4pairIbPSG_EEOT_b)
                  a120836e    00000002     --HOLE-- [fill = 0]
                  a1208370    000001fc     Configurer.obj (.text._ZN8nlohmann16json_abi_v3_11_26detail28json_sax_dom_callback_parserINS0_10basic_jsonINSt3__13mapENS4_6vectorENS4_12basic_stringIcNS4_11char_traitsIcEENS4_9allocatorIcEEEEbxydSA_NS0_14adl_serializerENS6_IhNSA_IhEEEEvEEE12handle_valueIDnEENS4_4pairIbPSG_EEOT_b)
                  a120856c    00000004     --HOLE-- [fill = 0]
                  a1208570    000001fa     Configurer.obj (.text._ZN8nlohmann16json_abi_v3_11_26detail28json_sax_dom_callback_parserINS0_10basic_jsonINSt3__13mapENS4_6vectorENS4_12basic_stringIcNS4_11char_traitsIcEENS4_9allocatorIcEEEEbxydSA_NS0_14adl_serializerENS6_IhNSA_IhEEEEvEEE12handle_valueINS1_7value_tEEENS4_4pairIbPSG_EEOT_b)
                  a120876a    00000006     --HOLE-- [fill = 0]
                  a1208770    000001f6     BrokerMetadata.obj (.text._ZN14BrokerMetadata9from_jsonERKN8nlohmann16json_abi_v3_11_210basic_jsonINSt3__13mapENS3_6vectorENS3_12basic_stringIcNS3_11char_traitsIcEENS3_9allocatorIcEEEEbxydS9_NS1_14adl_serializerENS5_IhNS9_IhEEEEvEE)
                  a1208966    00000002     --HOLE-- [fill = 0]
                  a1208968    00000008     libc++.a : string.cpp.obj (.tramp._ZNSt3__112basic_stringIcNS_11char_traitsIcEENS_9allocatorIcEEEaSERKS5_.1)
                  a1208970    000001f0     libc++abi.a : private_typeinfo.cpp.obj (.text._ZNK10__cxxabiv117__class_type_info9can_catchEPKNS_16__shim_type_infoERPv)
                  a1208b60    000001ec     Configurer.obj (.text._ZN8nlohmann16json_abi_v3_11_26detail28json_sax_dom_callback_parserINS0_10basic_jsonINSt3__13mapENS4_6vectorENS4_12basic_stringIcNS4_11char_traitsIcEENS4_9allocatorIcEEEEbxydSA_NS0_14adl_serializerENS6_IhNSA_IhEEEEvEEE12handle_valueIRbEENS4_4pairIbPSG_EEOT_b)
                  a1208d4c    00000004     --HOLE-- [fill = 0]
                  a1208d50    000001ec     Configurer.obj (.text._ZN8nlohmann16json_abi_v3_11_26detail28json_sax_dom_callback_parserINS0_10basic_jsonINSt3__13mapENS4_6vectorENS4_12basic_stringIcNS4_11char_traitsIcEENS4_9allocatorIcEEEEbxydSA_NS0_14adl_serializerENS6_IhNSA_IhEEEEvEEE12handle_valueIRdEENS4_4pairIbPSG_EEOT_b)
                  a1208f3c    00000004     --HOLE-- [fill = 0]
                  a1208f40    000001ec     Configurer.obj (.text._ZN8nlohmann16json_abi_v3_11_26detail28json_sax_dom_callback_parserINS0_10basic_jsonINSt3__13mapENS4_6vectorENS4_12basic_stringIcNS4_11char_traitsIcEENS4_9allocatorIcEEEEbxydSA_NS0_14adl_serializerENS6_IhNSA_IhEEEEvEEE12handle_valueIRxEENS4_4pairIbPSG_EEOT_b)
                  a120912c    00000004     --HOLE-- [fill = 0]
                  a1209130    000001ec     Configurer.obj (.text._ZN8nlohmann16json_abi_v3_11_26detail28json_sax_dom_callback_parserINS0_10basic_jsonINSt3__13mapENS4_6vectorENS4_12basic_stringIcNS4_11char_traitsIcEENS4_9allocatorIcEEEEbxydSA_NS0_14adl_serializerENS6_IhNSA_IhEEEEvEEE12handle_valueIRyEENS4_4pairIbPSG_EEOT_b)
                  a120931c    00000004     --HOLE-- [fill = 0]
                  a1209320    000001e8     TopicHandler.obj (.text._ZN12TopicHandler4saveE6Record13TopicMetadata16ProducerMetadata)
                  a1209508    00000008     freertos.am64x.r5f.ti-arm-clang.release.lib : portASM.obj (.tramp.vPortRestoreTaskContext.1)
                  a1209510    000001de     TopicFactory.obj (.text._ZN12TopicFactory12createTopicsEv)
                  a12096ee    00000002     --HOLE-- [fill = 0]
                  a12096f0    000001dc     Configurer.obj (.text._ZN8nlohmann16json_abi_v3_11_26detail9dtoa_impl13format_bufferEPciiii)
                  a12098cc    00000004     --HOLE-- [fill = 0]
                  a12098d0    000001da     Message.obj (.text._Z18DeserializeMessageRKNSt3__112basic_stringIcNS_11char_traitsIcEENS_9allocatorIcEEEE)
                  a1209aaa    00000002     --HOLE-- [fill = 0]
                  a1209aac    000001d0     libclang_rt.builtins.a : udivsi3.S.obj (.text)
                  a1209c7c    00000004     --HOLE-- [fill = 0]
                  a1209c80    000001cc     Configurer.obj (.text._ZNSt3__116__copy_unalignedINS_6vectorIbNS_9allocatorIbEEEELb0EEENS_14__bit_iteratorIT_Lb0ELi0EEENS5_IS6_XT0_ELi0EEES8_S7_)
                  a1209e4c    00000004     --HOLE-- [fill = 0]
                  a1209e50    000001cc     freertos.am64x.r5f.ti-arm-clang.release.lib : queue.obj (.text.xQueueSemaphoreTake)
                  a120a01c    00000004     --HOLE-- [fill = 0]
                  a120a020    000001ca     embedded_kafka.obj (.text._Z8consumeriiNSt3__112basic_stringIcNS_11char_traitsIcEENS_9allocatorIcEEEE)
                  a120a1ea    00000006     --HOLE-- [fill = 0]
                  a120a1f0    000001c6     UDPEndpoint.obj (.text._ZNK11UDPEndpoint7to_jsonERN8nlohmann16json_abi_v3_11_210basic_jsonINSt3__13mapENS3_6vectorENS3_12basic_stringIcNS3_11char_traitsIcEENS3_9allocatorIcEEEEbxydS9_NS1_14adl_serializerENS5_IhNS9_IhEEEEvEE)
                  a120a3b6    00000002     --HOLE-- [fill = 0]
                  a120a3b8    00000008     libc++abi.a : stdlib_exception.cpp.obj (.tramp._ZNSt9exceptionD2Ev.1)
                  a120a3c0    000001c0     freertos.am64x.r5f.ti-arm-clang.release.lib : TimerP.obj (.text.TimerP_setup)
                  a120a580    000001b8     TopicProxy.obj (.text._ZN10TopicProxy4pollE16ConsumerMetadata)
                  a120a738    00000008     freertos.am64x.r5f.ti-arm-clang.release.lib : HwiP_armv7r_asm.obj (.tramp.HwiP_enable.1)
                  a120a740    000001b8     libc++.a : string.cpp.obj (.text._ZNSt3__112basic_stringIcNS_11char_traitsIcEENS_9allocatorIcEEE6resizeEjc)
                  a120a8f8    000001b8     libc.a : memory.c.obj (.text.aligned_alloc)
                  a120aab0    000001b8            : memory.c.obj (.text.free)
                  a120ac68    00000008     freertos.am64x.r5f.ti-arm-clang.release.lib : HwiP_armv7r_vim.obj (.tramp.HwiP_init.1)
                  a120ac70    000001b4     RPMessageEndpoint.obj (.text._ZNK17RPMessageEndpoint7to_jsonERN8nlohmann16json_abi_v3_11_210basic_jsonINSt3__13mapENS3_6vectorENS3_12basic_stringIcNS3_11char_traitsIcEENS3_9allocatorIcEEEEbxydS9_NS1_14adl_serializerENS5_IhNS9_IhEEEEvEE)
                  a120ae24    00000008     freertos.am64x.r5f.ti-arm-clang.release.lib : PmuP_armv7r_asm.obj (.tramp.PmuP_enableCounters.1)
                  a120ae2c    00000004     --HOLE-- [fill = 0]
                  a120ae30    000001ae                                                 : queue.obj (.text.xQueueGenericSend)
                  a120afde    00000002     --HOLE-- [fill = 0]
                  a120afe0    000001a8     libc++.a : string.cpp.obj (.text._ZNSt3__112basic_stringIcNS_11char_traitsIcEENS_9allocatorIcEEE6appendEPKc)
                  a120b188    000001a4     libc.a : fputs.c.obj (.text.fputs)
                  a120b32c    00000004     --HOLE-- [fill = 0]
                  a120b330    0000019e     Message.obj (.text._Z16SerializeMessageRK7Message)
                  a120b4ce    00000002     --HOLE-- [fill = 0]
                  a120b4d0    00000198     libc++.a : string.cpp.obj (.text._ZNSt3__112basic_stringIcNS_11char_traitsIcEENS_9allocatorIcEEE6appendEPKcj)
                  a120b668    00000008     libc++abi.a : stdlib_new_delete.cpp.obj (.tramp._ZdlPv.1)
                  a120b670    00000184     freertos.am64x.r5f.ti-arm-clang.release.lib : queue.obj (.text.xQueueReceive)
                  a120b7f4    00000008                                                 : HwiP_armv7r_vim.obj (.tramp.HwiP_inISR.1)
                  a120b7fc    00000004     --HOLE-- [fill = 0]
                  a120b800    00000176     ClusterMetadata.obj (.text._ZN15ClusterMetadata9from_jsonERKN8nlohmann16json_abi_v3_11_210basic_jsonINSt3__13mapENS3_6vectorENS3_12basic_stringIcNS3_11char_traitsIcEENS3_9allocatorIcEEEEbxydS9_NS1_14adl_serializerENS5_IhNS9_IhEEEEvEE)
                  a120b976    00000002     --HOLE-- [fill = 0]
                  a120b978    00000008     freertos.am64x.r5f.ti-arm-clang.release.lib : DebugP_log.obj (.tramp._DebugP_assertNoLog.1)
                  a120b980    00000174     Configurer.obj (.text._ZN8nlohmann16json_abi_v3_11_26detail28json_sax_dom_callback_parserINS0_10basic_jsonINSt3__13mapENS4_6vectorENS4_12basic_stringIcNS4_11char_traitsIcEENS4_9allocatorIcEEEEbxydSA_NS0_14adl_serializerENS6_IhNSA_IhEEEEvEEE10end_objectEv)
                  a120baf4    00000008     freertos.am64x.r5f.ti-arm-clang.release.lib : HwiP_armv7r_vim.obj (.tramp.HwiP_destruct.1)
                  a120bafc    00000004     --HOLE-- [fill = 0]
                  a120bb00    00000168     SystemManager.obj (.text._ZN13SystemManager8askForIDEv)
                  a120bc68    00000008     freertos.am64x.r5f.ti-arm-clang.release.lib : HwiP_armv7r_asm.obj (.tramp.HwiP_restore.3)
                  a120bc70    00000168     libc++.a : string.cpp.obj (.text._ZNSt3__112basic_stringIcNS_11char_traitsIcEENS_9allocatorIcEEE7reserveEj)
                  a120bdd8    00000008     freertos.am64x.r5f.ti-arm-clang.release.lib : HwiP_armv7r_asm.obj (.tramp.HwiP_disable.1)
                  a120bde0    00000164     Configurer.obj (.text._ZN8nlohmann16json_abi_v3_11_26detail9dtoa_impl12grisu2_roundEPciyyyy)
                  a120bf44    00000008     libc.a : exit.c.obj (.tramp.abort.1)
                  a120bf4c    00000004     --HOLE-- [fill = 0]
                  a120bf50    00000162     TopicHandler.obj (.text._ZN12TopicHandler4pollE16ConsumerMetadata13TopicMetadata)
                  a120c0b2    00000002     --HOLE-- [fill = 0]
                  a120c0b4    00000008     freertos.am64x.r5f.ti-arm-clang.release.lib : HwiP_armv7r_vim.obj (.tramp.HwiP_construct.1)
                  a120c0bc    00000004     --HOLE-- [fill = 0]
                  a120c0c0    0000015e                                                 : tasks.obj (.text.xTaskIncrementTick)
                  a120c21e    00000002     --HOLE-- [fill = 0]
                  a120c220    0000015c     Configurer.obj (.text._ZN8nlohmann16json_abi_v3_11_26detail10serializerINS0_10basic_jsonINSt3__13mapENS4_6vectorENS4_12basic_stringIcNS4_11char_traitsIcEENS4_9allocatorIcEEEEbxydSA_NS0_14adl_serializerENS6_IhNSA_IhEEEEvEEE12dump_integerIyLi0EEEvT_)
                  a120c37c    00000004     --HOLE-- [fill = 0]
                  a120c380    00000158     libc++.a : string.cpp.obj (.text._ZNSt3__112basic_stringIcNS_11char_traitsIcEENS_9allocatorIcEEE6assignEPKc)
                  a120c4d8    00000008     freertos.am64x.r5f.ti-arm-clang.release.lib : HwiP_armv7r_vim.obj (.tramp.HwiP_Params_init.1)
                  a120c4e0    00000154     libc++abi.a : private_typeinfo.cpp.obj (.text._ZNK10__cxxabiv117__class_type_info16search_below_dstEPNS_19__dynamic_cast_infoEPKvib)
                  a120c634    00000008     libc.a : aeabi_portable.c.obj (.tramp.__aeabi_assert.1)
                  a120c63c    00000004     --HOLE-- [fill = 0]
                  a120c640    00000150     Configurer.obj (.text._ZN8nlohmann16json_abi_v3_11_26detail5lexerINS0_10basic_jsonINSt3__13mapENS4_6vectorENS4_12basic_stringIcNS4_11char_traitsIcEENS4_9allocatorIcEEEEbxydSA_NS0_14adl_serializerENS6_IhNSA_IhEEEEvEENS1_22iterator_input_adapterIPcEEE4scanEv)
                  a120c790    0000014c     Configurer.obj (.text._ZN8nlohmann16json_abi_v3_11_26detail19json_sax_dom_parserINS0_10basic_jsonINSt3__13mapENS4_6vectorENS4_12basic_stringIcNS4_11char_traitsIcEENS4_9allocatorIcEEEEbxydSA_NS0_14adl_serializerENS6_IhNSA_IhEEEEvEEE12handle_valueIRbEEPSG_OT_)
                  a120c8dc    00000004     --HOLE-- [fill = 0]
                  a120c8e0    0000014c     Configurer.obj (.text._ZN8nlohmann16json_abi_v3_11_26detail19json_sax_dom_parserINS0_10basic_jsonINSt3__13mapENS4_6vectorENS4_12basic_stringIcNS4_11char_traitsIcEENS4_9allocatorIcEEEEbxydSA_NS0_14adl_serializerENS6_IhNSA_IhEEEEvEEE12handle_valueIRdEEPSG_OT_)
                  a120ca2c    00000004     --HOLE-- [fill = 0]
                  a120ca30    0000014c     Configurer.obj (.text._ZN8nlohmann16json_abi_v3_11_26detail19json_sax_dom_parserINS0_10basic_jsonINSt3__13mapENS4_6vectorENS4_12basic_stringIcNS4_11char_traitsIcEENS4_9allocatorIcEEEEbxydSA_NS0_14adl_serializerENS6_IhNSA_IhEEEEvEEE12handle_valueIRxEEPSG_OT_)
                  a120cb7c    00000004     --HOLE-- [fill = 0]
                  a120cb80    0000014c     Configurer.obj (.text._ZN8nlohmann16json_abi_v3_11_26detail19json_sax_dom_parserINS0_10basic_jsonINSt3__13mapENS4_6vectorENS4_12basic_stringIcNS4_11char_traitsIcEENS4_9allocatorIcEEEEbxydSA_NS0_14adl_serializerENS6_IhNSA_IhEEEEvEEE12handle_valueIRyEEPSG_OT_)
                  a120cccc    00000004     --HOLE-- [fill = 0]
                  a120ccd0    00000148     libc.a : _printfi.c.obj (.text.fcvt)
                  a120ce18    00000008     --HOLE-- [fill = 0]
                  a120ce20    00000146     drivers.am64x.r5f.ti-arm-clang.release.lib : uart_v0.obj (.text.UART_close)
                  a120cf66    00000002     --HOLE-- [fill = 0]
                  a120cf68    00000144     libc.a : setvbuf.c.obj (.text.setvbuf)
                  a120d0ac    00000004     --HOLE-- [fill = 0]
                  a120d0b0    00000140            : s_scalbn.c.obj (.text.scalbn)
                  a120d1f0    00000140     freertos.am64x.r5f.ti-arm-clang.release.lib : tasks.obj (.text.xTaskResumeAll)
                  a120d330    0000013c     Configurer.obj (.text._ZN8nlohmann16json_abi_v3_11_26detail9dtoa_impl6grisu2EPcRiS4_NS2_5diyfpES5_S5_)
                  a120d46c    00000004     --HOLE-- [fill = 0]
                  a120d470    00000138     Configurer.obj (.text._ZN8nlohmann16json_abi_v3_11_26detail8to_charsIdEEPcS3_PKcT_)
                  a120d5a8    00000138     libc.a : _printfi.c.obj (.text._pconv_e)
                  a120d6e0    00000136     freertos.am64x.r5f.ti-arm-clang.release.lib : ClockP_freertos_r5.obj (.text.ClockP_init)
                  a120d816    0000000a     --HOLE-- [fill = 0]
                  a120d820    00000136     drivers.am64x.r5f.ti-arm-clang.release.lib : ipc_rpmsg.obj (.text.RPMessage_recv)
                  a120d956    0000000a     --HOLE-- [fill = 0]
                  a120d960    00000132     Configurer.obj (.text._ZNSt3__127__tree_balance_after_insertIPNS_16__tree_node_baseIPvEEEEvT_S5_)
                  a120da92    0000000e     --HOLE-- [fill = 0]
                  a120daa0    00000132     freertos.am64x.r5f.ti-arm-clang.release.lib : printf.obj (.text._ntoa_format)
                  a120dbd2    0000000e     --HOLE-- [fill = 0]
                  a120dbe0    00000130     Configurer.obj (.text._ZN8nlohmann16json_abi_v3_11_26detail12out_of_range6createIDnLi0EEES2_iRKNSt3__112basic_stringIcNS4_11char_traitsIcEENS4_9allocatorIcEEEET_)
                  a120dd10    0000012a     drivers.am64x.r5f.ti-arm-clang.release.lib : soc.obj (.text.SOC_moduleSetClockFrequency)
                  a120de3a    00000006     --HOLE-- [fill = 0]
                  a120de40    00000128     libc++abi.a : private_typeinfo.cpp.obj (.text._ZNK10__cxxabiv120__si_class_type_info16search_above_dstEPNS_19__dynamic_cast_infoEPKvS4_ib)
                  a120df68    00000008     --HOLE-- [fill = 0]
                  a120df70    00000128     libc++.a : string.cpp.obj (.text._ZNSt3__19to_stringEi)
                  a120e098    00000008     --HOLE-- [fill = 0]
                  a120e0a0    00000128     freertos.am64x.r5f.ti-arm-clang.release.lib : tasks.obj (.text.vTaskSwitchContext)
                  a120e1c8    00000008     --HOLE-- [fill = 0]
                  a120e1d0    00000126                                                 : queue.obj (.text.xQueueGenericSendFromISR)
                  a120e2f6    0000000a     --HOLE-- [fill = 0]
                  a120e300    00000120     Configurer.obj (.text._ZN8nlohmann16json_abi_v3_11_26detail9dtoa_impl18compute_boundariesIdEENS2_10boundariesET_)
                  a120e420    00000118     libclang_rt.builtins.a : udivmoddi4.S.obj (.text)
                  a120e538    00000008     --HOLE-- [fill = 0]
                  a120e540    00000114     libc++abi.a : private_typeinfo.cpp.obj (.text._ZNK10__cxxabiv117__class_type_info16search_above_dstEPNS_19__dynamic_cast_infoEPKvS4_ib)
                  a120e654    0000000c     --HOLE-- [fill = 0]
                  a120e660    00000112     Configurer.obj (.text._ZN8nlohmann16json_abi_v3_11_26detail9dtoa_impl36get_cached_power_for_binary_exponentEi)
                  a120e772    0000000e     --HOLE-- [fill = 0]
                  a120e780    00000112     freertos.am64x.r5f.ti-arm-clang.release.lib : tasks.obj (.text.prvAddNewTaskToReadyList)
                  a120e892    0000000e     --HOLE-- [fill = 0]
                  a120e8a0    0000010c     drivers.am64x.r5f.ti-arm-clang.release.lib : ipc_rpmsg.obj (.text.RPMessage_recvHandler)
                  a120e9ac    00000004     --HOLE-- [fill = 0]
                  a120e9b0    0000010c     Configurer.obj (.text._ZN8nlohmann16json_abi_v3_11_26detail19json_sax_dom_parserINS0_10basic_jsonINSt3__13mapENS4_6vectorENS4_12basic_stringIcNS4_11char_traitsIcEENS4_9allocatorIcEEEEbxydSA_NS0_14adl_serializerENS6_IhNSA_IhEEEEvEEE12handle_valueIRSC_EEPSG_OT_)
                  a120eabc    00000004     --HOLE-- [fill = 0]
                  a120eac0    00000108     Configurer.obj (.text._ZN8nlohmann16json_abi_v3_11_26detail19json_sax_dom_parserINS0_10basic_jsonINSt3__13mapENS4_6vectorENS4_12basic_stringIcNS4_11char_traitsIcEENS4_9allocatorIcEEEEbxydSA_NS0_14adl_serializerENS6_IhNSA_IhEEEEvEEE12handle_valueIDnEEPSG_OT_)
                  a120ebc8    00000008     --HOLE-- [fill = 0]
                  a120ebd0    00000108     libc++.a : string.cpp.obj (.text._ZNSt3__112basic_stringIcNS_11char_traitsIcEENS_9allocatorIcEEE5eraseEjj)
                  a120ecd8    00000008     --HOLE-- [fill = 0]
                  a120ece0    00000106     freertos.am64x.r5f.ti-arm-clang.release.lib : queue.obj (.text.xQueueGiveFromISR)
                  a120ede6    0000000a     --HOLE-- [fill = 0]
                  a120edf0    00000102     ti_drivers_config.obj (.text.System_init)
                  a120eef2    0000000e     --HOLE-- [fill = 0]
                  a120ef00    00000100     drivers.am64x.r5f.ti-arm-clang.release.lib : ipc_rpmsg.obj (.text.RPMessage_send)
                  a120f000    00000100     Configurer.obj (.text._ZN8nlohmann16json_abi_v3_11_26detail19json_sax_dom_parserINS0_10basic_jsonINSt3__13mapENS4_6vectorENS4_12basic_stringIcNS4_11char_traitsIcEENS4_9allocatorIcEEEEbxydSA_NS0_14adl_serializerENS6_IhNSA_IhEEEEvEEE12handle_valueINS1_7value_tEEEPSG_OT_)
                  a120f100    00000100     Configurer.obj (.text._ZN8nlohmann16json_abi_v3_11_26detail28json_sax_dom_callback_parserINS0_10basic_jsonINSt3__13mapENS4_6vectorENS4_12basic_stringIcNS4_11char_traitsIcEENS4_9allocatorIcEEEEbxydSA_NS0_14adl_serializerENS6_IhNSA_IhEEEEvEEE11start_arrayEj)
                  a120f200    000000fe     Configurer.obj (.text._ZN8nlohmann16json_abi_v3_11_26detail28json_sax_dom_callback_parserINS0_10basic_jsonINSt3__13mapENS4_6vectorENS4_12basic_stringIcNS4_11char_traitsIcEENS4_9allocatorIcEEEEbxydSA_NS0_14adl_serializerENS6_IhNSA_IhEEEEvEEE12start_objectEj)
                  a120f2fe    00000002     --HOLE-- [fill = 0]
                  a120f300    000000fe     Configurer.obj (.text._ZNSt3__16__treeINS_12__value_typeINS_12basic_stringIcNS_11char_traitsIcEENS_9allocatorIcEEEEN8nlohmann16json_abi_v3_11_210basic_jsonINS_3mapENS_6vectorES7_bxydS5_NS9_14adl_serializerENSC_IhNS5_IhEEEEvEEEENS_19__map_value_compareIS7_SH_NS_4lessIvEELb1EEENS5_ISH_EEE12__find_equalIS7_EERPNS_16__tree_node_baseIPvEENS_21__tree_const_iteratorISH_PNS_11__tree_nodeISH_SQ_EEiEERPNS_15__tree_end_nodeISS_EEST_RKT_)
                  a120f3fe    00000002     --HOLE-- [fill = 0]
                  a120f400    000000fc     Configurer.obj (.text._ZN8nlohmann16json_abi_v3_11_210basic_jsonINSt3__13mapENS2_6vectorENS2_12basic_stringIcNS2_11char_traitsIcEENS2_9allocatorIcEEEEbxydS8_NS0_14adl_serializerENS4_IhNS8_IhEEEEvE5eraseINS0_6detail9iter_implISE_EELi0EEET_SJ_)
                  a120f4fc    00000004     --HOLE-- [fill = 0]
                  a120f500    000000fc     Configurer.obj (.text._ZN8nlohmann16json_abi_v3_11_26detail6concatINSt3__112basic_stringIcNS3_11char_traitsIcEENS3_9allocatorIcEEEEJS9_RA12_KcS9_RA3_SA_S9_RKS9_EEET_DpOT0_)
                  a120f5fc    00000004     --HOLE-- [fill = 0]
                  a120f600    000000fc     freertos.am64x.r5f.ti-arm-clang.release.lib : queue.obj (.text.xQueueGenericCreateStatic)
                  a120f6fc    00000004     --HOLE-- [fill = 0]
                  a120f700    000000fa                                                 : queue.obj (.text.xQueueReceiveFromISR)
                  a120f7fa    00000006     --HOLE-- [fill = 0]
                  a120f800    000000f8     TopicProxy.obj (.text._ZN10TopicProxy7publishE16ProducerMetadata6Record)
                  a120f8f8    00000008     --HOLE-- [fill = 0]
                  a120f900    000000f8     libc++.a : string.cpp.obj (.text._ZNSt3__112basic_stringIcNS_11char_traitsIcEENS_9allocatorIcEEE9push_backEc)
                  a120f9f8    00000008     --HOLE-- [fill = 0]
                  a120fa00    000000ee     Record.obj (.text._ZN8nlohmann16json_abi_v3_11_210basic_jsonINSt3__13mapENS2_6vectorENS2_12basic_stringIcNS2_11char_traitsIcEENS2_9allocatorIcEEEEbxydS8_NS0_14adl_serializerENS4_IhNS8_IhEEEEvEC2ESt16initializer_listINS0_6detail8json_refISE_EEEbNSG_7value_tE)
                  a120faee    00000002     --HOLE-- [fill = 0]
                  a120faf0    000000ee     Configurer.obj (.text._ZN8nlohmann16json_abi_v3_11_26detail11parse_error6createIDnLi0EEES2_iRKNS1_10position_tERKNSt3__112basic_stringIcNS7_11char_traitsIcEENS7_9allocatorIcEEEET_)
                  a120fbde    00000002     --HOLE-- [fill = 0]
                  a120fbe0    000000ee     RealTopic.obj (.text._ZN9RealTopic4pollE16ConsumerMetadata)
                  a120fcce    00000002     --HOLE-- [fill = 0]
                  a120fcd0    000000ee     TopicFactory.obj (.text._ZNSt3__16vectorI14BrokerMetadataNS_9allocatorIS1_EEE6assignIPS1_EENS_9enable_ifIXaasr27__is_cpp17_forward_iteratorIT_EE5valuesr16is_constructibleIS1_NS_15iterator_traitsIS8_E9referenceEEE5valueEvE4typeES8_S8_)
                  a120fdbe    00000002     --HOLE-- [fill = 0]
                  a120fdc0    000000ee     freertos.am64x.r5f.ti-arm-clang.release.lib : tasks.obj (.text.vTaskDelete)
                  a120feae    00000002     --HOLE-- [fill = 0]
                  a120feb0    000000ea     TopicProxy.obj (.text._ZN10TopicProxy11unsubscribeE16ConsumerMetadata)
                  a120ff9a    00000006     --HOLE-- [fill = 0]
                  a120ffa0    000000ea     TopicProxy.obj (.text._ZN10TopicProxy9subscribeE16ConsumerMetadata)
                  a121008a    00000002     --HOLE-- [fill = 0]
                  a121008c    000000e8     libc.a : fputc.c.obj (.text.fputc)
                  a1210174    0000000c     --HOLE-- [fill = 0]
                  a1210180    000000e4     TopicHandler.obj (.text._ZNSt3__16__treeINS_12__value_typeI16ConsumerMetadataiEENS_19__map_value_compareIS2_S3_NS_4lessIS2_EELb1EEENS_9allocatorIS3_EEE12__find_equalIS2_EERPNS_16__tree_node_baseIPvEENS_21__tree_const_iteratorIS3_PNS_11__tree_nodeIS3_SD_EEiEERPNS_15__tree_end_nodeISF_EESG_RKT_)
                  a1210264    0000000c     --HOLE-- [fill = 0]
                  a1210270    000000e2     drivers.am64x.r5f.ti-arm-clang.release.lib : ipc_rpmsg.obj (.text.RPMessage_init)
                  a1210352    0000000e     --HOLE-- [fill = 0]
                  a1210360    000000e2     TopicFactory.obj (.text._ZNSt3__16vectorI13TopicMetadataNS_9allocatorIS1_EEE6assignIPS1_EENS_9enable_ifIXaasr27__is_cpp17_forward_iteratorIT_EE5valuesr16is_constructibleIS1_NS_15iterator_traitsIS8_E9referenceEEE5valueEvE4typeES8_S8_)
                  a1210442    0000000e     --HOLE-- [fill = 0]
                  a1210450    000000d6     TopicHandler.obj (.text._ZN12TopicHandler14findTopicIndexE13TopicMetadata)
                  a1210526    0000000a     --HOLE-- [fill = 0]
                  a1210530    000000d6     Configurer.obj (.text._ZNSt3__114__copy_alignedINS_6vectorIbNS_9allocatorIbEEEELb0EEENS_14__bit_iteratorIT_Lb0ELi0EEENS5_IS6_XT0_ELi0EEES8_S7_)
                  a1210606    0000000a     --HOLE-- [fill = 0]
                  a1210610    000000d2     Configurer.obj (.text._ZN8nlohmann16json_abi_v3_11_26detail19json_sax_dom_parserINS0_10basic_jsonINSt3__13mapENS4_6vectorENS4_12basic_stringIcNS4_11char_traitsIcEENS4_9allocatorIcEEEEbxydSA_NS0_14adl_serializerENS6_IhNSA_IhEEEEvEEE11start_arrayEj)
                  a12106e2    0000000e     --HOLE-- [fill = 0]
                  a12106f0    000000ce     Configurer.obj (.text._ZN8nlohmann16json_abi_v3_11_26detail19json_sax_dom_parserINS0_10basic_jsonINSt3__13mapENS4_6vectorENS4_12basic_stringIcNS4_11char_traitsIcEENS4_9allocatorIcEEEEbxydSA_NS0_14adl_serializerENS6_IhNSA_IhEEEEvEEE12start_objectEj)
                  a12107be    00000002     --HOLE-- [fill = 0]
                  a12107c0    000000ce     freertos.am64x.r5f.ti-arm-clang.release.lib : tasks.obj (.text.vTaskPriorityDisinheritAfterTimeout)
                  a121088e    00000002     --HOLE-- [fill = 0]
                  a1210890    000000cc                                                 : timers.obj (.text.prvSampleTimeNow)
                  a121095c    00000004     --HOLE-- [fill = 0]
                  a1210960    000000ca     TopicFactory.obj (.text._ZN12TopicFactory9findTopicE13TopicMetadata)
                  a1210a2a    00000006     --HOLE-- [fill = 0]
                  a1210a30    000000ca     Record.obj (.text._ZNK6Record7to_jsonERN8nlohmann16json_abi_v3_11_210basic_jsonINSt3__13mapENS3_6vectorENS3_12basic_stringIcNS3_11char_traitsIcEENS3_9allocatorIcEEEEbxydS9_NS1_14adl_serializerENS5_IhNS9_IhEEEEvEE)
                  a1210afa    00000006     --HOLE-- [fill = 0]
                  a1210b00    000000c8     drivers.am64x.r5f.ti-arm-clang.release.lib : ipc_notify_v0.obj (.text.IpcNotify_sendMsg)
                  a1210bc8    00000008     --HOLE-- [fill = 0]
                  a1210bd0    000000c8     libc++.a : string.cpp.obj (.text._ZNSt3__112basic_stringIcNS_11char_traitsIcEENS_9allocatorIcEEEC2ERKS5_jjRKS4_)
                  a1210c98    000000c8     libc.a : getdevice.c.obj (.text.getdevice)
                  a1210d60    000000c6     drivers.am64x.r5f.ti-arm-clang.release.lib : ipc_notify_v0.obj (.text.IpcNotify_isr)
                  a1210e26    0000000a     --HOLE-- [fill = 0]
                  a1210e30    000000c6     freertos.am64x.r5f.ti-arm-clang.release.lib : tasks.obj (.text.prvInitialiseNewTask)
                  a1210ef6    0000000a     --HOLE-- [fill = 0]
                  a1210f00    000000c6                                                 : tasks.obj (.text.xTaskCreateStatic)
                  a1210fc6    0000000a     --HOLE-- [fill = 0]
                  a1210fd0    000000c4     Configurer.obj (.text._ZN8nlohmann16json_abi_v3_11_26detail28json_sax_dom_callback_parserINS0_10basic_jsonINSt3__13mapENS4_6vectorENS4_12basic_stringIcNS4_11char_traitsIcEENS4_9allocatorIcEEEEbxydSA_NS0_14adl_serializerENS6_IhNSA_IhEEEEvEEE9end_arrayEv)
                  a1211094    0000000c     --HOLE-- [fill = 0]
                  a12110a0    000000c4     Configurer.obj (.text._ZNSt3__120back_insert_iteratorINS_6vectorIN8nlohmann16json_abi_v3_11_210basic_jsonINS_3mapES1_NS_12basic_stringIcNS_11char_traitsIcEENS_9allocatorIcEEEEbxydS9_NS3_14adl_serializerENS1_IhNS9_IhEEEEvEENS9_ISF_EEEEEaSEOSF_)
                  a1211164    0000000c     --HOLE-- [fill = 0]
                  a1211170    000000c4     Configurer.obj (.text._ZNSt3__16vectorI13TopicMetadataNS_9allocatorIS1_EEE21__push_back_slow_pathIRKS1_EEvOT_)
                  a1211234    0000000c     --HOLE-- [fill = 0]
                  a1211240    000000c2     TopicHandler.obj (.text._ZN12TopicHandler15addHandledTopicE13TopicMetadata)
                  a1211302    0000000e     --HOLE-- [fill = 0]
                  a1211310    000000c2     Configurer.obj (.text._ZN8nlohmann16json_abi_v3_11_26detail28json_sax_dom_callback_parserINS0_10basic_jsonINSt3__13mapENS4_6vectorENS4_12basic_stringIcNS4_11char_traitsIcEENS4_9allocatorIcEEEEbxydSA_NS0_14adl_serializerENS6_IhNSA_IhEEEEvEEE3keyERSC_)
                  a12113d2    0000000e     --HOLE-- [fill = 0]
                  a12113e0    000000c2     Configurer.obj (.text._ZN8nlohmann16json_abi_v3_11_26detail5lexerINS0_10basic_jsonINSt3__13mapENS4_6vectorENS4_12basic_stringIcNS4_11char_traitsIcEENS4_9allocatorIcEEEEbxydSA_NS0_14adl_serializerENS6_IhNSA_IhEEEEvEENS1_22iterator_input_adapterIPcEEE3getEv)
                  a12114a2    0000000e     --HOLE-- [fill = 0]
                  a12114b0    000000c0     Configurer.obj (.text._ZN8nlohmann16json_abi_v3_11_26detail9dtoa_impl6grisu2IdEEvPcRiS5_T_)
                  a1211570    000000c0     libc.a : _printfi.c.obj (.text._mcpy)
                  a1211630    000000c0     freertos.am64x.r5f.ti-arm-clang.release.lib : tasks.obj (.text.xTaskCheckForTimeOut)
                  a12116f0    000000be     drivers.am64x.r5f.ti-arm-clang.release.lib : ipc_rpmsg_vring.obj (.text.RPMessage_vringReset)
                  a12117ae    00000002     --HOLE-- [fill = 0]
                  a12117b0    000000bc                                                : pinmux.obj (.text.Pinmux_config)
                  a121186c    00000004     --HOLE-- [fill = 0]
                  a1211870    000000bc     Configurer.obj (.text._ZNSt3__16vectorIN8nlohmann16json_abi_v3_11_210basic_jsonINS_3mapES0_NS_12basic_stringIcNS_11char_traitsIcEENS_9allocatorIcEEEEbxydS8_NS2_14adl_serializerENS0_IhNS8_IhEEEEvEENS8_ISE_EEE12emplace_backIJSE_EEEvDpOT_)
                  a121192c    00000004     --HOLE-- [fill = 0]
                  a1211930    000000ba     freertos.am64x.r5f.ti-arm-clang.release.lib : tasks.obj (.text.vTaskStartScheduler)
                  a12119ea    00000006     --HOLE-- [fill = 0]
                  a12119f0    000000b8     drivers.am64x.r5f.ti-arm-clang.release.lib : uart_v0.obj (.text.UART_divisorLatchWrite)
                  a1211aa8    00000008     --HOLE-- [fill = 0]
                  a1211ab0    000000b4     embedded_kafka.obj (.text._Z18communication_mainPv)
                  a1211b64    000000b4     libc.a : fclose.c.obj (.text.__TI_closefile)
                  a1211c18    000000b4            : fseek.c.obj (.text.fseeko)
                  a1211ccc    00000004     --HOLE-- [fill = 0]
                  a1211cd0    000000b2     drivers.am64x.r5f.ti-arm-clang.release.lib : uart_v0.obj (.text.UART_flushTxFifo)
                  a1211d82    0000000e     --HOLE-- [fill = 0]
                  a1211d90    000000b2     freertos.am64x.r5f.ti-arm-clang.release.lib : tasks.obj (.text.eTaskGetState)
                  a1211e42    0000000e     --HOLE-- [fill = 0]
                  a1211e50    000000b0     Configurer.obj (.text._ZN8nlohmann16json_abi_v3_11_26detail6concatINSt3__112basic_stringIcNS3_11char_traitsIcEENS3_9allocatorIcEEEEJRA17_KcRKS9_cS9_RA3_SA_EEET_DpOT0_)
                  a1211f00    000000b0     Configurer.obj (.text._ZNK8nlohmann16json_abi_v3_11_210basic_jsonINSt3__13mapENS2_6vectorENS2_12basic_stringIcNS2_11char_traitsIcEENS2_9allocatorIcEEEEbxydS8_NS0_14adl_serializerENS4_IhNS8_IhEEEEvE4dumpEicbNS0_6detail15error_handler_tE)
                  a1211fb0    000000b0     libc++.a : stdexcept.cpp.obj (.text._ZNSt13runtime_errorC2EPKc)
                  a1212060    000000b0     freertos.am64x.r5f.ti-arm-clang.release.lib : printf.obj (.text._ntoa_long_long)
                  a1212110    000000ae                                                 : TaskP_freertos.obj (.text.TaskP_loadUpdateAll)
                  a12121be    00000002     --HOLE-- [fill = 0]
                  a12121c0    000000ae                                                 : tasks.obj (.text.xTaskPriorityDisinherit)
                  a121226e    00000002     --HOLE-- [fill = 0]
                  a1212270    000000aa     drivers.am64x.r5f.ti-arm-clang.release.lib : ipc_rpmsg_vring.obj (.text.RPMessage_vringGetFullRxBuf)
                  a121231a    00000006     --HOLE-- [fill = 0]
                  a1212320    000000aa                                                : uart_v0.obj (.text.UART_procLineStatusErr)
                  a12123ca    00000006     --HOLE-- [fill = 0]
                  a12123d0    000000a8     libc++.a : string.cpp.obj (.text._ZNKSt3__112basic_stringIcNS_11char_traitsIcEENS_9allocatorIcEEE7compareEjjPKcj)
                  a1212478    00000008     --HOLE-- [fill = 0]
                  a1212480    000000a8              : string.cpp.obj (.text._ZNSt3__19to_stringEj)
                  a1212528    000000a8     libc.a : fflush.c.obj (.text.fflush)
                  a12125d0    000000a6     freertos.am64x.r5f.ti-arm-clang.release.lib : printf.obj (.text._out_rev)
                  a1212676    0000000a     --HOLE-- [fill = 0]
                  a1212680    000000a4     drivers.am64x.r5f.ti-arm-clang.release.lib : sciclient_pm.obj (.text.Sciclient_pmQueryModuleClkFreq)
                  a1212724    0000000c     --HOLE-- [fill = 0]
                  a1212730    000000a4     libc++abi.a : private_typeinfo.cpp.obj (.text._ZNK10__cxxabiv120__si_class_type_info27has_unambiguous_public_baseEPNS_19__dynamic_cast_infoEPvi)
                  a12127d4    0000000c     --HOLE-- [fill = 0]
                  a12127e0    000000a4     Configurer.obj (.text._ZNSt3__16vectorIN8nlohmann16json_abi_v3_11_210basic_jsonINS_3mapES0_NS_12basic_stringIcNS_11char_traitsIcEENS_9allocatorIcEEEEbxydS8_NS2_14adl_serializerENS0_IhNS8_IhEEEEvEENS8_ISE_EEE12emplace_backIJRSA_EEEvDpOT_)
                  a1212884    000000a4     libc.a : memory.c.obj (.text.split)
                  a1212928    00000008     --HOLE-- [fill = 0]
                  a1212930    000000a2     freertos.am64x.r5f.ti-arm-clang.release.lib : tasks.obj (.text.xTaskRemoveFromEventList)
                  a12129d2    0000000e     --HOLE-- [fill = 0]
                  a12129e0    000000a0                                                 : DebugP_shmLogReader.obj (.text.DebugP_shmLogReaderGetString)
                  a1212a80    000000a0     libsysbm.a : hostrename.c.obj (.text.HOSTrename)
                  a1212b20    000000a0     TopicHandler.obj (.text._ZN12TopicHandler9subscribeE16ConsumerMetadata13TopicMetadata)
                  a1212bc0    000000a0     Configurer.obj (.text._ZN8nlohmann16json_abi_v3_11_26detail5lexerINS0_10basic_jsonINSt3__13mapENS4_6vectorENS4_12basic_stringIcNS4_11char_traitsIcEENS4_9allocatorIcEEEEbxydSA_NS0_14adl_serializerENS6_IhNSA_IhEEEEvEENS1_22iterator_input_adapterIPcEEE13get_codepointEv)
                  a1212c60    000000a0     Configurer.obj (.text._ZN8nlohmann16json_abi_v3_11_26detail6concatINSt3__112basic_stringIcNS3_11char_traitsIcEENS3_9allocatorIcEEEEJRA10_KcS9_SC_S9_EEET_DpOT0_)
                  a1212d00    0000009e     drivers.am64x.r5f.ti-arm-clang.release.lib : ipc_rpmsg_vring.obj (.text.RPMessage_vringPutEmptyRxBuf)
                  a1212d9e    00000002     --HOLE-- [fill = 0]
                  a1212da0    0000009e     embedded_kafka.obj (.text._Z6brokerii)
                  a1212e3e    00000002     --HOLE-- [fill = 0]
                  a1212e40    0000009c     libc.a : _io_perm.c.obj (.text.__TI_wrt_ok)
                  a1212edc    00000004     --HOLE-- [fill = 0]
                  a1212ee0    0000009a     freertos.am64x.r5f.ti-arm-clang.release.lib : DebugP_shmLogReader.obj (.text.DebugP_shmLogReaderTaskMain)
                  a1212f7a    00000006     --HOLE-- [fill = 0]
                  a1212f80    0000009a     drivers.am64x.r5f.ti-arm-clang.release.lib : sciclient.obj (.text.Sciclient_init)
                  a121301a    00000006     --HOLE-- [fill = 0]
                  a1213020    0000009a                                                : sciclient.obj (.text.Sciclient_sendMessage)
                  a12130ba    00000006     --HOLE-- [fill = 0]
                  a12130c0    0000009a     Consumer.obj (.text._ZN8ConsumerC2E17CommunicationTypeRK6Logger14BrokerMetadatab)
                  a121315a    00000006     --HOLE-- [fill = 0]
                  a1213160    0000009a     Configurer.obj (.text._ZNSt3__16vectorIN8nlohmann16json_abi_v3_11_210basic_jsonINS_3mapES0_NS_12basic_stringIcNS_11char_traitsIcEENS_9allocatorIcEEEEbxydS8_NS2_14adl_serializerENS0_IhNS8_IhEEEEvEENS8_ISE_EEE12emplace_backIJDnEEEvDpOT_)
                  a12131fa    00000002     --HOLE-- [fill = 0]
                  a12131fc    00000098     libsysbm.a : hostlseek.c.obj (.text.HOSTlseek)
                  a1213294    0000000c     --HOLE-- [fill = 0]
                  a12132a0    00000098     drivers.am64x.r5f.ti-arm-clang.release.lib : ipc_rpmsg.obj (.text.RPMessage_coreInit)
                  a1213338    00000008     --HOLE-- [fill = 0]
                  a1213340    00000098     libc++.a : string.cpp.obj (.text._ZNKSt3__112basic_stringIcNS_11char_traitsIcEENS_9allocatorIcEEE7compareEPKc)
                  a12133d8    00000008     --HOLE-- [fill = 0]
                  a12133e0    00000098              : string.cpp.obj (.text._ZNSt3__112basic_stringIcNS_11char_traitsIcEENS_9allocatorIcEEEC2ERKS5_)
                  a1213478    00000008     --HOLE-- [fill = 0]
                  a1213480    00000098     Configurer.obj (.text._ZNSt3__16vectorIN8nlohmann16json_abi_v3_11_210basic_jsonINS_3mapES0_NS_12basic_stringIcNS_11char_traitsIcEENS_9allocatorIcEEEEbxydS8_NS2_14adl_serializerENS0_IhNS8_IhEEEEvEENS8_ISE_EEE12emplace_backIJNS2_6detail7value_tEEEEvDpOT_)
                  a1213518    00000098     libc.a : fprintf.c.obj (.text.fprintf)
                  a12135b0    00000096     Broker.obj (.text._ZN6Broker5startEv)
                  a1213646    0000000a     --HOLE-- [fill = 0]
                  a1213650    00000096     freertos.am64x.r5f.ti-arm-clang.release.lib : tasks.obj (.text.vTaskGetInfo)
                  a12136e6    00000002     --HOLE-- [fill = 0]
                  a12136e8    00000094     libsysbm.a : hostopen.c.obj (.text.HOSTopen)
                  a121377c    00000004     --HOLE-- [fill = 0]
                  a1213780    00000094     drivers.am64x.r5f.ti-arm-clang.release.lib : uart_v0.obj (.text.UART_init)
                  a1213814    0000000c     --HOLE-- [fill = 0]
                  a1213820    00000094     UDPEndpoint.obj (.text._ZN11UDPEndpoint9from_jsonERKN8nlohmann16json_abi_v3_11_210basic_jsonINSt3__13mapENS3_6vectorENS3_12basic_stringIcNS3_11char_traitsIcEENS3_9allocatorIcEEEEbxydS9_NS1_14adl_serializerENS5_IhNS9_IhEEEEvEE)
                  a12138b4    0000000c     --HOLE-- [fill = 0]
                  a12138c0    00000094     libc++abi.a : private_typeinfo.cpp.obj (.text._ZNK10__cxxabiv117__class_type_info27has_unambiguous_public_baseEPNS_19__dynamic_cast_infoEPvi)
                  a1213954    0000000c     --HOLE-- [fill = 0]
                  a1213960    00000092     drivers.am64x.r5f.ti-arm-clang.release.lib : ipc_rpmsg_vring.obj (.text.RPMessage_vringGetEmptyTxBuf)
                  a12139f2    0000000e     --HOLE-- [fill = 0]
                  a1213a00    00000092                                                : sciclient_pm.obj (.text.Sciclient_pmSetModuleClkFreq)
                  a1213a92    0000000e     --HOLE-- [fill = 0]
                  a1213aa0    00000092     Configurer.obj (.text._ZNK8nlohmann16json_abi_v3_11_210basic_jsonINSt3__13mapENS2_6vectorENS2_12basic_stringIcNS2_11char_traitsIcEENS2_9allocatorIcEEEEbxydS8_NS0_14adl_serializerENS4_IhNS8_IhEEEEvE16assert_invariantEb)
                  a1213b32    0000000e     --HOLE-- [fill = 0]
                  a1213b40    00000090     freertos.am64x.r5f.ti-arm-clang.release.lib : tasks.obj (.text.xTaskPriorityInherit)
                  a1213bd0    0000008e     Configurer.obj (.text._ZN8nlohmann16json_abi_v3_11_26detail9dtoa_impl5diyfp12normalize_toERKS3_i)
                  a1213c5e    00000002     --HOLE-- [fill = 0]
                  a1213c60    0000008e     freertos.am64x.r5f.ti-arm-clang.release.lib : port.obj (.text.pxPortInitialiseStack)
                  a1213cee    00000002     --HOLE-- [fill = 0]
                  a1213cf0    0000008c     drivers.am64x.r5f.ti-arm-clang.release.lib : ipc_rpmsg_vring.obj (.text.RPMessage_vringResetInternal)
                  a1213d7c    00000004     --HOLE-- [fill = 0]
                  a1213d80    0000008c     Producer.obj (.text._ZN8ProducerC2E17CommunicationTypeRK6Logger14BrokerMetadatab)
                  a1213e0c    00000004     --HOLE-- [fill = 0]
                  a1213e10    0000008c     Configurer.obj (.text._ZNSt3__16vectorIbNS_9allocatorIbEEE18__construct_at_endINS_14__bit_iteratorIS3_Lb0ELj0EEEEENS_9enable_ifIXsr27__is_cpp17_forward_iteratorIT_EE5valueEvE4typeES8_S8_)
                  a1213e9c    00000004     --HOLE-- [fill = 0]
                  a1213ea0    0000008c     freertos.am64x.r5f.ti-arm-clang.release.lib : printf.obj (.text._ntoa_long)
                  a1213f2c    0000008c     libsysbm.a : close.c.obj (.text.close)
                  a1213fb8    00000008     --HOLE-- [fill = 0]
                  a1213fc0    0000008a     TopicProxy.obj (.text._ZN10TopicProxyC2E17CommunicationType14BrokerMetadata13TopicMetadataRK6Logger)
                  a121404a    00000006     --HOLE-- [fill = 0]
                  a1214050    00000088     ClusterMetadata.obj (.text._ZN15ClusterMetadata17addBrokerMetadataE14BrokerMetadata)
                  a12140d8    00000008     --HOLE-- [fill = 0]
                  a12140e0    00000088     Broker.obj (.text._ZN8nlohmann16json_abi_v3_11_210basic_jsonINSt3__13mapENS2_6vectorENS2_12basic_stringIcNS2_11char_traitsIcEENS2_9allocatorIcEEEEbxydS8_NS0_14adl_serializerENS4_IhNS8_IhEEEEvE5parseIRA1024_cEESE_OT_NS2_8functionIFbiNS0_6detail13parse_event_tERSE_EEEbb)
                  a1214168    00000008     --HOLE-- [fill = 0]
                  a1214170    00000088     Configurer.obj (.text._ZN8nlohmann16json_abi_v3_11_26detail10serializerINS0_10basic_jsonINSt3__13mapENS4_6vectorENS4_12basic_stringIcNS4_11char_traitsIcEENS4_9allocatorIcEEEEbxydSA_NS0_14adl_serializerENS6_IhNSA_IhEEEEvEEEC2ENS4_10shared_ptrINS1_23output_adapter_protocolIcEEEEcNS1_15error_handler_tE)
                  a12141f8    00000008     --HOLE-- [fill = 0]
                  a1214200    00000088     BrokerMetadata.obj (.text._ZNK8nlohmann16json_abi_v3_11_26detail9iter_implIKNS0_10basic_jsonINSt3__13mapENS4_6vectorENS4_12basic_stringIcNS4_11char_traitsIcEENS4_9allocatorIcEEEEbxydSA_NS0_14adl_serializerENS6_IhNSA_IhEEEEvEEEdeEv)
                  a1214288    00000008     --HOLE-- [fill = 0]
                  a1214290    00000088     Configurer.obj (.text._ZNK8nlohmann16json_abi_v3_11_26detail9iter_implINS0_10basic_jsonINSt3__13mapENS4_6vectorENS4_12basic_stringIcNS4_11char_traitsIcEENS4_9allocatorIcEEEEbxydSA_NS0_14adl_serializerENS6_IhNSA_IhEEEEvEEEdeEv)
                  a1214318    00000088     libc.a : fflush.c.obj (.text.__TI_doflush)
                  a12143a0    00000088            : _ltoa.c.obj (.text.__TI_ltoa)
                  a1214428    00000088            : _printfi.c.obj (.text._ecpy)
                  a12144b0    00000086     Configurer.obj (.text._ZNK8nlohmann16json_abi_v3_11_26detail9iter_implINS0_10basic_jsonINSt3__13mapENS4_6vectorENS4_12basic_stringIcNS4_11char_traitsIcEENS4_9allocatorIcEEEEbxydSA_NS0_14adl_serializerENS6_IhNSA_IhEEEEvEEEptEv)
                  a1214536    0000000a     --HOLE-- [fill = 0]
                  a1214540    00000086     freertos.am64x.r5f.ti-arm-clang.release.lib : timers.obj (.text.xTimerCreateTimerTask)
                  a12145c6    00000002     --HOLE-- [fill = 0]
                  a12145c8    00000084     libsysbm.a : hostread.c.obj (.text.HOSTread)
                  a121464c    00000084                : hostwrite.c.obj (.text.HOSTwrite)
                  a12146d0    00000084     freertos.am64x.r5f.ti-arm-clang.release.lib : tasks.obj (.text.prvAddCurrentTaskToDelayedList)
                  a1214754    0000000c     --HOLE-- [fill = 0]
                  a1214760    00000082     RPMessageCommunication.obj (.text._ZN22RPMessageCommunicationC2ERK17RPMessageEndpointRK6Logger)
                  a12147e2    0000000e     --HOLE-- [fill = 0]
                  a12147f0    00000082     Configurer.obj (.text._ZN8nlohmann16json_abi_v3_11_26detail10serializerINS0_10basic_jsonINSt3__13mapENS4_6vectorENS4_12basic_stringIcNS4_11char_traitsIcEENS4_9allocatorIcEEEEbxydSA_NS0_14adl_serializerENS6_IhNSA_IhEEEEvEEE12dump_integerIhLi0EEEvT_)
                  a1214872    0000000e     --HOLE-- [fill = 0]
                  a1214880    00000080     TopicHandler.obj (.text._ZN12TopicHandler11unsubscribeE16ConsumerMetadata13TopicMetadata)
                  a1214900    00000080     Configurer.obj (.text._ZN8nlohmann16json_abi_v3_11_26detail19json_sax_dom_parserINS0_10basic_jsonINSt3__13mapENS4_6vectorENS4_12basic_stringIcNS4_11char_traitsIcEENS4_9allocatorIcEEEEbxydSA_NS0_14adl_serializerENS6_IhNSA_IhEEEEvEEE3keyERSC_)
                  a1214980    00000080     main.obj (.text.main)
                  a1214a00    00000080     freertos.am64x.r5f.ti-arm-clang.release.lib : queue.obj (.text.prvCopyDataToQueue)
                  a1214a80    00000080                                                 : queue.obj (.text.xQueueGenericReset)
                  a1214b00    0000007c     drivers.am64x.r5f.ti-arm-clang.release.lib : ipc_rpmsg.obj (.text.RPMessage_construct)
                  a1214b7c    0000007c     libc.a : _printfi.c.obj (.text._pconv_f)
                  a1214bf8    0000007c            : s_frexp.c.obj (.text.frexp)
                  a1214c74    0000000c     --HOLE-- [fill = 0]
                  a1214c80    0000007a     drivers.am64x.r5f.ti-arm-clang.release.lib : sciclient_pm.obj (.text.Sciclient_pmGetModuleClkNumParent)
                  a1214cfa    00000006     --HOLE-- [fill = 0]
                  a1214d00    0000007a     freertos.am64x.r5f.ti-arm-clang.release.lib : timers.obj (.text.prvCheckForValidListAndQueue)
                  a1214d7a    00000006     --HOLE-- [fill = 0]
                  a1214d80    0000007a                                                 : tasks.obj (.text.prvIdleTask)
                  a1214dfa    00000006     --HOLE-- [fill = 0]
                  a1214e00    00000078     Configurer.obj (.text._ZN8nlohmann16json_abi_v3_11_26detail5lexerINS0_10basic_jsonINSt3__13mapENS4_6vectorENS4_12basic_stringIcNS4_11char_traitsIcEENS4_9allocatorIcEEEEbxydSA_NS0_14adl_serializerENS6_IhNSA_IhEEEEvEENS1_22iterator_input_adapterIPcEEE18next_byte_in_rangeESt16initializer_listIiE)
                  a1214e78    00000078     libc.a : snprintf.c.obj (.text.snprintf)
                  a1214ef0    00000076     freertos.am64x.r5f.ti-arm-clang.release.lib : DebugP_freertos.obj (.text._DebugP_logZone)
                  a1214f66    0000000a     --HOLE-- [fill = 0]
                  a1214f70    00000076     Broker.obj (.text._ZN6BrokerC2E17CommunicationTypeRK8EndpointRK6Logger14BrokerMetadatabb)
                  a1214fe6    0000000a     --HOLE-- [fill = 0]
                  a1214ff0    00000076     freertos.am64x.r5f.ti-arm-clang.release.lib : timers.obj (.text.xTimerGenericCommand)
                  a1215066    0000000a     --HOLE-- [fill = 0]
                  a1215070    00000074     RealTopic.obj (.text._ZN9RealTopic7publishE16ProducerMetadata6Record)
                  a12150e4    0000000c     --HOLE-- [fill = 0]
                  a12150f0    00000074     Configurer.obj (.text._ZNSt3__16vectorIbNS_9allocatorIbEEE9push_backERKb)
                  a1215164    0000000c     --HOLE-- [fill = 0]
                  a1215170    00000072     RPMessageCommunication.obj (.text._ZN22RPMessageCommunication4readEPcjR8Endpoint)
                  a12151e2    0000000e     --HOLE-- [fill = 0]
                  a12151f0    00000072     freertos.am64x.r5f.ti-arm-clang.release.lib : queue.obj (.text.prvUnlockQueue)
                  a1215262    0000000e     --HOLE-- [fill = 0]
                  a1215270    00000070                                                 : SemaphoreP_freertos.obj (.text.SemaphoreP_constructBinary)
                  a12152e0    00000070     libc.a : atoi.c.obj (.text.atoi)
                  a1215350    0000006e     drivers.am64x.r5f.ti-arm-clang.release.lib : soc.obj (.text.SOC_moduleClockEnable)
                  a12153be    00000002     --HOLE-- [fill = 0]
                  a12153c0    0000006e                                                : sciclient_pm.obj (.text.Sciclient_pmGetModuleState)
                  a121542e    00000002     --HOLE-- [fill = 0]
                  a1215430    0000006c     libsysbm.a : hostunlink.c.obj (.text.HOSTunlink)
                  a121549c    00000004     --HOLE-- [fill = 0]
                  a12154a0    0000006c     Configurer.obj (.text._ZN8nlohmann16json_abi_v3_11_210basic_jsonINSt3__13mapENS2_6vectorENS2_12basic_stringIcNS2_11char_traitsIcEENS2_9allocatorIcEEEEbxydS8_NS0_14adl_serializerENS4_IhNS8_IhEEEEvEC2ERKSE_)
                  a121550c    0000006c     libc.a : aeabi_portable.c.obj (.text.__aeabi_assert)
                  a1215578    0000006c            : getdevice.c.obj (.text.finddevice)
                  a12155e4    0000000c     --HOLE-- [fill = 0]
                  a12155f0    0000006a     RPMessageCommunication.obj (.text._ZN22RPMessageCommunication5writeEPKcjRK8Endpoint)
                  a121565a    00000006     --HOLE-- [fill = 0]
                  a1215660    0000006a     Configurer.obj (.text._ZN8nlohmann16json_abi_v3_11_26detail5lexerINS0_10basic_jsonINSt3__13mapENS4_6vectorENS4_12basic_stringIcNS4_11char_traitsIcEENS4_9allocatorIcEEEEbxydSA_NS0_14adl_serializerENS6_IhNSA_IhEEEEvEENS1_22iterator_input_adapterIPcEEE12scan_commentEv)
                  a12156ca    00000006     --HOLE-- [fill = 0]
                  a12156d0    0000006a     Configurer.obj (.text._ZN8nlohmann16json_abi_v3_11_26detail5lexerINS0_10basic_jsonINSt3__13mapENS4_6vectorENS4_12basic_stringIcNS4_11char_traitsIcEENS4_9allocatorIcEEEEbxydSA_NS0_14adl_serializerENS6_IhNSA_IhEEEEvEENS1_22iterator_input_adapterIPcEEE5resetEv)
                  a121573a    00000006     --HOLE-- [fill = 0]
                  a1215740    0000006a     Configurer.obj (.text._ZN8nlohmann16json_abi_v3_11_26detail9dtoa_impl5diyfp3subERKS3_S5_)
                  a12157aa    00000006     --HOLE-- [fill = 0]
                  a12157b0    0000006a     TI_DebugLogger.obj (.text._ZNK14TI_DebugLogger3logEPKcz)
                  a121581a    00000006     --HOLE-- [fill = 0]
                  a1215820    0000006a     TI_DebugLogger.obj (.text._ZNK14TI_DebugLogger8logErrorEPKcz)
                  a121588a    00000006     --HOLE-- [fill = 0]
                  a1215890    00000068     freertos.am64x.r5f.ti-arm-clang.release.lib : AddrTranslateP.obj (.text.AddrTranslateP_getLocalAddr)
                  a12158f8    00000008     --HOLE-- [fill = 0]
                  a1215900    00000068     drivers.am64x.r5f.ti-arm-clang.release.lib : uart_v0.obj (.text.UART_writeCancelNoCB)
                  a1215968    00000008     --HOLE-- [fill = 0]
                  a1215970    00000068     Configurer.obj (.text._ZN8nlohmann16json_abi_v3_11_26detail6parserINS0_10basic_jsonINSt3__13mapENS4_6vectorENS4_12basic_stringIcNS4_11char_traitsIcEENS4_9allocatorIcEEEEbxydSA_NS0_14adl_serializerENS6_IhNSA_IhEEEEvEENS1_22iterator_input_adapterIPcEEEC2EOSJ_NS4_8functionIFbiNS1_13parse_event_tERSG_EEEbb)
                  a12159d8    00000008     --HOLE-- [fill = 0]
                  a12159e0    00000068     RealTopic.obj (.text._ZN9RealTopic9subscribeE16ConsumerMetadata)
                  a1215a48    00000008     --HOLE-- [fill = 0]
                  a1215a50    00000068     Configurer.obj (.text._ZNSt3__16vectorIbNS_9allocatorIbEEE7reserveEj)
                  a1215ab8    00000068     libc.a : vsnprintf.c.obj (.text.vsnprintf)
                  a1215b20    00000066     drivers.am64x.r5f.ti-arm-clang.release.lib : ipc_rpmsg.obj (.text.RPMessage_getEndPtMsg)
                  a1215b86    0000000a     --HOLE-- [fill = 0]
                  a1215b90    00000066                                                : sciclient_pm.obj (.text.Sciclient_pmGetModuleClkFreq)
                  a1215bf6    0000000a     --HOLE-- [fill = 0]
                  a1215c00    00000066                                                : sciclient_pm.obj (.text.Sciclient_pmGetModuleClkParent)
                  a1215c66    0000000a     --HOLE-- [fill = 0]
                  a1215c70    00000064                                                : sciclient_pm.obj (.text.Sciclient_pmModuleGetClkStatus)
                  a1215cd4    0000000c     --HOLE-- [fill = 0]
                  a1215ce0    00000064     TopicHandler.obj (.text._ZNSt3__19allocatorI9RealTopicE9constructIS1_JRKS1_EEEvPT_DpOT0_)
                  a1215d44    0000000c     --HOLE-- [fill = 0]
                  a1215d50    00000064     TopicHandler.obj (.text._ZNSt3__19allocatorI9RealTopicE9constructIS1_JS1_EEEvPT_DpOT0_)
                  a1215db4    0000000c     --HOLE-- [fill = 0]
                  a1215dc0    00000064     freertos.am64x.r5f.ti-arm-clang.release.lib : PmuP_armv7r.obj (.text.pmu)
                  a1215e24    0000000c     --HOLE-- [fill = 0]
                  a1215e30    00000064                                                 : queue.obj (.text.vQueueDelete)
                  a1215e94    0000000c     --HOLE-- [fill = 0]
                  a1215ea0    00000062     drivers.am64x.r5f.ti-arm-clang.release.lib : ipc_notify_v0.obj (.text.IpcNotify_waitSync)
                  a1215f02    0000000e     --HOLE-- [fill = 0]
                  a1215f10    00000062     TopicFactory.obj (.text._ZN12TopicFactoryC2E17CommunicationTypeRK6Logger14BrokerMetadatab)
                  a1215f72    00000002     --HOLE-- [fill = 0]
                  a1215f74    00000060     libsysbm.a : hostclose.c.obj (.text.HOSTclose)
                  a1215fd4    0000000c     --HOLE-- [fill = 0]
                  a1215fe0    00000060     Broker.obj (.text._ZN6Broker18createTestingTopicEv)
                  a1216040    00000060     Configurer.obj (.text._ZN8nlohmann16json_abi_v3_11_26detail10serializerINS0_10basic_jsonINSt3__13mapENS4_6vectorENS4_12basic_stringIcNS4_11char_traitsIcEENS4_9allocatorIcEEEEbxydSA_NS0_14adl_serializerENS6_IhNSA_IhEEEEvEEE10dump_floatEd)
                  a12160a0    0000005e     drivers.am64x.r5f.ti-arm-clang.release.lib : ipc_rpmsg_vring.obj (.text.RPMessage_vringPutFullTxBuf)
                  a12160fe    00000002     --HOLE-- [fill = 0]
                  a1216100    0000005e                                                : sciclient_pm.obj (.text.Sciclient_pmModuleClkRequest)
                  a121615e    00000002     --HOLE-- [fill = 0]
                  a1216160    0000005e                                                : sciclient_pm.obj (.text.Sciclient_pmSetModuleClkParent)
                  a12161be    00000002     --HOLE-- [fill = 0]
                  a12161c0    0000005e     Configurer.obj (.text._ZN8nlohmann16json_abi_v3_11_26detail5lexerINS0_10basic_jsonINSt3__13mapENS4_6vectorENS4_12basic_stringIcNS4_11char_traitsIcEENS4_9allocatorIcEEEEbxydSA_NS0_14adl_serializerENS6_IhNSA_IhEEEEvEENS1_22iterator_input_adapterIPcEEE12scan_literalEPKcjNS1_10lexer_baseISG_E10token_typeE)
                  a121621e    00000002     --HOLE-- [fill = 0]
                  a1216220    0000005e     RealTopic.obj (.text._ZN9RealTopic11unsubscribeE16ConsumerMetadata)
                  a121627e    00000002     --HOLE-- [fill = 0]
                  a1216280    0000005e     Record.obj (.text._ZNSt3__16__treeINS_12__value_typeINS_12basic_stringIcNS_11char_traitsIcEENS_9allocatorIcEEEEN8nlohmann16json_abi_v3_11_210basic_jsonINS_3mapENS_6vectorES7_bxydS5_NS9_14adl_serializerENSC_IhNS5_IhEEEEvEEEENS_19__map_value_compareIS7_SH_NS_4lessIvEELb1EEENS5_ISH_EEE16__construct_nodeIJS7_SG_EEENS_10unique_ptrINS_11__tree_nodeISH_PvEENS_22__tree_node_destructorINS5_ISS_EEEEEEDpOT_)
                  a12162de    00000002     --HOLE-- [fill = 0]
                  a12162e0    0000005e     Configurer.obj (.text._ZNSt3__16__treeINS_12__value_typeINS_12basic_stringIcNS_11char_traitsIcEENS_9allocatorIcEEEEN8nlohmann16json_abi_v3_11_210basic_jsonINS_3mapENS_6vectorES7_bxydS5_NS9_14adl_serializerENSC_IhNS5_IhEEEEvEEEENS_19__map_value_compareIS7_SH_NS_4lessIvEELb1EEENS5_ISH_EEE30__emplace_hint_unique_key_argsIS7_JRKNS_4pairIKS7_SG_EEEEENSP_INS_15__tree_iteratorISH_PNS_11__tree_nodeISH_PvEEiEEbEENS_21__tree_const_iteratorISH_SY_iEERKT_DpOT0_)
                  a121633e    00000002     --HOLE-- [fill = 0]
                  a1216340    0000005c     freertos.am64x.r5f.ti-arm-clang.release.lib : DebugP_log.obj (.text._DebugP_assert)
                  a121639c    00000004     --HOLE-- [fill = 0]
                  a12163a0    0000005c     Configurer.obj (.text._ZNSt3__16__treeINS_12__value_typeINS_12basic_stringIcNS_11char_traitsIcEENS_9allocatorIcEEEEN8nlohmann16json_abi_v3_11_210basic_jsonINS_3mapENS_6vectorES7_bxydS5_NS9_14adl_serializerENSC_IhNS5_IhEEEEvEEEENS_19__map_value_compareIS7_SH_NS_4lessIvEELb1EEENS5_ISH_EEE12__find_equalIS7_EERPNS_16__tree_node_baseIPvEERPNS_15__tree_end_nodeISS_EERKT_)
                  a12163fc    00000004     --HOLE-- [fill = 0]
                  a1216400    0000005c     TopicHandler.obj (.text._ZNSt3__16vectorI9RealTopicNS_9allocatorIS1_EEE26__swap_out_circular_bufferERNS_14__split_bufferIS1_RS3_EE)
                  a121645c    0000005c     libc.a : _printfi.c.obj (.text._fcpy)
                  a12164b8    00000008     --HOLE-- [fill = 0]
                  a12164c0    0000005a     drivers.am64x.r5f.ti-arm-clang.release.lib : ipc_rpmsg_vring.obj (.text.RPMessage_vringIsFullRxBuf)
                  a121651a    00000006     --HOLE-- [fill = 0]
                  a1216520    0000005a     Consumer.obj (.text._ZN8Consumer9subscribeE13TopicMetadata)
                  a121657a    00000006     --HOLE-- [fill = 0]
                  a1216580    0000005a     TopicHandler.obj (.text._ZNSt3__13mapI16ConsumerMetadataiNS_4lessIS1_EENS_9allocatorINS_4pairIKS1_iEEEEE6insertINS_20__map_const_iteratorINS_21__tree_const_iteratorINS_12__value_typeIS1_iEEPNS_11__tree_nodeISE_PvEEiEEEEEEvT_SL_)
                  a12165da    00000006     --HOLE-- [fill = 0]
                  a12165e0    0000005a     Configurer.obj (.text._ZNSt3__13mapINS_12basic_stringIcNS_11char_traitsIcEENS_9allocatorIcEEEEN8nlohmann16json_abi_v3_11_210basic_jsonIS0_NS_6vectorES6_bxydS4_NS8_14adl_serializerENSA_IhNS4_IhEEEEvEENS_4lessIvEENS4_INS_4pairIKS6_SE_EEEEE6insertINS_20__map_const_iteratorINS_21__tree_const_iteratorINS_12__value_typeIS6_SE_EEPNS_11__tree_nodeISQ_PvEEiEEEEEEvT_SX_)
                  a121663a    00000006     --HOLE-- [fill = 0]
                  a1216640    00000058     freertos.am64x.r5f.ti-arm-clang.release.lib : SemaphoreP_freertos.obj (.text.SemaphoreP_pend)
                  a1216698    00000008     --HOLE-- [fill = 0]
                  a12166a0    00000058     Configurer.obj (.text._ZN8nlohmann16json_abi_v3_11_210basic_jsonINSt3__13mapENS2_6vectorENS2_12basic_stringIcNS2_11char_traitsIcEENS2_9allocatorIcEEEEbxydS8_NS0_14adl_serializerENS4_IhNS8_IhEEEEvE6parserINS0_6detail22iterator_input_adapterIPcEEEENSG_6parserISE_T_EESL_NS2_8functionIFbiNSG_13parse_event_tERSE_EEEbb)
                  a12166f8    00000008     --HOLE-- [fill = 0]
                  a1216700    00000058     Configurer.obj (.text._ZN8nlohmann16json_abi_v3_11_26detail11parse_error15position_stringERKNS1_10position_tE)
                  a1216758    00000008     --HOLE-- [fill = 0]
                  a1216760    00000058     Configurer.obj (.text._ZN8nlohmann16json_abi_v3_11_26detail6concatINSt3__112basic_stringIcNS3_11char_traitsIcEENS3_9allocatorIcEEEEJRA26_KcS9_cEEET_DpOT0_)
                  a12167b8    00000008     --HOLE-- [fill = 0]
                  a12167c0    00000058     Configurer.obj (.text._ZNK8nlohmann16json_abi_v3_11_26detail5lexerINS0_10basic_jsonINSt3__13mapENS4_6vectorENS4_12basic_stringIcNS4_11char_traitsIcEENS4_9allocatorIcEEEEbxydSA_NS0_14adl_serializerENS6_IhNSA_IhEEEEvEENS1_22iterator_input_adapterIPcEEE16get_token_stringEv)
                  a1216818    00000008     --HOLE-- [fill = 0]
                  a1216820    00000058     Configurer.obj (.text._ZNKSt3__14lessIvEclIRKNS_12basic_stringIcNS_11char_traitsIcEENS_9allocatorIcEEEESA_EEDTltclsr3stdE7forwardIT_Efp_Eclsr3stdE7forwardIT0_Efp0_EEOSB_OSC_)
                  a1216878    00000008     --HOLE-- [fill = 0]
                  a1216880    00000058     libc++abi.a : stdlib_stdexcept.cpp.obj (.text._ZNSt13runtime_errorD0Ev)
                  a12168d8    00000008     --HOLE-- [fill = 0]
                  a12168e0    00000058     Configurer.obj (.text._ZNSt3__146__construct_backward_with_exception_guaranteesINS_9allocatorIN8nlohmann16json_abi_v3_11_210basic_jsonINS_3mapENS_6vectorENS_12basic_stringIcNS_11char_traitsIcEENS1_IcEEEEbxydS1_NS3_14adl_serializerENS6_IhNS1_IhEEEEvEEEEPSF_EEvRT_T0_SK_RSK_)
                  a1216938    00000058     libc.a : fopen.c.obj (.text.__TI_cleanup)
                  a1216990    00000058     libsysbm.a : trgmsg.c.obj (.text.__TI_readmsg)
                  a12169e8    00000058                : trgmsg.c.obj (.text.__TI_writemsg)
                  a1216a40    00000058     libc.a : snprintf.c.obj (.text._outs)
                  a1216a98    00000058            : vsnprintf.c.obj (.text._outs)
                  a1216af0    00000058            : sprintf.c.obj (.text.sprintf)
                  a1216b48    00000008     --HOLE-- [fill = 0]
                  a1216b50    00000058     freertos.am64x.r5f.ti-arm-clang.release.lib : tasks.obj (.text.vTaskPlaceOnEventListRestricted)
                  a1216ba8    00000008     --HOLE-- [fill = 0]
                  a1216bb0    00000056     drivers.am64x.r5f.ti-arm-clang.release.lib : uart_dma.obj (.text.UART_dmaDisableChannel)
                  a1216c06    0000000a     --HOLE-- [fill = 0]
                  a1216c10    00000056     Producer.obj (.text._ZN8Producer7publishE14ProducerRecord)
                  a1216c66    0000000a     --HOLE-- [fill = 0]
                  a1216c70    00000056     embedded_kafka.obj (.text._ZNSt3__112basic_stringIcNS_11char_traitsIcEENS_9allocatorIcEEEC2IDnEEPKc)
                  a1216cc6    0000000a     --HOLE-- [fill = 0]
                  a1216cd0    00000056     freertos.am64x.r5f.ti-arm-clang.release.lib : tasks.obj (.text.vTaskDelay)
                  a1216d26    0000000a     --HOLE-- [fill = 0]
                  a1216d30    00000054     drivers.am64x.r5f.ti-arm-clang.release.lib : ipc_rpmsg.obj (.text.RPMessage_notifyCallback)
                  a1216d84    0000000c     --HOLE-- [fill = 0]
                  a1216d90    00000054                                                : uart_dma.obj (.text.UART_dmaClose)
                  a1216de4    0000000c     --HOLE-- [fill = 0]
                  a1216df0    00000054     Configurer.obj (.text._ZN8nlohmann16json_abi_v3_11_26detail10serializerINS0_10basic_jsonINSt3__13mapENS4_6vectorENS4_12basic_stringIcNS4_11char_traitsIcEENS4_9allocatorIcEEEEbxydSA_NS0_14adl_serializerENS6_IhNSA_IhEEEEvEEE6decodeERhRjh)
                  a1216e44    0000000c     --HOLE-- [fill = 0]
                  a1216e50    00000054     Configurer.obj (.text._ZN8nlohmann16json_abi_v3_11_26detail28json_sax_dom_callback_parserINS0_10basic_jsonINSt3__13mapENS4_6vectorENS4_12basic_stringIcNS4_11char_traitsIcEENS4_9allocatorIcEEEEbxydSA_NS0_14adl_serializerENS6_IhNSA_IhEEEEvEEEC2ERSG_NS4_8functionIFbiNS1_13parse_event_tESI_EEEb)
                  a1216ea4    0000000c     --HOLE-- [fill = 0]
                  a1216eb0    00000054     Configurer.obj (.text._ZN8nlohmann16json_abi_v3_11_26detail9dtoa_impl5diyfp9normalizeES3_)
                  a1216f04    0000000c     --HOLE-- [fill = 0]
                  a1216f10    00000054     libc++abi.a : stdlib_stdexcept.cpp.obj (.text._ZNSt13runtime_errorD2Ev)
                  a1216f64    00000054     libc.a : exit.c.obj (.text.exit)
                  a1216fb8    00000008     --HOLE-- [fill = 0]
                  a1216fc0    00000052     drivers.am64x.r5f.ti-arm-clang.release.lib : sciclient_pm.obj (.text.Sciclient_pmSetModuleState)
                  a1217012    0000000e     --HOLE-- [fill = 0]
                  a1217020    00000052     freertos.am64x.r5f.ti-arm-clang.release.lib : SemaphoreP_freertos.obj (.text.SemaphoreP_constructMutex)
                  a1217072    0000000e     --HOLE-- [fill = 0]
                  a1217080    00000052                                                 : SemaphoreP_freertos.obj (.text.SemaphoreP_post)
                  a12170d2    0000000e     --HOLE-- [fill = 0]
                  a12170e0    00000052     RPMessageEndpoint.obj (.text._ZN17RPMessageEndpoint9from_jsonERKN8nlohmann16json_abi_v3_11_210basic_jsonINSt3__13mapENS3_6vectorENS3_12basic_stringIcNS3_11char_traitsIcEENS3_9allocatorIcEEEEbxydS9_NS1_14adl_serializerENS5_IhNS9_IhEEEEvEE)
                  a1217132    0000000e     --HOLE-- [fill = 0]
                  a1217140    00000052     Configurer.obj (.text._ZN8nlohmann16json_abi_v3_11_26detail19json_sax_dom_parserINS0_10basic_jsonINSt3__13mapENS4_6vectorENS4_12basic_stringIcNS4_11char_traitsIcEENS4_9allocatorIcEEEEbxydSA_NS0_14adl_serializerENS6_IhNSA_IhEEEEvEEE10end_objectEv)
                  a1217192    0000000e     --HOLE-- [fill = 0]
                  a12171a0    00000052     Configurer.obj (.text._ZN8nlohmann16json_abi_v3_11_26detail19json_sax_dom_parserINS0_10basic_jsonINSt3__13mapENS4_6vectorENS4_12basic_stringIcNS4_11char_traitsIcEENS4_9allocatorIcEEEEbxydSA_NS0_14adl_serializerENS6_IhNSA_IhEEEEvEEE9end_arrayEv)
                  a12171f2    0000000e     --HOLE-- [fill = 0]
                  a1217200    00000052     BrokerMetadata.obj (.text._ZNK8nlohmann16json_abi_v3_11_26detail9iter_implIKNS0_10basic_jsonINSt3__13mapENS4_6vectorENS4_12basic_stringIcNS4_11char_traitsIcEENS4_9allocatorIcEEEEbxydSA_NS0_14adl_serializerENS6_IhNSA_IhEEEEvEEEeqISI_LDn0EEEbRKT_)
                  a1217252    0000000e     --HOLE-- [fill = 0]
                  a1217260    00000052     Configurer.obj (.text._ZNK8nlohmann16json_abi_v3_11_26detail9iter_implINS0_10basic_jsonINSt3__13mapENS4_6vectorENS4_12basic_stringIcNS4_11char_traitsIcEENS4_9allocatorIcEEEEbxydSA_NS0_14adl_serializerENS6_IhNSA_IhEEEEvEEEeqISH_LDn0EEEbRKT_)
                  a12172b2    0000000e     --HOLE-- [fill = 0]
                  a12172c0    00000052     TopicHandler.obj (.text._ZNSt3__16__treeINS_12__value_typeI16ConsumerMetadataiEENS_19__map_value_compareIS2_S3_NS_4lessIS2_EELb1EEENS_9allocatorIS3_EEE30__emplace_hint_unique_key_argsIS2_JRKNS_4pairIKS2_iEEEEENSC_INS_15__tree_iteratorIS3_PNS_11__tree_nodeIS3_PvEEiEEbEENS_21__tree_const_iteratorIS3_SL_iEERKT_DpOT0_)
                  a1217312    0000000e     --HOLE-- [fill = 0]
                  a1217320    00000052     freertos.am64x.r5f.ti-arm-clang.release.lib : queue.obj (.text.xQueueGiveMutexRecursive)
                  a1217372    0000000e     --HOLE-- [fill = 0]
                  a1217380    00000050                                                 : DebugP_shmLogReader_freertos.obj (.text.DebugP_shmLogReaderTaskCreate)
                  a12173d0    00000050     drivers.am64x.r5f.ti-arm-clang.release.lib : sciclient_soc_priv.obj (.text.Sciclient_getContext)
                  a1217420    00000050     SystemManager.obj (.text._ZN13SystemManagerC2E17CommunicationTypeRK6Logger14BrokerMetadatab)
                  a1217470    00000050     EndpointFactory.obj (.text._ZN15EndpointFactory15getFreeEndpointEv)
                  a12174c0    00000050     Configurer.obj (.text._ZN8nlohmann16json_abi_v3_11_26detail5lexerINS0_10basic_jsonINSt3__13mapENS4_6vectorENS4_12basic_stringIcNS4_11char_traitsIcEENS4_9allocatorIcEEEEbxydSA_NS0_14adl_serializerENS6_IhNSA_IhEEEEvEENS1_22iterator_input_adapterIPcEEE5ungetEv)
                  a1217510    00000050     RealTopic.obj (.text._ZN9RealTopicC2E13TopicMetadataRK6Logger)
                  a1217560    00000050     TopicHandler.obj (.text._ZNSt3__16__treeINS_12__value_typeI16ConsumerMetadataiEENS_19__map_value_compareIS2_S3_NS_4lessIS2_EELb1EEENS_9allocatorIS3_EEE12__find_equalIS2_EERPNS_16__tree_node_baseIPvEERPNS_15__tree_end_nodeISF_EERKT_)
                  a12175b0    00000050     freertos.am64x.r5f.ti-arm-clang.release.lib : tasks.obj (.text.prvDeleteTCB)
                  a1217600    00000050     libc.a : autoinit.c.obj (.text:__TI_auto_init_nobinit_nopinit)
                  a1217650    0000004e     ti_dpl_config.obj (.text.Dpl_init)
                  a121769e    00000002     --HOLE-- [fill = 0]
                  a12176a0    0000004e     Record.obj (.text._ZN8nlohmann16json_abi_v3_11_210basic_jsonINSt3__13mapENS2_6vectorENS2_12basic_stringIcNS2_11char_traitsIcEENS2_9allocatorIcEEEEbxydS8_NS0_14adl_serializerENS4_IhNS8_IhEEEEvEC2INS0_6detail8json_refISE_EELi0EEERKT_)
                  a12176ee    00000002     --HOLE-- [fill = 0]
                  a12176f0    0000004e     Configurer.obj (.text._ZN8nlohmann16json_abi_v3_11_26detail28json_sax_dom_callback_parserINS0_10basic_jsonINSt3__13mapENS4_6vectorENS4_12basic_stringIcNS4_11char_traitsIcEENS4_9allocatorIcEEEEbxydSA_NS0_14adl_serializerENS6_IhNSA_IhEEEEvEEED2Ev)
                  a121773e    00000002     --HOLE-- [fill = 0]
                  a1217740    0000004e     Configurer.obj (.text._ZN8nlohmann16json_abi_v3_11_26detail9iter_implINS0_10basic_jsonINSt3__13mapENS4_6vectorENS4_12basic_stringIcNS4_11char_traitsIcEENS4_9allocatorIcEEEEbxydSA_NS0_14adl_serializerENS6_IhNSA_IhEEEEvEEEC2EPSG_)
                  a121778e    00000002     --HOLE-- [fill = 0]
                  a1217790    0000004e     freertos.am64x.r5f.ti-arm-clang.release.lib : tasks.obj (.text.vTaskPlaceOnEventList)
                  a12177de    00000002     --HOLE-- [fill = 0]
                  a12177e0    0000004e                                                 : queue.obj (.text.xQueueTakeMutexRecursive)
                  a121782e    00000002     --HOLE-- [fill = 0]
                  a1217830    0000004c                                                 : ClockP_freertos.obj (.text.ClockP_getTimeUsec)
                  a121787c    00000004     --HOLE-- [fill = 0]
                  a1217880    0000004c     ti_drivers_open_close.obj (.text.Drivers_uartOpen)
                  a12178cc    00000004     --HOLE-- [fill = 0]
                  a12178d0    0000004c     drivers.am64x.r5f.ti-arm-clang.release.lib : ipc_rpmsg.obj (.text.RPMessage_allocEndPtMsg)
                  a121791c    00000004     --HOLE-- [fill = 0]
                  a1217920    0000004c     Configurer.obj (.text._ZN8nlohmann16json_abi_v3_11_210basic_jsonINSt3__13mapENS2_6vectorENS2_12basic_stringIcNS2_11char_traitsIcEENS2_9allocatorIcEEEEbxydS8_NS0_14adl_serializerENS4_IhNS8_IhEEEEvE10json_valueC2ENS0_6detail7value_tE)
                  a121796c    00000004     --HOLE-- [fill = 0]
                  a1217970    0000004c     Configurer.obj (.text._ZNSt3__16__treeINS_12__value_typeINS_12basic_stringIcNS_11char_traitsIcEENS_9allocatorIcEEEEN8nlohmann16json_abi_v3_11_210basic_jsonINS_3mapENS_6vectorES7_bxydS5_NS9_14adl_serializerENSC_IhNS5_IhEEEEvEEEENS_19__map_value_compareIS7_SH_NS_4lessIvEELb1EEENS5_ISH_EEE16__construct_nodeIJS7_DnEEENS_10unique_ptrINS_11__tree_nodeISH_PvEENS_22__tree_node_destructorINS5_ISS_EEEEEEDpOT_)
                  a12179bc    0000004c     libc.a : memmov.c.obj (.text.memmove)
                  a1217a08    0000004c            : rand.c.obj (.text.rand)
                  a1217a54    0000000c     --HOLE-- [fill = 0]
                  a1217a60    0000004a     Configurer.obj (.text._ZN8nlohmann16json_abi_v3_11_26detail9exception4nameERKNSt3__112basic_stringIcNS3_11char_traitsIcEENS3_9allocatorIcEEEEi)
                  a1217aaa    00000006     --HOLE-- [fill = 0]
                  a1217ab0    0000004a     Configurer.obj (.text._ZNSt3__16__treeINS_12__value_typeINS_12basic_stringIcNS_11char_traitsIcEENS_9allocatorIcEEEEN8nlohmann16json_abi_v3_11_210basic_jsonINS_3mapENS_6vectorES7_bxydS5_NS9_14adl_serializerENSC_IhNS5_IhEEEEvEEEENS_19__map_value_compareIS7_SH_NS_4lessIvEELb1EEENS5_ISH_EEE25__emplace_unique_key_argsIS7_JRKNS_21piecewise_construct_tENS_5tupleIJRKS7_EEENSS_IJEEEEEENS_4pairINS_15__tree_iteratorISH_PNS_11__tree_nodeISH_PvEEiEEbEERKT_DpOT0_)
                  a1217afa    00000006     --HOLE-- [fill = 0]
                  a1217b00    00000048     CommunicationUtils.obj (.text._ZN18CommunicationUtils7requestEP13Communication17CommunicationTypeP8EndpointPKcjPcj)
                  a1217b48    00000008     --HOLE-- [fill = 0]
                  a1217b50    00000048     BrokerMetadata.obj (.text._ZN8nlohmann16json_abi_v3_11_26detail9iter_implIKNS0_10basic_jsonINSt3__13mapENS4_6vectorENS4_12basic_stringIcNS4_11char_traitsIcEENS4_9allocatorIcEEEEbxydSA_NS0_14adl_serializerENS6_IhNSA_IhEEEEvEEE9set_beginEv)
                  a1217b98    00000008     --HOLE-- [fill = 0]
                  a1217ba0    00000048     Configurer.obj (.text._ZN8nlohmann16json_abi_v3_11_26detail9iter_implINS0_10basic_jsonINSt3__13mapENS4_6vectorENS4_12basic_stringIcNS4_11char_traitsIcEENS4_9allocatorIcEEEEbxydSA_NS0_14adl_serializerENS6_IhNSA_IhEEEEvEEE9set_beginEv)
                  a1217be8    00000008     --HOLE-- [fill = 0]
                  a1217bf0    00000048     Configurer.obj (.text._ZNSt3__114__split_bufferI13TopicMetadataRNS_9allocatorIS1_EEEC2EjjS4_)
                  a1217c38    00000008     --HOLE-- [fill = 0]
                  a1217c40    00000048     RealTopic.obj (.text._ZNSt3__16__treeINS_12__value_typeI16ConsumerMetadataiEENS_19__map_value_compareIS2_S3_NS_4lessIS2_EELb1EEENS_9allocatorIS3_EEE25__emplace_unique_key_argsIS2_JNS_4pairIS2_iEEEEENSC_INS_15__tree_iteratorIS3_PNS_11__tree_nodeIS3_PvEEiEEbEERKT_DpOT0_)
                  a1217c88    00000008     --HOLE-- [fill = 0]
                  a1217c90    00000048     Configurer.obj (.text._ZNSt3__16__treeINS_12__value_typeINS_12basic_stringIcNS_11char_traitsIcEENS_9allocatorIcEEEEN8nlohmann16json_abi_v3_11_210basic_jsonINS_3mapENS_6vectorES7_bxydS5_NS9_14adl_serializerENSC_IhNS5_IhEEEEvEEEENS_19__map_value_compareIS7_SH_NS_4lessIvEELb1EEENS5_ISH_EEE4findIS7_EENS_15__tree_iteratorISH_PNS_11__tree_nodeISH_PvEEiEERKT_)
                  a1217cd8    00000008     --HOLE-- [fill = 0]
                  a1217ce0    00000048     libc++abi.a : stdlib_new_delete.cpp.obj (.text._Znwj)
                  a1217d28    00000048     libc.a : memccpy.c.obj (.text.memccpy)
                  a1217d70    00000048     libsysbm.a : unlink.c.obj (.text.unlink)
                  a1217db8    00000008     --HOLE-- [fill = 0]
                  a1217dc0    00000046     BrokerMetadata.obj (.text._ZN8nlohmann16json_abi_v3_11_26detail9iter_implIKNS0_10basic_jsonINSt3__13mapENS4_6vectorENS4_12basic_stringIcNS4_11char_traitsIcEENS4_9allocatorIcEEEEbxydSA_NS0_14adl_serializerENS6_IhNSA_IhEEEEvEEEppEv)
                  a1217e06    0000000a     --HOLE-- [fill = 0]
                  a1217e10    00000046     Configurer.obj (.text._ZN8nlohmann16json_abi_v3_11_26detail9iter_implINS0_10basic_jsonINSt3__13mapENS4_6vectorENS4_12basic_stringIcNS4_11char_traitsIcEENS4_9allocatorIcEEEEbxydSA_NS0_14adl_serializerENS6_IhNSA_IhEEEEvEEEppEv)
                  a1217e56    0000000a     --HOLE-- [fill = 0]
                  a1217e60    00000046     RealTopic.obj (.text._ZNSt3__16__treeINS_12__value_typeI16ConsumerMetadataiEENS_19__map_value_compareIS2_S3_NS_4lessIS2_EELb1EEENS_9allocatorIS3_EEE21__remove_node_pointerEPNS_11__tree_nodeIS3_PvEE)
                  a1217ea6    0000000a     --HOLE-- [fill = 0]
                  a1217eb0    00000046     RealTopic.obj (.text._ZNSt3__16__treeINS_12__value_typeI16ConsumerMetadataiEENS_19__map_value_compareIS2_S3_NS_4lessIS2_EELb1EEENS_9allocatorIS3_EEE25__emplace_unique_key_argsIS2_JRKNS_21piecewise_construct_tENS_5tupleIJRKS2_EEENSF_IJEEEEEENS_4pairINS_15__tree_iteratorIS3_PNS_11__tree_nodeIS3_PvEEiEEbEERKT_DpOT0_)
                  a1217ef6    0000000a     --HOLE-- [fill = 0]
                  a1217f00    00000046     Configurer.obj (.text._ZNSt3__16__treeINS_12__value_typeINS_12basic_stringIcNS_11char_traitsIcEENS_9allocatorIcEEEEN8nlohmann16json_abi_v3_11_210basic_jsonINS_3mapENS_6vectorES7_bxydS5_NS9_14adl_serializerENSC_IhNS5_IhEEEEvEEEENS_19__map_value_compareIS7_SH_NS_4lessIvEELb1EEENS5_ISH_EEE21__remove_node_pointerEPNS_11__tree_nodeISH_PvEE)
                  a1217f46    0000000a     --HOLE-- [fill = 0]
                  a1217f50    00000046     freertos.am64x.r5f.ti-arm-clang.release.lib : queue.obj (.text.vQueueWaitForMessageRestricted)
                  a1217f96    0000000a     --HOLE-- [fill = 0]
                  a1217fa0    00000044     drivers.am64x.r5f.ti-arm-clang.release.lib : sciclient_pm.obj (.text.Sciclient_pmSetModuleRst)
                  a1217fe4    0000000c     --HOLE-- [fill = 0]
                  a1217ff0    00000044     Configurer.obj (.text._ZN8nlohmann16json_abi_v3_11_210basic_jsonINSt3__13mapENS2_6vectorENS2_12basic_stringIcNS2_11char_traitsIcEENS2_9allocatorIcEEEEbxydS8_NS0_14adl_serializerENS4_IhNS8_IhEEEEvEixESA_)
                  a1218034    0000000c     --HOLE-- [fill = 0]
                  a1218040    00000044     TopicHandler.obj (.text._ZNSt3__114__split_bufferI9RealTopicRNS_9allocatorIS1_EEEC2EjjS4_)
                  a1218084    0000000c     --HOLE-- [fill = 0]
                  a1218090    00000044     Configurer.obj (.text._ZNSt3__16__treeINS_12__value_typeINS_12basic_stringIcNS_11char_traitsIcEENS_9allocatorIcEEEEN8nlohmann16json_abi_v3_11_210basic_jsonINS_3mapENS_6vectorES7_bxydS5_NS9_14adl_serializerENSC_IhNS5_IhEEEEvEEEENS_19__map_value_compareIS7_SH_NS_4lessIvEELb1EEENS5_ISH_EEE7destroyEPNS_11__tree_nodeISH_PvEE)
                  a12180d4    0000000c     --HOLE-- [fill = 0]
                  a12180e0    00000044     embedded_kafka.obj (.text._ZNSt3__16vectorI13TopicMetadataNS_9allocatorIS1_EEEC2ERKS4_)
                  a1218124    0000000c     --HOLE-- [fill = 0]
                  a1218130    00000044     SystemManager.obj (.text._ZNSt3__16vectorI14BrokerMetadataNS_9allocatorIS1_EEEC2ERKS4_)
                  a1218174    00000044     libc.a : memchr.c.obj (.text.memchr)
                  a12181b8    00000008     --HOLE-- [fill = 0]
                  a12181c0    00000042     Configurer.obj (.text._ZN8nlohmann16json_abi_v3_11_210basic_jsonINSt3__13mapENS2_6vectorENS2_12basic_stringIcNS2_11char_traitsIcEENS2_9allocatorIcEEEEbxydS8_NS0_14adl_serializerENS4_IhNS8_IhEEEEvE6createINS3_ISA_SE_NS2_4lessIvEENS8_INS2_4pairIKSA_SE_EEEEEEJRKSM_EEEPT_DpOT0_)
                  a1218202    0000000e     --HOLE-- [fill = 0]
                  a1218210    00000042     Configurer.obj (.text._ZN8nlohmann16json_abi_v3_11_210basic_jsonINSt3__13mapENS2_6vectorENS2_12basic_stringIcNS2_11char_traitsIcEENS2_9allocatorIcEEEEbxydS8_NS0_14adl_serializerENS4_IhNS8_IhEEEEvEC2IRddLi0EEEOT_)
                  a1218252    0000000e     --HOLE-- [fill = 0]
                  a1218260    00000042     BrokerMetadata.obj (.text._ZN8nlohmann16json_abi_v3_11_26detail9iter_implIKNS0_10basic_jsonINSt3__13mapENS4_6vectorENS4_12basic_stringIcNS4_11char_traitsIcEENS4_9allocatorIcEEEEbxydSA_NS0_14adl_serializerENS6_IhNSA_IhEEEEvEEE7set_endEv)
                  a12182a2    0000000e     --HOLE-- [fill = 0]
                  a12182b0    00000042     Configurer.obj (.text._ZN8nlohmann16json_abi_v3_11_26detail9iter_implINS0_10basic_jsonINSt3__13mapENS4_6vectorENS4_12basic_stringIcNS4_11char_traitsIcEENS4_9allocatorIcEEEEbxydSA_NS0_14adl_serializerENS6_IhNSA_IhEEEEvEEE7set_endEv)
                  a12182f2    0000000e     --HOLE-- [fill = 0]
                  a1218300    00000042     RPMessageEndpoint.obj (.text._ZNSt3__16__treeINS_12__value_typeINS_12basic_stringIcNS_11char_traitsIcEENS_9allocatorIcEEEEN8nlohmann16json_abi_v3_11_210basic_jsonINS_3mapENS_6vectorES7_bxydS5_NS9_14adl_serializerENSC_IhNS5_IhEEEEvEEEENS_19__map_value_compareIS7_SH_NS_4lessIvEELb1EEENS5_ISH_EEE4findIA16_cEENS_15__tree_iteratorISH_PNS_11__tree_nodeISH_PvEEiEERKT_)
                  a1218342    0000000e     --HOLE-- [fill = 0]
                  a1218350    00000042     UDPEndpoint.obj (.text._ZNSt3__16__treeINS_12__value_typeINS_12basic_stringIcNS_11char_traitsIcEENS_9allocatorIcEEEEN8nlohmann16json_abi_v3_11_210basic_jsonINS_3mapENS_6vectorES7_bxydS5_NS9_14adl_serializerENSC_IhNS5_IhEEEEvEEEENS_19__map_value_compareIS7_SH_NS_4lessIvEELb1EEENS5_ISH_EEE4findIA3_cEENS_15__tree_iteratorISH_PNS_11__tree_nodeISH_PvEEiEERKT_)
                  a1218392    0000000e     --HOLE-- [fill = 0]
                  a12183a0    00000042     Record.obj (.text._ZNSt3__16__treeINS_12__value_typeINS_12basic_stringIcNS_11char_traitsIcEENS_9allocatorIcEEEEN8nlohmann16json_abi_v3_11_210basic_jsonINS_3mapENS_6vectorES7_bxydS5_NS9_14adl_serializerENSC_IhNS5_IhEEEEvEEEENS_19__map_value_compareIS7_SH_NS_4lessIvEELb1EEENS5_ISH_EEE4findIA5_cEENS_15__tree_iteratorISH_PNS_11__tree_nodeISH_PvEEiEERKT_)
                  a12183e2    0000000e     --HOLE-- [fill = 0]
                  a12183f0    00000042     BrokerMetadata.obj (.text._ZNSt3__16__treeINS_12__value_typeINS_12basic_stringIcNS_11char_traitsIcEENS_9allocatorIcEEEEN8nlohmann16json_abi_v3_11_210basic_jsonINS_3mapENS_6vectorES7_bxydS5_NS9_14adl_serializerENSC_IhNS5_IhEEEEvEEEENS_19__map_value_compareIS7_SH_NS_4lessIvEELb1EEENS5_ISH_EEE4findIA7_cEENS_15__tree_iteratorISH_PNS_11__tree_nodeISH_PvEEiEERKT_)
                  a1218432    0000000e     --HOLE-- [fill = 0]
                  a1218440    00000042     ClusterMetadata.obj (.text._ZNSt3__16__treeINS_12__value_typeINS_12basic_stringIcNS_11char_traitsIcEENS_9allocatorIcEEEEN8nlohmann16json_abi_v3_11_210basic_jsonINS_3mapENS_6vectorES7_bxydS5_NS9_14adl_serializerENSC_IhNS5_IhEEEEvEEEENS_19__map_value_compareIS7_SH_NS_4lessIvEELb1EEENS5_ISH_EEE4findIA8_cEENS_15__tree_iteratorISH_PNS_11__tree_nodeISH_PvEEiEERKT_)
                  a1218482    0000000e     --HOLE-- [fill = 0]
                  a1218490    00000042     BrokerMetadata.obj (.text._ZNSt3__16__treeINS_12__value_typeINS_12basic_stringIcNS_11char_traitsIcEENS_9allocatorIcEEEEN8nlohmann16json_abi_v3_11_210basic_jsonINS_3mapENS_6vectorES7_bxydS5_NS9_14adl_serializerENSC_IhNS5_IhEEEEvEEEENS_19__map_value_compareIS7_SH_NS_4lessIvEELb1EEENS5_ISH_EEE4findIA9_cEENS_15__tree_iteratorISH_PNS_11__tree_nodeISH_PvEEiEERKT_)
                  a12184d2    0000000e     --HOLE-- [fill = 0]
                  a12184e0    00000042     Configurer.obj (.text._ZNSt3__16vectorIN8nlohmann16json_abi_v3_11_210basic_jsonINS_3mapES0_NS_12basic_stringIcNS_11char_traitsIcEENS_9allocatorIcEEEEbxydS8_NS2_14adl_serializerENS0_IhNS8_IhEEEEvEENS8_ISE_EEED2Ev)
                  a1218522    0000000e     --HOLE-- [fill = 0]
                  a1218530    00000040     drivers.am64x.r5f.ti-arm-clang.release.lib : ipc_rpmsg.obj (.text.RPMessage_destruct)
                  a1218570    00000040     TopicProxy.obj (.text._ZN10TopicProxy4readE16ConsumerMetadata)
                  a12185b0    00000040     Consumer.obj (.text._ZN8Consumer4pollE13TopicMetadata)
                  a12185f0    00000040     ClusterMetadata.obj (.text._ZNSt3__146__construct_backward_with_exception_guaranteesINS_9allocatorI14BrokerMetadataEEPS2_EEvRT_T0_S7_RS7_)
                  a1218630    00000040     libc++.a : string.cpp.obj (.text._ZNSt3__14stoiERKNS_12basic_stringIcNS_11char_traitsIcEENS_9allocatorIcEEEEPji)
                  a1218670    00000040     RealTopic.obj (.text._ZNSt3__16__treeINS_12__value_typeI16ConsumerMetadataiEENS_19__map_value_compareIS2_S3_NS_4lessIS2_EELb1EEENS_9allocatorIS3_EEE4findIS2_EENS_15__tree_iteratorIS3_PNS_11__tree_nodeIS3_PvEEiEERKT_)
                  a12186b0    00000040     Configurer.obj (.text._ZNSt3__16__treeINS_12__value_typeINS_12basic_stringIcNS_11char_traitsIcEENS_9allocatorIcEEEEN8nlohmann16json_abi_v3_11_210basic_jsonINS_3mapENS_6vectorES7_bxydS5_NS9_14adl_serializerENSC_IhNS5_IhEEEEvEEEENS_19__map_value_compareIS7_SH_NS_4lessIvEELb1EEENS5_ISH_EEE25__emplace_unique_key_argsIS7_JS7_DnEEENS_4pairINS_15__tree_iteratorISH_PNS_11__tree_nodeISH_PvEEiEEbEERKT_DpOT0_)
                  a12186f0    00000040     Record.obj (.text._ZNSt3__16__treeINS_12__value_typeINS_12basic_stringIcNS_11char_traitsIcEENS_9allocatorIcEEEEN8nlohmann16json_abi_v3_11_210basic_jsonINS_3mapENS_6vectorES7_bxydS5_NS9_14adl_serializerENSC_IhNS5_IhEEEEvEEEENS_19__map_value_compareIS7_SH_NS_4lessIvEELb1EEENS5_ISH_EEE25__emplace_unique_key_argsIS7_JS7_SG_EEENS_4pairINS_15__tree_iteratorISH_PNS_11__tree_nodeISH_PvEEiEEbEERKT_DpOT0_)
                  a1218730    00000040     Configurer.obj (.text._ZNSt3__16vectorIN8nlohmann16json_abi_v3_11_210basic_jsonINS_3mapES0_NS_12basic_stringIcNS_11char_traitsIcEENS_9allocatorIcEEEEbxydS8_NS2_14adl_serializerENS0_IhNS8_IhEEEEvEENS8_ISE_EEE7reserveEj)
                  a1218770    00000040     libc.a : memory.c.obj (.text.free_list_insert)
                  a12187b0    00000040            : memcmp.c.obj (.text.memcmp)
                  a12187f0    00000040     freertos.am64x.r5f.ti-arm-clang.release.lib : timers.obj (.text.prvInsertTimerInActiveList)
                  a1218830    0000003e     drivers.am64x.r5f.ti-arm-clang.release.lib : ipc_notify_v0.obj (.text.IpcNotify_registerClient)
                  a121886e    00000002     --HOLE-- [fill = 0]
                  a1218870    0000003e                                                : soc.obj (.text.SOC_controlModuleUnlockMMR)
                  a12188ae    00000002     --HOLE-- [fill = 0]
                  a12188b0    0000003e     Configurer.obj (.text._ZN8nlohmann16json_abi_v3_11_210basic_jsonINSt3__13mapENS2_6vectorENS2_12basic_stringIcNS2_11char_traitsIcEENS2_9allocatorIcEEEEbxydS8_NS0_14adl_serializerENS4_IhNS8_IhEEEEvE6createINS0_27byte_container_with_subtypeISD_EEJRKSH_EEEPT_DpOT0_)
                  a12188ee    00000002     --HOLE-- [fill = 0]
                  a12188f0    0000003e     Configurer.obj (.text._ZN8nlohmann16json_abi_v3_11_210basic_jsonINSt3__13mapENS2_6vectorENS2_12basic_stringIcNS2_11char_traitsIcEENS2_9allocatorIcEEEEbxydS8_NS0_14adl_serializerENS4_IhNS8_IhEEEEvEC2IRxxLi0EEEOT_)
                  a121892e    00000002     --HOLE-- [fill = 0]
                  a1218930    0000003e     Configurer.obj (.text._ZN8nlohmann16json_abi_v3_11_210basic_jsonINSt3__13mapENS2_6vectorENS2_12basic_stringIcNS2_11char_traitsIcEENS2_9allocatorIcEEEEbxydS8_NS0_14adl_serializerENS4_IhNS8_IhEEEEvEC2IRyyLi0EEEOT_)
                  a121896e    00000002     --HOLE-- [fill = 0]
                  a1218970    0000003e     Record.obj (.text._ZNSt3__16vectorIN8nlohmann16json_abi_v3_11_210basic_jsonINS_3mapES0_NS_12basic_stringIcNS_11char_traitsIcEENS_9allocatorIcEEEEbxydS8_NS2_14adl_serializerENS0_IhNS8_IhEEEEvEENS8_ISE_EEEC2IPKNS2_6detail8json_refISE_EEEET_NS_9enable_ifIXaasr27__is_cpp17_forward_iteratorISN_EE5valuesr16is_constructibleISE_NS_15iterator_traitsISN_E9referenceEEE5valueESN_E4typeE)
                  a12189ae    00000002     --HOLE-- [fill = 0]
                  a12189b0    0000003c     TopicMetadata.obj (.text._ZN13TopicMetadata9from_jsonERKN8nlohmann16json_abi_v3_11_210basic_jsonINSt3__13mapENS3_6vectorENS3_12basic_stringIcNS3_11char_traitsIcEENS3_9allocatorIcEEEEbxydS9_NS1_14adl_serializerENS5_IhNS9_IhEEEEvEE)
                  a12189ec    00000004     --HOLE-- [fill = 0]
                  a12189f0    0000003c     Record.obj (.text._ZN6Record9from_jsonERKN8nlohmann16json_abi_v3_11_210basic_jsonINSt3__13mapENS3_6vectorENS3_12basic_stringIcNS3_11char_traitsIcEENS3_9allocatorIcEEEEbxydS9_NS1_14adl_serializerENS5_IhNS9_IhEEEEvEE)
                  a1218a2c    00000004     --HOLE-- [fill = 0]
                  a1218a30    0000003c     UDPEndpoint.obj (.text._ZN8nlohmann16json_abi_v3_11_210basic_jsonINSt3__13mapENS2_6vectorENS2_12basic_stringIcNS2_11char_traitsIcEENS2_9allocatorIcEEEEbxydS8_NS0_14adl_serializerENS4_IhNS8_IhEEEEvEC2IRKjjLi0EEEOT_)
                  a1218a6c    00000004     --HOLE-- [fill = 0]
                  a1218a70    0000003c     RPMessageEndpoint.obj (.text._ZN8nlohmann16json_abi_v3_11_210basic_jsonINSt3__13mapENS2_6vectorENS2_12basic_stringIcNS2_11char_traitsIcEENS2_9allocatorIcEEEEbxydS8_NS0_14adl_serializerENS4_IhNS8_IhEEEEvEC2IRKttLi0EEEOT_)
                  a1218aac    00000004     --HOLE-- [fill = 0]
                  a1218ab0    0000003c     Configurer.obj (.text._ZN8nlohmann16json_abi_v3_11_210basic_jsonINSt3__13mapENS2_6vectorENS2_12basic_stringIcNS2_11char_traitsIcEENS2_9allocatorIcEEEEbxydS8_NS0_14adl_serializerENS4_IhNS8_IhEEEEvEC2IRbbLi0EEEOT_)
                  a1218aec    00000004     --HOLE-- [fill = 0]
                  a1218af0    0000003c     Configurer.obj (.text._ZNK8nlohmann16json_abi_v3_11_210basic_jsonINSt3__13mapENS2_6vectorENS2_12basic_stringIcNS2_11char_traitsIcEENS2_9allocatorIcEEEEbxydS8_NS0_14adl_serializerENS4_IhNS8_IhEEEEvEixERKSA_)
                  a1218b2c    00000004     --HOLE-- [fill = 0]
                  a1218b30    0000003c     TopicHandler.obj (.text._ZNSt3__16vectorI9RealTopicNS_9allocatorIS1_EEED2Ev)
                  a1218b6c    00000004     --HOLE-- [fill = 0]
                  a1218b70    0000003c     freertos.am64x.r5f.ti-arm-clang.release.lib : TaskP_freertos.obj (.text.vApplicationLoadHook)
                  a1218bac    00000004     --HOLE-- [fill = 0]
                  a1218bb0    0000003c                                                 : tasks.obj (.text.xTaskGetIdleTaskHandle)
                  a1218bec    00000004     --HOLE-- [fill = 0]
                  a1218bf0    0000003a                                                 : DebugP_uartLogWriter.obj (.text.DebugP_uartLogWriterPutChar)
                  a1218c2a    00000006     --HOLE-- [fill = 0]
                  a1218c30    0000003a     drivers.am64x.r5f.ti-arm-clang.release.lib : uart_dma.obj (.text.UART_dmaOpen)
                  a1218c6a    00000006     --HOLE-- [fill = 0]
                  a1218c70    0000003a     Configurer.obj (.text._ZNSt3__16vectorIN8nlohmann16json_abi_v3_11_210basic_jsonINS_3mapES0_NS_12basic_stringIcNS_11char_traitsIcEENS_9allocatorIcEEEEbxydS8_NS2_14adl_serializerENS0_IhNS8_IhEEEEvEENS8_ISE_EEEC2ERKSG_)
                  a1218caa    00000006     --HOLE-- [fill = 0]
                  a1218cb0    0000003a     freertos.am64x.r5f.ti-arm-clang.release.lib : list.obj (.text.vListInsert)
                  a1218cea    00000006     --HOLE-- [fill = 0]
                  a1218cf0    00000038     drivers.am64x.r5f.ti-arm-clang.release.lib : ipc_rpmsg_vring.obj (.text.RPMessage_vringCheckEmptyTxBuf)
                  a1218d28    00000008     --HOLE-- [fill = 0]
                  a1218d30    00000038                                                : sciclient.obj (.text.Sciclient_getCurrentContext)
                  a1218d68    00000008     --HOLE-- [fill = 0]
                  a1218d70    00000038     TopicFactory.obj (.text._ZN12TopicFactory8getTopicE13TopicMetadata)
                  a1218da8    00000008     --HOLE-- [fill = 0]
                  a1218db0    00000038     Record.obj (.text._ZNK8nlohmann16json_abi_v3_11_26detail8json_refINS0_10basic_jsonINSt3__13mapENS4_6vectorENS4_12basic_stringIcNS4_11char_traitsIcEENS4_9allocatorIcEEEEbxydSA_NS0_14adl_serializerENS6_IhNSA_IhEEEEvEEE15moved_or_copiedEv)
                  a1218de8    00000008     --HOLE-- [fill = 0]
                  a1218df0    00000038     Configurer.obj (.text._ZNSt3__16vectorIhNS_9allocatorIhEEEC2ERKS3_)
                  a1218e28    00000008     --HOLE-- [fill = 0]
                  a1218e30    00000036     freertos.am64x.r5f.ti-arm-clang.release.lib : ClockP_freertos.obj (.text.ClockP_usleep)
                  a1218e66    0000000a     --HOLE-- [fill = 0]
                  a1218e70    00000036     ti_power_clock_config.obj (.text.Module_clockSetFrequency)
                  a1218ea6    0000000a     --HOLE-- [fill = 0]
                  a1218eb0    00000036     Configurer.obj (.text._ZN8nlohmann16json_abi_v3_11_210basic_jsonINSt3__13mapENS2_6vectorENS2_12basic_stringIcNS2_11char_traitsIcEENS2_9allocatorIcEEEEbxydS8_NS0_14adl_serializerENS4_IhNS8_IhEEEEvE6createINS0_27byte_container_with_subtypeISD_EEJEEEPT_DpOT0_)
                  a1218ee6    0000000a     --HOLE-- [fill = 0]
                  a1218ef0    00000036     ClusterMetadata.obj (.text._ZNSt3__114__split_bufferI14BrokerMetadataRNS_9allocatorIS1_EEEC2EjjS4_)
                  a1218f26    0000000a     --HOLE-- [fill = 0]
                  a1218f30    00000036     Configurer.obj (.text._ZNSt3__114__split_bufferIN8nlohmann16json_abi_v3_11_210basic_jsonINS_3mapENS_6vectorENS_12basic_stringIcNS_11char_traitsIcEENS_9allocatorIcEEEEbxydS9_NS2_14adl_serializerENS5_IhNS9_IhEEEEvEERNS9_ISF_EEEC2EjjSH_)
                  a1218f66    0000000a     --HOLE-- [fill = 0]
                  a1218f70    00000036     Configurer.obj (.text._ZNSt3__16vectorIN8nlohmann16json_abi_v3_11_210basic_jsonINS_3mapES0_NS_12basic_stringIcNS_11char_traitsIcEENS_9allocatorIcEEEEbxydS8_NS2_14adl_serializerENS0_IhNS8_IhEEEEvEENS8_ISE_EEE22__base_destruct_at_endEPSE_)
                  a1218fa6    0000000a     --HOLE-- [fill = 0]
                  a1218fb0    00000036     Configurer.obj (.text._ZNSt3__16vectorIN8nlohmann16json_abi_v3_11_210basic_jsonINS_3mapES0_NS_12basic_stringIcNS_11char_traitsIcEENS_9allocatorIcEEEEbxydS8_NS2_14adl_serializerENS0_IhNS8_IhEEEEvEENS8_ISE_EEE5clearEv)
                  a1218fe6    0000000a     --HOLE-- [fill = 0]
                  a1218ff0    00000034     Configurer.obj (.text._ZN8nlohmann16json_abi_v3_11_210basic_jsonINSt3__13mapENS2_6vectorENS2_12basic_stringIcNS2_11char_traitsIcEENS2_9allocatorIcEEEEbxydS8_NS0_14adl_serializerENS4_IhNS8_IhEEEEvE6createINS3_ISA_SE_NS2_4lessIvEENS8_INS2_4pairIKSA_SE_EEEEEEJEEEPT_DpOT0_)
                  a1219024    0000000c     --HOLE-- [fill = 0]
                  a1219030    00000034     Record.obj (.text._ZN8nlohmann16json_abi_v3_11_210basic_jsonINSt3__13mapENS2_6vectorENS2_12basic_stringIcNS2_11char_traitsIcEENS2_9allocatorIcEEEEbxydS8_NS0_14adl_serializerENS4_IhNS8_IhEEEEvE6createINS4_ISE_NS8_ISE_EEEEJPKNS0_6detail8json_refISE_EESM_EEEPT_DpOT0_)
                  a1219064    0000000c     --HOLE-- [fill = 0]
                  a1219070    00000034     Configurer.obj (.text._ZN8nlohmann16json_abi_v3_11_26detail5lexerINS0_10basic_jsonINSt3__13mapENS4_6vectorENS4_12basic_stringIcNS4_11char_traitsIcEENS4_9allocatorIcEEEEbxydSA_NS0_14adl_serializerENS6_IhNSA_IhEEEEvEENS1_22iterator_input_adapterIPcEEE8skip_bomEv)
                  a12190a4    0000000c     --HOLE-- [fill = 0]
                  a12190b0    00000034     TopicFactory.obj (.text._ZNSt3__16vectorI14BrokerMetadataNS_9allocatorIS1_EEE13__vdeallocateEv)
                  a12190e4    00000034     libc.a : memory.c.obj (.text.free_list_remove)
                  a1219118    00000034     libsysbm.a : lseek.c.obj (.text.lseek)
                  a121914c    00000034                : write.c.obj (.text.write)
                  a1219180    00000034     freertos.am64x.r5f.ti-arm-clang.release.lib : tasks.obj (.text.xTaskGetTickCount)
                  a12191b4    0000000c     --HOLE-- [fill = 0]
                  a12191c0    00000032     TopicHandler.obj (.text._ZN12TopicHandlerC2E17CommunicationTypeRK6LoggerP13Communicationb)
                  a12191f2    0000000e     --HOLE-- [fill = 0]
                  a1219200    00000032     Configurer.obj (.text._ZN8nlohmann16json_abi_v3_11_210basic_jsonINSt3__13mapENS2_6vectorENS2_12basic_stringIcNS2_11char_traitsIcEENS2_9allocatorIcEEEEbxydS8_NS0_14adl_serializerENS4_IhNS8_IhEEEEvEaSESE_)
                  a1219232    0000000e     --HOLE-- [fill = 0]
                  a1219240    00000032     TopicHandler.obj (.text._ZNSt3__114__split_bufferI9RealTopicRNS_9allocatorIS1_EEED2Ev)
                  a1219272    0000000e     --HOLE-- [fill = 0]
                  a1219280    00000032     freertos.am64x.r5f.ti-arm-clang.release.lib : queue.obj (.text.xQueueCreateMutexStatic)
                  a12192b2    0000000e     --HOLE-- [fill = 0]
                  a12192c0    00000030                                                 : DebugP_shmLogReader.obj (.text.DebugP_shmLogReaderInit)
                  a12192f0    00000030     Configurer.obj (.text._ZN8nlohmann16json_abi_v3_11_210basic_jsonINSt3__13mapENS2_6vectorENS2_12basic_stringIcNS2_11char_traitsIcEENS2_9allocatorIcEEEEbxydS8_NS0_14adl_serializerENS4_IhNS8_IhEEEEvE6createINS4_ISE_NS8_ISE_EEEEJEEEPT_DpOT0_)
                  a1219320    00000030     Configurer.obj (.text._ZN8nlohmann16json_abi_v3_11_210basic_jsonINSt3__13mapENS2_6vectorENS2_12basic_stringIcNS2_11char_traitsIcEENS2_9allocatorIcEEEEbxydS8_NS0_14adl_serializerENS4_IhNS8_IhEEEEvE6createINS4_ISE_NS8_ISE_EEEEJRKSH_EEEPT_DpOT0_)
                  a1219350    00000030     Configurer.obj (.text._ZN8nlohmann16json_abi_v3_11_210basic_jsonINSt3__13mapENS2_6vectorENS2_12basic_stringIcNS2_11char_traitsIcEENS2_9allocatorIcEEEEbxydS8_NS0_14adl_serializerENS4_IhNS8_IhEEEEvE6createISA_JRA10_KcEEEPT_DpOT0_)
                  a1219380    00000030     UDPEndpoint.obj (.text._ZN8nlohmann16json_abi_v3_11_210basic_jsonINSt3__13mapENS2_6vectorENS2_12basic_stringIcNS2_11char_traitsIcEENS2_9allocatorIcEEEEbxydS8_NS0_14adl_serializerENS4_IhNS8_IhEEEEvE6createISA_JRA16_KcEEEPT_DpOT0_)
                  a12193b0    00000030     Configurer.obj (.text._ZN8nlohmann16json_abi_v3_11_210basic_jsonINSt3__13mapENS2_6vectorENS2_12basic_stringIcNS2_11char_traitsIcEENS2_9allocatorIcEEEEbxydS8_NS0_14adl_serializerENS4_IhNS8_IhEEEEvE6createISA_JRA1_KcEEEPT_DpOT0_)
                  a12193e0    00000030     Configurer.obj (.text._ZN8nlohmann16json_abi_v3_11_210basic_jsonINSt3__13mapENS2_6vectorENS2_12basic_stringIcNS2_11char_traitsIcEENS2_9allocatorIcEEEEbxydS8_NS0_14adl_serializerENS4_IhNS8_IhEEEEvE6createISA_JRA22_KcEEEPT_DpOT0_)
                  a1219410    00000030     UDPEndpoint.obj (.text._ZN8nlohmann16json_abi_v3_11_210basic_jsonINSt3__13mapENS2_6vectorENS2_12basic_stringIcNS2_11char_traitsIcEENS2_9allocatorIcEEEEbxydS8_NS0_14adl_serializerENS4_IhNS8_IhEEEEvE6createISA_JRA3_KcEEEPT_DpOT0_)
                  a1219440    00000030     Record.obj (.text._ZN8nlohmann16json_abi_v3_11_210basic_jsonINSt3__13mapENS2_6vectorENS2_12basic_stringIcNS2_11char_traitsIcEENS2_9allocatorIcEEEEbxydS8_NS0_14adl_serializerENS4_IhNS8_IhEEEEvE6createISA_JRA5_KcEEEPT_DpOT0_)
                  a1219470    00000030     BrokerMetadata.obj (.text._ZN8nlohmann16json_abi_v3_11_210basic_jsonINSt3__13mapENS2_6vectorENS2_12basic_stringIcNS2_11char_traitsIcEENS2_9allocatorIcEEEEbxydS8_NS0_14adl_serializerENS4_IhNS8_IhEEEEvE6createISA_JRA7_KcEEEPT_DpOT0_)
                  a12194a0    00000030     SystemManager.obj (.text._ZN8nlohmann16json_abi_v3_11_210basic_jsonINSt3__13mapENS2_6vectorENS2_12basic_stringIcNS2_11char_traitsIcEENS2_9allocatorIcEEEEbxydS8_NS0_14adl_serializerENS4_IhNS8_IhEEEEvE6createISA_JRA9_KcEEEPT_DpOT0_)
                  a12194d0    00000030     Configurer.obj (.text._ZN8nlohmann16json_abi_v3_11_210basic_jsonINSt3__13mapENS2_6vectorENS2_12basic_stringIcNS2_11char_traitsIcEENS2_9allocatorIcEEEEbxydS8_NS0_14adl_serializerENS4_IhNS8_IhEEEEvE6createISA_JRKSA_EEEPT_DpOT0_)
                  a1219500    00000030     libc.a : snprintf.c.obj (.text._outc)
                  a1219530    00000030            : vsnprintf.c.obj (.text._outc)
                  a1219560    00000030     freertos.am64x.r5f.ti-arm-clang.release.lib : PmuP_armv7r_asm.obj (.text.pmu)
                  a1219590    00000030                                                 : port.obj (.text.vApplicationStackOverflowHook)
                  a12195c0    0000002e                                                 : ClockP_freertos.obj (.text.ClockP_timerTickIsr)
                  a12195ee    00000002     --HOLE-- [fill = 0]
                  a12195f0    0000002e     ti_power_clock_config.obj (.text.Module_clockEnable)
                  a121961e    00000002     --HOLE-- [fill = 0]
                  a1219620    0000002e     drivers.am64x.r5f.ti-arm-clang.release.lib : uart_v0.obj (.text.UART_getHandle)
                  a121964e    00000002     --HOLE-- [fill = 0]
                  a1219650    0000002e     Configurer.obj (.text._ZN8nlohmann16json_abi_v3_11_26detail5lexerINS0_10basic_jsonINSt3__13mapENS4_6vectorENS4_12basic_stringIcNS4_11char_traitsIcEENS4_9allocatorIcEEEEbxydSA_NS0_14adl_serializerENS6_IhNSA_IhEEEEvEENS1_22iterator_input_adapterIPcEEE17get_decimal_pointEv)
                  a121967e    00000002     --HOLE-- [fill = 0]
                  a1219680    0000002e     Configurer.obj (.text._ZNSt3__114__split_bufferIN8nlohmann16json_abi_v3_11_210basic_jsonINS_3mapENS_6vectorENS_12basic_stringIcNS_11char_traitsIcEENS_9allocatorIcEEEEbxydS9_NS2_14adl_serializerENS5_IhNS9_IhEEEEvEERNS9_ISF_EEE17__destruct_at_endEPSF_)
                  a12196ae    00000002     --HOLE-- [fill = 0]
                  a12196b0    0000002e     ClusterMetadata.obj (.text._ZNSt3__16vectorI14BrokerMetadataNS_9allocatorIS1_EEE26__swap_out_circular_bufferERNS_14__split_bufferIS1_RS3_EE)
                  a12196de    00000002     --HOLE-- [fill = 0]
                  a12196e0    0000002e     Configurer.obj (.text._ZNSt3__16vectorI14BrokerMetadataNS_9allocatorIS1_EEED2Ev)
                  a121970e    00000002     --HOLE-- [fill = 0]
                  a1219710    0000002e     Configurer.obj (.text._ZNSt3__16vectorIN8nlohmann16json_abi_v3_11_210basic_jsonINS_3mapES0_NS_12basic_stringIcNS_11char_traitsIcEENS_9allocatorIcEEEEbxydS8_NS2_14adl_serializerENS0_IhNS8_IhEEEEvEENS8_ISE_EEE26__swap_out_circular_bufferERNS_14__split_bufferISE_RSF_EE)
                  a121973e    00000002     --HOLE-- [fill = 0]
                  a1219740    0000002e     freertos.am64x.r5f.ti-arm-clang.release.lib : tasks.obj (.text.vTaskExitCritical)
                  a121976e    00000002     --HOLE-- [fill = 0]
                  a1219770    0000002c     drivers.am64x.r5f.ti-arm-clang.release.lib : ipc_rpmsg.obj (.text.RPMessage_controlEndPtHandler)
                  a121979c    00000004     --HOLE-- [fill = 0]
                  a12197a0    0000002c     UDPEndpoint.obj (.text._ZN11UDPEndpointC2Ev)
                  a12197cc    00000004     --HOLE-- [fill = 0]
                  a12197d0    0000002c     RPMessageCommunication.obj (.text._ZN22RPMessageCommunicationD0Ev)
                  a12197fc    00000004     --HOLE-- [fill = 0]
                  a1219800    0000002c     Configurer.obj (.text._ZN8nlohmann16json_abi_v3_11_210basic_jsonINSt3__13mapENS2_6vectorENS2_12basic_stringIcNS2_11char_traitsIcEENS2_9allocatorIcEEEEbxydS8_NS0_14adl_serializerENS4_IhNS8_IhEEEEvEixIKcEERSE_PT_)
                  a121982c    00000004     --HOLE-- [fill = 0]
                  a1219830    0000002c     RealTopic.obj (.text._ZN9RealTopicD0Ev)
                  a121985c    00000004     --HOLE-- [fill = 0]
                  a1219860    0000002c     Configurer.obj (.text._ZNK8nlohmann16json_abi_v3_11_210basic_jsonINSt3__13mapENS2_6vectorENS2_12basic_stringIcNS2_11char_traitsIcEENS2_9allocatorIcEEEEbxydS8_NS0_14adl_serializerENS4_IhNS8_IhEEEEvEixIKcEERKSE_PT_)
                  a121988c    00000004     --HOLE-- [fill = 0]
                  a1219890    0000002c     SystemManager.obj (.text._ZNK8nlohmann16json_abi_v3_11_26detail12from_json_fnclINS0_10basic_jsonINSt3__13mapENS5_6vectorENS5_12basic_stringIcNS5_11char_traitsIcEENS5_9allocatorIcEEEEbxydSB_NS0_14adl_serializerENS7_IhNSB_IhEEEEvEERiEEDTcl9from_jsonfp_clsr3stdE7forwardIT0_Efp0_EEERKT_OSJ_)
                  a12198bc    00000004     --HOLE-- [fill = 0]
                  a12198c0    0000002c     Configurer.obj (.text._ZNSt3__110__function12__value_funcIFbiN8nlohmann16json_abi_v3_11_26detail13parse_event_tERNS3_10basic_jsonINS_3mapENS_6vectorENS_12basic_stringIcNS_11char_traitsIcEENS_9allocatorIcEEEEbxydSC_NS3_14adl_serializerENS8_IhNSC_IhEEEEvEEEEC2ERKSL_)
                  a12198ec    00000004     --HOLE-- [fill = 0]
                  a12198f0    0000002c     Configurer.obj (.text._ZNSt3__114__split_bufferI13TopicMetadataRNS_9allocatorIS1_EEE17__destruct_at_endEPS1_)
                  a121991c    00000004     --HOLE-- [fill = 0]
                  a1219920    0000002c     libc++.a : memory.cpp.obj (.text._ZNSt3__119__shared_weak_count14__release_weakEv)
                  a121994c    00000004     --HOLE-- [fill = 0]
                  a1219950    0000002c     TopicHandler.obj (.text._ZNSt3__16__treeINS_12__value_typeI16ConsumerMetadataiEENS_19__map_value_compareIS2_S3_NS_4lessIS2_EELb1EEENS_9allocatorIS3_EEE16__insert_node_atEPNS_15__tree_end_nodeIPNS_16__tree_node_baseIPvEEEERSF_SF_)
                  a121997c    00000004     --HOLE-- [fill = 0]
                  a1219980    0000002c     Configurer.obj (.text._ZNSt3__16__treeINS_12__value_typeINS_12basic_stringIcNS_11char_traitsIcEENS_9allocatorIcEEEEN8nlohmann16json_abi_v3_11_210basic_jsonINS_3mapENS_6vectorES7_bxydS5_NS9_14adl_serializerENSC_IhNS5_IhEEEEvEEEENS_19__map_value_compareIS7_SH_NS_4lessIvEELb1EEENS5_ISH_EEE16__insert_node_atEPNS_15__tree_end_nodeIPNS_16__tree_node_baseIPvEEEERSS_SS_)
                  a12199ac    0000002c     libc.a : sprintf.c.obj (.text._outs)
                  a12199d8    0000002c     libclang_rt.builtins.a : divsi3.S.obj (.text)
                  a1219a04    0000000c     --HOLE-- [fill = 0]
                  a1219a10    0000002a     drivers.am64x.r5f.ti-arm-clang.release.lib : soc.obj (.text.SOC_controlModuleLockMMR)
                  a1219a3a    00000006     --HOLE-- [fill = 0]
                  a1219a40    0000002a     TopicFactory.obj (.text._ZN12TopicFactory26retrieveClusterInformationEv)
                  a1219a6a    00000006     --HOLE-- [fill = 0]
                  a1219a70    0000002a     SystemManager.obj (.text._ZN13SystemManagerD2Ev)
                  a1219a9a    00000006     --HOLE-- [fill = 0]
                  a1219aa0    0000002a     EndpointFactory.obj (.text._ZN15EndpointFactory14createEndpointE17CommunicationType)
                  a1219aca    00000006     --HOLE-- [fill = 0]
                  a1219ad0    0000002a     Configurer.obj (.text._ZN8nlohmann16json_abi_v3_11_26detail20external_constructorILNS1_7value_tE3EE9constructINS0_10basic_jsonINSt3__13mapENS7_6vectorENS7_12basic_stringIcNS7_11char_traitsIcEENS7_9allocatorIcEEEEbxydSD_NS0_14adl_serializerENS9_IhNSD_IhEEEEvEEA10_cLi0EEEvRT_RKT0_)
                  a1219afa    00000006     --HOLE-- [fill = 0]
                  a1219b00    0000002a     UDPEndpoint.obj (.text._ZN8nlohmann16json_abi_v3_11_26detail20external_constructorILNS1_7value_tE3EE9constructINS0_10basic_jsonINSt3__13mapENS7_6vectorENS7_12basic_stringIcNS7_11char_traitsIcEENS7_9allocatorIcEEEEbxydSD_NS0_14adl_serializerENS9_IhNSD_IhEEEEvEEA16_cLi0EEEvRT_RKT0_)
                  a1219b2a    00000006     --HOLE-- [fill = 0]
                  a1219b30    0000002a     Configurer.obj (.text._ZN8nlohmann16json_abi_v3_11_26detail20external_constructorILNS1_7value_tE3EE9constructINS0_10basic_jsonINSt3__13mapENS7_6vectorENS7_12basic_stringIcNS7_11char_traitsIcEENS7_9allocatorIcEEEEbxydSD_NS0_14adl_serializerENS9_IhNSD_IhEEEEvEEA22_cLi0EEEvRT_RKT0_)
                  a1219b5a    00000006     --HOLE-- [fill = 0]
                  a1219b60    0000002a     UDPEndpoint.obj (.text._ZN8nlohmann16json_abi_v3_11_26detail20external_constructorILNS1_7value_tE3EE9constructINS0_10basic_jsonINSt3__13mapENS7_6vectorENS7_12basic_stringIcNS7_11char_traitsIcEENS7_9allocatorIcEEEEbxydSD_NS0_14adl_serializerENS9_IhNSD_IhEEEEvEEA3_cLi0EEEvRT_RKT0_)
                  a1219b8a    00000006     --HOLE-- [fill = 0]
                  a1219b90    0000002a     Record.obj (.text._ZN8nlohmann16json_abi_v3_11_26detail20external_constructorILNS1_7value_tE3EE9constructINS0_10basic_jsonINSt3__13mapENS7_6vectorENS7_12basic_stringIcNS7_11char_traitsIcEENS7_9allocatorIcEEEEbxydSD_NS0_14adl_serializerENS9_IhNSD_IhEEEEvEEA5_cLi0EEEvRT_RKT0_)
                  a1219bba    00000006     --HOLE-- [fill = 0]
                  a1219bc0    0000002a     BrokerMetadata.obj (.text._ZN8nlohmann16json_abi_v3_11_26detail20external_constructorILNS1_7value_tE3EE9constructINS0_10basic_jsonINSt3__13mapENS7_6vectorENS7_12basic_stringIcNS7_11char_traitsIcEENS7_9allocatorIcEEEEbxydSD_NS0_14adl_serializerENS9_IhNSD_IhEEEEvEEA7_cLi0EEEvRT_RKT0_)
                  a1219bea    00000006     --HOLE-- [fill = 0]
                  a1219bf0    0000002a     SystemManager.obj (.text._ZN8nlohmann16json_abi_v3_11_26detail20external_constructorILNS1_7value_tE3EE9constructINS0_10basic_jsonINSt3__13mapENS7_6vectorENS7_12basic_stringIcNS7_11char_traitsIcEENS7_9allocatorIcEEEEbxydSD_NS0_14adl_serializerENS9_IhNSD_IhEEEEvEEA9_cLi0EEEvRT_RKT0_)
                  a1219c1a    00000006     --HOLE-- [fill = 0]
                  a1219c20    0000002a     Configurer.obj (.text._ZN8nlohmann16json_abi_v3_11_26detail20external_constructorILNS1_7value_tE3EE9constructINS0_10basic_jsonINSt3__13mapENS7_6vectorENS7_12basic_stringIcNS7_11char_traitsIcEENS7_9allocatorIcEEEEbxydSD_NS0_14adl_serializerENS9_IhNSD_IhEEEEvEEEEvRT_RKNSK_8string_tE)
                  a1219c4a    00000006     --HOLE-- [fill = 0]
                  a1219c50    0000002a     Configurer.obj (.text._ZNSt3__116allocator_traitsINS_9allocatorINS_11__tree_nodeINS_12__value_typeINS_12basic_stringIcNS_11char_traitsIcEENS1_IcEEEEN8nlohmann16json_abi_v3_11_210basic_jsonINS_3mapENS_6vectorES8_bxydS1_NSA_14adl_serializerENSD_IhNS1_IhEEEEvEEEEPvEEEEE7destroyINS_4pairIKS8_SH_EEvvEEvRSL_PT_)
                  a1219c7a    00000006     --HOLE-- [fill = 0]
                  a1219c80    0000002a     embedded_kafka.obj (.text._ZNSt3__16vectorI13TopicMetadataNS_9allocatorIS1_EEE11__vallocateEj)
                  a1219caa    00000006     --HOLE-- [fill = 0]
                  a1219cb0    00000028     drivers.am64x.r5f.ti-arm-clang.release.lib : ipc_rpmsg.obj (.text.RPMessage_Params_init)
                  a1219cd8    00000008     --HOLE-- [fill = 0]
                  a1219ce0    00000028     TopicProxy.obj (.text._ZN10TopicProxyD0Ev)
                  a1219d08    00000008     --HOLE-- [fill = 0]
                  a1219d10    00000028     Broker.obj (.text._ZN6BrokerD2Ev)
                  a1219d38    00000008     --HOLE-- [fill = 0]
                  a1219d40    00000028     Configurer.obj (.text._ZN8nlohmann16json_abi_v3_11_26detail11parse_errorD0Ev)
                  a1219d68    00000008     --HOLE-- [fill = 0]
                  a1219d70    00000028     Configurer.obj (.text._ZN8nlohmann16json_abi_v3_11_26detail12out_of_rangeD0Ev)
                  a1219d98    00000008     --HOLE-- [fill = 0]
                  a1219da0    00000028     Configurer.obj (.text._ZN8nlohmann16json_abi_v3_11_26detail9exceptionD0Ev)
                  a1219dc8    00000008     --HOLE-- [fill = 0]
                  a1219dd0    00000028     RealTopic.obj (.text._ZN9RealTopicD2Ev)
                  a1219df8    00000008     --HOLE-- [fill = 0]
                  a1219e00    00000028     ClusterMetadata.obj (.text._ZNSt3__114__split_bufferI14BrokerMetadataRNS_9allocatorIS1_EEED2Ev)
                  a1219e28    00000008     --HOLE-- [fill = 0]
                  a1219e30    00000028     Configurer.obj (.text._ZNSt3__115__tree_iteratorINS_12__value_typeINS_12basic_stringIcNS_11char_traitsIcEENS_9allocatorIcEEEEN8nlohmann16json_abi_v3_11_210basic_jsonINS_3mapENS_6vectorES7_bxydS5_NS9_14adl_serializerENSC_IhNS5_IhEEEEvEEEEPNS_11__tree_nodeISH_PvEEiEppEv)
                  a1219e58    00000008     --HOLE-- [fill = 0]
                  a1219e60    00000028     embedded_kafka.obj (.text._ZNSt3__16vectorI13TopicMetadataNS_9allocatorIS1_EEE22__base_destruct_at_endEPS1_)
                  a1219e88    00000028     libc.a : _printfi.c.obj (.text.strchr)
                  a1219eb0    00000026     drivers.am64x.r5f.ti-arm-clang.release.lib : ipc_rpmsg.obj (.text.RPMessage_isLinuxCore)
                  a1219ed6    0000000a     --HOLE-- [fill = 0]
                  a1219ee0    00000026     RPMessageCommunication.obj (.text._ZN22RPMessageCommunicationD2Ev)
                  a1219f06    0000000a     --HOLE-- [fill = 0]
                  a1219f10    00000026     Configurer.obj (.text._ZNSt3__14pairIKNS_12basic_stringIcNS_11char_traitsIcEENS_9allocatorIcEEEEN8nlohmann16json_abi_v3_11_210basic_jsonINS_3mapENS_6vectorES6_bxydS4_NS9_14adl_serializerENSC_IhNS4_IhEEEEvEEEC2IJRS7_EJEEENS_21piecewise_construct_tENS_5tupleIJDpT_EEENSL_IJDpT0_EEE)
                  a1219f36    0000000a     --HOLE-- [fill = 0]
                  a1219f40    00000026     RealTopic.obj (.text._ZNSt3__16__treeINS_12__value_typeI16ConsumerMetadataiEENS_19__map_value_compareIS2_S3_NS_4lessIS2_EELb1EEENS_9allocatorIS3_EEE14__erase_uniqueIS2_EEjRKT_)
                  a1219f66    0000000a     --HOLE-- [fill = 0]
                  a1219f70    00000026     freertos.am64x.r5f.ti-arm-clang.release.lib : port.obj (.text.vPortTimerTickHandler)
                  a1219f96    0000000a     --HOLE-- [fill = 0]
                  a1219fa0    00000026                                                 : queue.obj (.text.vQueueAddToRegistry)
                  a1219fc6    0000000a     --HOLE-- [fill = 0]
                  a1219fd0    00000024     TopicProxy.obj (.text._ZN10TopicProxyD2Ev)
                  a1219ff4    0000000c     --HOLE-- [fill = 0]
                  a121a000    00000024     Configurer.obj (.text._ZN8nlohmann16json_abi_v3_11_26detail9exceptionD2Ev)
                  a121a024    0000000c     --HOLE-- [fill = 0]
                  a121a030    00000024     Configurer.obj (.text._ZNKSt3__18functionIFbiN8nlohmann16json_abi_v3_11_26detail13parse_event_tERNS2_10basic_jsonINS_3mapENS_6vectorENS_12basic_stringIcNS_11char_traitsIcEENS_9allocatorIcEEEEbxydSB_NS2_14adl_serializerENS7_IhNSB_IhEEEEvEEEEclEiS4_SI_)
                  a121a054    0000000c     --HOLE-- [fill = 0]
                  a121a060    00000024     Configurer.obj (.text._ZNSt3__16vectorIbNS_9allocatorIbEEE11__vallocateEj)
                  a121a084    0000000c     --HOLE-- [fill = 0]
                  a121a090    00000024     freertos.am64x.r5f.ti-arm-clang.release.lib : list.obj (.text.uxListRemove)
                  a121a0b4    0000000c     --HOLE-- [fill = 0]
                  a121a0c0    00000024                                                 : printf.obj (.text.vprintf_)
                  a121a0e4    0000000c     --HOLE-- [fill = 0]
                  a121a0f0    00000024                                                 : tasks.obj (.text.xTaskGetSchedulerState)
                  a121a114    00000024     libclang_rt.builtins.a : aeabi_uldivmod.S.obj (.text)
                  a121a138    00000008     --HOLE-- [fill = 0]
                  a121a140    00000022     ti_pinmux_config.obj (.text.Pinmux_init)
                  a121a162    0000000e     --HOLE-- [fill = 0]
                  a121a170    00000022     Topic.obj (.text._ZN5TopicD2Ev)
                  a121a192    0000000e     --HOLE-- [fill = 0]
                  a121a1a0    00000022     UDPEndpoint.obj (.text._ZNK11UDPEndpoint24printEndpointInformationERK6Logger)
                  a121a1c2    0000000e     --HOLE-- [fill = 0]
                  a121a1d0    00000022     RPMessageEndpoint.obj (.text._ZNK17RPMessageEndpoint24printEndpointInformationERK6Logger)
                  a121a1f2    0000000e     --HOLE-- [fill = 0]
                  a121a200    00000022     RealTopic.obj (.text._ZNK9RealTopic12getConsumersEv)
                  a121a222    0000000e     --HOLE-- [fill = 0]
                  a121a230    00000022     Configurer.obj (.text._ZNSt3__110shared_ptrIN8nlohmann16json_abi_v3_11_26detail21output_string_adapterIcNS_12basic_stringIcNS_11char_traitsIcEENS_9allocatorIcEEEEEEED2Ev)
                  a121a252    0000000e     --HOLE-- [fill = 0]
                  a121a260    00000022     Configurer.obj (.text._ZNSt3__110shared_ptrIN8nlohmann16json_abi_v3_11_26detail23output_adapter_protocolIcEEED2Ev)
                  a121a282    0000000e     --HOLE-- [fill = 0]
                  a121a290    00000022     TopicHandler.obj (.text._ZNSt3__16__treeINS_12__value_typeI16ConsumerMetadataiEENS_19__map_value_compareIS2_S3_NS_4lessIS2_EELb1EEENS_9allocatorIS3_EEE7destroyEPNS_11__tree_nodeIS3_PvEE)
                  a121a2b2    0000000e     --HOLE-- [fill = 0]
                  a121a2c0    00000022     SystemManager.obj (.text._ZNSt3__16vectorI14BrokerMetadataNS_9allocatorIS1_EEE11__vallocateEj)
                  a121a2e2    0000000e     --HOLE-- [fill = 0]
                  a121a2f0    00000022     Configurer.obj (.text._ZNSt3__16vectorIN8nlohmann16json_abi_v3_11_210basic_jsonINS_3mapES0_NS_12basic_stringIcNS_11char_traitsIcEENS_9allocatorIcEEEEbxydS8_NS2_14adl_serializerENS0_IhNS8_IhEEEEvEENS8_ISE_EEE11__vallocateEj)
                  a121a312    0000000e     --HOLE-- [fill = 0]
                  a121a320    00000022     freertos.am64x.r5f.ti-arm-clang.release.lib : tasks.obj (.text.vTaskEnterCritical)
                  a121a342    0000000e     --HOLE-- [fill = 0]
                  a121a350    00000020                                                 : DebugP_log.obj (.text.DebugP_logZoneEnable)
                  a121a370    00000020     drivers.am64x.r5f.ti-arm-clang.release.lib : soc.obj (.text.SOC_getSelfCpuClk)
                  a121a390    00000020     freertos.am64x.r5f.ti-arm-clang.release.lib : TimerP.obj (.text.TimerP_Params_init)
                  a121a3b0    00000020     BrokerMetadata.obj (.text._ZN14BrokerMetadata16addTopicMetadataE13TopicMetadata)
                  a121a3d0    00000020     CommunicationFactory.obj (.text._ZN20CommunicationFactory19createCommunicationE17CommunicationTypeRK8EndpointRK6Logger)
                  a121a3f0    00000020     Topic.obj (.text._ZN5TopicC2E13TopicMetadataRK6Logger)
                  a121a410    00000020     BrokerMetadata.obj (.text._ZN8nlohmann16json_abi_v3_11_210basic_jsonINSt3__13mapENS2_6vectorENS2_12basic_stringIcNS2_11char_traitsIcEENS2_9allocatorIcEEEEbxydS8_NS0_14adl_serializerENS4_IhNS8_IhEEEEvE2atIRA5_KcLi0EEERSE_OT_)
                  a121a430    00000020     Configurer.obj (.text._ZN8nlohmann16json_abi_v3_11_26detail5lexerINS0_10basic_jsonINSt3__13mapENS4_6vectorENS4_12basic_stringIcNS4_11char_traitsIcEENS4_9allocatorIcEEEEbxydSA_NS0_14adl_serializerENS6_IhNSA_IhEEEEvEENS1_22iterator_input_adapterIPcEEED2Ev)
                  a121a450    00000020     RPMessageEndpoint.obj (.text._ZNK8nlohmann16json_abi_v3_11_210basic_jsonINSt3__13mapENS2_6vectorENS2_12basic_stringIcNS2_11char_traitsIcEENS2_9allocatorIcEEEEbxydS8_NS0_14adl_serializerENS4_IhNS8_IhEEEEvE2atIRA16_KcLi0EEERKSE_OT_)
                  a121a470    00000020     UDPEndpoint.obj (.text._ZNK8nlohmann16json_abi_v3_11_210basic_jsonINSt3__13mapENS2_6vectorENS2_12basic_stringIcNS2_11char_traitsIcEENS2_9allocatorIcEEEEbxydS8_NS0_14adl_serializerENS4_IhNS8_IhEEEEvE2atIRA3_KcLi0EEERKSE_OT_)
                  a121a490    00000020     Record.obj (.text._ZNK8nlohmann16json_abi_v3_11_210basic_jsonINSt3__13mapENS2_6vectorENS2_12basic_stringIcNS2_11char_traitsIcEENS2_9allocatorIcEEEEbxydS8_NS0_14adl_serializerENS4_IhNS8_IhEEEEvE2atIRA5_KcLi0EEERKSE_OT_)
                  a121a4b0    00000020     BrokerMetadata.obj (.text._ZNK8nlohmann16json_abi_v3_11_210basic_jsonINSt3__13mapENS2_6vectorENS2_12basic_stringIcNS2_11char_traitsIcEENS2_9allocatorIcEEEEbxydS8_NS0_14adl_serializerENS4_IhNS8_IhEEEEvE2atIRA7_KcLi0EEERKSE_OT_)
                  a121a4d0    00000020     ClusterMetadata.obj (.text._ZNK8nlohmann16json_abi_v3_11_210basic_jsonINSt3__13mapENS2_6vectorENS2_12basic_stringIcNS2_11char_traitsIcEENS2_9allocatorIcEEEEbxydS8_NS0_14adl_serializerENS4_IhNS8_IhEEEEvE2atIRA8_KcLi0EEERKSE_OT_)
                  a121a4f0    00000020     BrokerMetadata.obj (.text._ZNK8nlohmann16json_abi_v3_11_210basic_jsonINSt3__13mapENS2_6vectorENS2_12basic_stringIcNS2_11char_traitsIcEENS2_9allocatorIcEEEEbxydS8_NS0_14adl_serializerENS4_IhNS8_IhEEEEvE2atIRA9_KcLi0EEERKSE_OT_)
                  a121a510    00000020     Configurer.obj (.text._ZNSt3__16__treeINS_12__value_typeINS_12basic_stringIcNS_11char_traitsIcEENS_9allocatorIcEEEEN8nlohmann16json_abi_v3_11_210basic_jsonINS_3mapENS_6vectorES7_bxydS5_NS9_14adl_serializerENSC_IhNS5_IhEEEEvEEEENS_19__map_value_compareIS7_SH_NS_4lessIvEELb1EEENS5_ISH_EEE5eraseENS_21__tree_const_iteratorISH_PNS_11__tree_nodeISH_PvEEiEE)
                  a121a530    00000020     Configurer.obj (.text._ZNSt3__16vectorIhNS_9allocatorIhEEE11__vallocateEj)
                  a121a550    00000020     libc.a : assert.c.obj (.text._abort_msg)
                  a121a570    00000020            : wcslen.c.obj (.text.wcslen)
                  a121a590    0000001e     drivers.am64x.r5f.ti-arm-clang.release.lib : ipc_notify_v0.obj (.text.IpcNotify_syncCallback)
                  a121a5ae    00000002     --HOLE-- [fill = 0]
                  a121a5b0    0000001e     TopicFactory.obj (.text._ZN12TopicFactoryD2Ev)
                  a121a5ce    00000002     --HOLE-- [fill = 0]
                  a121a5d0    0000001e     Configurer.obj (.text._ZN8nlohmann16json_abi_v3_11_26detail10serializerINS0_10basic_jsonINSt3__13mapENS4_6vectorENS4_12basic_stringIcNS4_11char_traitsIcEENS4_9allocatorIcEEEEbxydSA_NS0_14adl_serializerENS6_IhNSA_IhEEEEvEEED2Ev)
                  a121a5ee    00000002     --HOLE-- [fill = 0]
                  a121a5f0    0000001e     freertos.am64x.r5f.ti-arm-clang.release.lib : port.obj (.text.vApplicationGetIdleTaskMemory)
                  a121a60e    00000002     --HOLE-- [fill = 0]
                  a121a610    0000001e                                                 : port.obj (.text.vApplicationGetTimerTaskMemory)
                  a121a62e    00000002     --HOLE-- [fill = 0]
                  a121a630    0000001c     drivers.am64x.r5f.ti-arm-clang.release.lib : ipc_rpmsg_vring.obj (.text.RPMessage_vringGetTxBufLen)
                  a121a64c    00000004     --HOLE-- [fill = 0]
                  a121a650    0000001c     Configurer.obj (.text._ZN8nlohmann16json_abi_v3_11_26detail10lexer_baseINS0_10basic_jsonINSt3__13mapENS4_6vectorENS4_12basic_stringIcNS4_11char_traitsIcEENS4_9allocatorIcEEEEbxydSA_NS0_14adl_serializerENS6_IhNSA_IhEEEEvEEE15token_type_nameENSH_10token_typeE)
                  a121a66c    00000004     --HOLE-- [fill = 0]
                  a121a670    0000001c     TopicFactory.obj (.text._ZNSt3__16vectorI13TopicMetadataNS_9allocatorIS1_EEE13__vdeallocateEv)
                  a121a68c    00000004     --HOLE-- [fill = 0]
                  a121a690    0000001c     freertos.am64x.r5f.ti-arm-clang.release.lib : boot_armv7r.obj (.text._system_pre_init)
                  a121a6ac    0000001c     libc.a : _printfi.c.obj (.text.strlen)
                  a121a6c8    0000001c            : aeabi_portable.c.obj (.text.strlen)
                  a121a6e4    0000001c            : strlen.c.obj (.text.strlen)
                  a121a700    0000001c     libsysbm.a : hostrename.c.obj (.text.strlen)
                  a121a71c    00000004     --HOLE-- [fill = 0]
                  a121a720    0000001c     freertos.am64x.r5f.ti-arm-clang.release.lib : list.obj (.text.vListInsertEnd)
                  a121a73c    0000001c     libsysbm.a : memcpy32.S.obj (.text:TI_memcpy_small)
                  a121a758    0000001c     libclang_rt.builtins.a : aeabi_memset.S.obj (.text)
                  a121a774    0000000c     --HOLE-- [fill = 0]
                  a121a780    0000001a     drivers.am64x.r5f.ti-arm-clang.release.lib : ipc_notify_v0.obj (.text.IpcNotify_Params_init)
                  a121a79a    00000006     --HOLE-- [fill = 0]
                  a121a7a0    0000001a                                                : ipc_rpmsg_vring.obj (.text.RPMessage_vringGetRxBufAddr)
                  a121a7ba    00000006     --HOLE-- [fill = 0]
                  a121a7c0    0000001a                                                : ipc_rpmsg_vring.obj (.text.RPMessage_vringGetTxBufAddr)
                  a121a7da    00000006     --HOLE-- [fill = 0]
                  a121a7e0    0000001a                                                : uart_dma.obj (.text.UART_writeInterruptDma)
                  a121a7fa    00000006     --HOLE-- [fill = 0]
                  a121a800    0000001a     RPMessageEndpoint.obj (.text._ZN17RPMessageEndpointC2Ev)
                  a121a81a    00000006     --HOLE-- [fill = 0]
                  a121a820    0000001a     Configurer.obj (.text._ZNSt3__120__shared_ptr_emplaceIN8nlohmann16json_abi_v3_11_26detail21output_string_adapterIcNS_12basic_stringIcNS_11char_traitsIcEENS_9allocatorIcEEEEEENS8_ISB_EEED0Ev)
                  a121a83a    00000006     --HOLE-- [fill = 0]
                  a121a840    0000001a     freertos.am64x.r5f.ti-arm-clang.release.lib : heap_3.obj (.text.vPortFree)
                  a121a85a    00000006     --HOLE-- [fill = 0]
                  a121a860    0000001a                                                 : tasks.obj (.text.vTaskInternalSetTimeOutState)
                  a121a87a    00000006     --HOLE-- [fill = 0]
                  a121a880    00000018     ti_drivers_config.obj (.text.IpcNotify_getConfig)
                  a121a898    00000008     --HOLE-- [fill = 0]
                  a121a8a0    00000018     drivers.am64x.r5f.ti-arm-clang.release.lib : ipc_notify_v0.obj (.text.IpcNotify_isCoreEnabled)
                  a121a8b8    00000008     --HOLE-- [fill = 0]
                  a121a8c0    00000018                                                : sciclient_soc_priv.obj (.text.Sciclient_getDevId)
                  a121a8d8    00000008     --HOLE-- [fill = 0]
                  a121a8e0    00000018     TopicHandler.obj (.text._ZN12TopicHandlerD2Ev)
                  a121a8f8    00000008     --HOLE-- [fill = 0]
                  a121a900    00000018     embedded_kafka.obj (.text._ZNSt3__16vectorI13TopicMetadataNS_9allocatorIS1_EEED2Ev)
                  a121a918    00000008     --HOLE-- [fill = 0]
                  a121a920    00000018     freertos.am64x.r5f.ti-arm-clang.release.lib : tasks.obj (.text.pvTaskIncrementMutexHeldCount)
                  a121a938    00000008     --HOLE-- [fill = 0]
                  a121a940    00000018                                                 : port.obj (.text.xPortStartScheduler)
                  a121a958    00000018     libsysbm.a : memset32.S.obj (.text:TI_memset_small)
                  a121a970    00000016     ProducerRecord.obj (.text._ZN14ProducerRecordC2E13TopicMetadata6Record)
                  a121a986    0000000a     --HOLE-- [fill = 0]
                  a121a990    00000016     Configurer.obj (.text._ZNSt3__114__split_bufferI13TopicMetadataRNS_9allocatorIS1_EEED2Ev)
                  a121a9a6    0000000a     --HOLE-- [fill = 0]
                  a121a9b0    00000016     Configurer.obj (.text._ZNSt3__114__split_bufferIN8nlohmann16json_abi_v3_11_210basic_jsonINS_3mapENS_6vectorENS_12basic_stringIcNS_11char_traitsIcEENS_9allocatorIcEEEEbxydS9_NS2_14adl_serializerENS5_IhNS9_IhEEEEvEERNS9_ISF_EEED2Ev)
                  a121a9c6    0000000a     --HOLE-- [fill = 0]
                  a121a9d0    00000016     freertos.am64x.r5f.ti-arm-clang.release.lib : list.obj (.text.vListInitialise)
                  a121a9e6    0000000a     --HOLE-- [fill = 0]
                  a121a9f0    00000014                                                 : ClockP_freertos.obj (.text.ClockP_usecToTicks)
                  a121aa04    0000000c     --HOLE-- [fill = 0]
                  a121aa10    00000014     Configurer.obj (.text._ZN8nlohmann16json_abi_v3_11_214adl_serializerINSt3__112basic_stringIcNS2_11char_traitsIcEENS2_9allocatorIcEEEEvE9from_jsonIRKNS0_10basic_jsonINS2_3mapENS2_6vectorES8_bxydS6_S1_NSD_IhNS6_IhEEEEvEES8_EEDTcmclL_ZNS0_12_GLOBAL__N_19from_jsonEEclsr3stdE7forwardIT_Efp_Efp0_Ecvv_EEOSK_RT0_)
                  a121aa24    00000014     libc.a : sprintf.c.obj (.text._outc)
                  a121aa38    00000014     libsysbm.a : hostrename.c.obj (.text.strcpy)
                  a121aa4c    00000004     --HOLE-- [fill = 0]
                  a121aa50    00000012     freertos.am64x.r5f.ti-arm-clang.release.lib : TimerP.obj (.text.TimerP_clearOverflowInt)
                  a121aa62    0000000e     --HOLE-- [fill = 0]
                  a121aa70    00000012     main.obj (.text._Z13freertos_mainPv)
                  a121aa82    0000000e     --HOLE-- [fill = 0]
                  a121aa90    00000012     RPMessageEndpoint.obj (.text._ZN17RPMessageEndpointC2Ejt)
                  a121aaa2    0000000e     --HOLE-- [fill = 0]
                  a121aab0    00000012     RealTopic.obj (.text._ZN9RealTopic4readE16ConsumerMetadata)
                  a121aac2    0000000e     --HOLE-- [fill = 0]
                  a121aad0    00000010     freertos.am64x.r5f.ti-arm-clang.release.lib : ClockP_freertos.obj (.text.ClockP_ticksToUsec)
                  a121aae0    00000010     drivers.am64x.r5f.ti-arm-clang.release.lib : ipc_rpmsg.obj (.text.RPMessage_CreateParams_init)
                  a121aaf0    00000010     libc++abi.a : private_typeinfo.cpp.obj (.text._ZN10__cxxabiv117__class_type_infoD0Ev)
                  a121ab00    00000010                 : private_typeinfo.cpp.obj (.text._ZN10__cxxabiv120__si_class_type_infoD0Ev)
                  a121ab10    00000010     Configurer.obj (.text._ZNSt3__120__shared_ptr_emplaceIN8nlohmann16json_abi_v3_11_26detail21output_string_adapterIcNS_12basic_stringIcNS_11char_traitsIcEENS_9allocatorIcEEEEEENS8_ISB_EEED2Ev)
                  a121ab20    00000010     libc++abi.a : cxa_handlers.cpp.obj (.text._ZSt15get_new_handlerv)
                  a121ab30    00000010                 : cxa_virtual.cpp.obj (.text.__cxa_pure_virtual)
                  a121ab40    00000010     freertos.am64x.r5f.ti-arm-clang.release.lib : port.obj (.text.vPortYeildFromISR)
                  a121ab50    00000010                                                 : tasks.obj (.text.vTaskSuspendAll)
                  a121ab60    0000000e     ti_power_clock_config.obj (.text.PowerClock_init)
                  a121ab6e    00000002     --HOLE-- [fill = 0]
                  a121ab70    0000000e     ConsumerMetadata.obj (.text._ZNK16ConsumerMetadataltERKS_)
                  a121ab7e    00000002     --HOLE-- [fill = 0]
                  a121ab80    0000000e     freertos.am64x.r5f.ti-arm-clang.release.lib : tasks.obj (.text.vTaskMissedYield)
                  a121ab8e    00000002     --HOLE-- [fill = 0]
                  a121ab90    0000000c                                                 : DebugP_uartLogWriter.obj (.text.DebugP_uartSetDrvIndex)
                  a121ab9c    00000004     --HOLE-- [fill = 0]
                  a121aba0    0000000c     drivers.am64x.r5f.ti-arm-clang.release.lib : ipc_notify_v0.obj (.text.IpcNotify_getSelfCoreId)
                  a121abac    00000004     --HOLE-- [fill = 0]
                  a121abb0    0000000c                                                : sciclient.obj (.text.Sciclient_getSelfDevIdCore)
                  a121abbc    00000004     --HOLE-- [fill = 0]
                  a121abc0    0000000c     BrokerMetadata.obj (.text._ZN14BrokerMetadataC2EP8Endpoint)
                  a121abcc    00000004     --HOLE-- [fill = 0]
                  a121abd0    0000000c     ConsumerMetadata.obj (.text._ZN16ConsumerMetadataC2Ev)
                  a121abdc    00000004     --HOLE-- [fill = 0]
                  a121abe0    0000000c     Record.obj (.text._ZN6RecordC2Ev)
                  a121abec    00000004     --HOLE-- [fill = 0]
                  a121abf0    0000000c     freertos.am64x.r5f.ti-arm-clang.release.lib : tasks.obj (.text.xTaskGetCurrentTaskHandle)
                  a121abfc    00000004     --HOLE-- [fill = 0]
                  a121ac00    0000000a     drivers.am64x.r5f.ti-arm-clang.release.lib : csl_sec_proxy.obj (.text.CSL_secProxyGetDataAddr)
                  a121ac0a    00000006     --HOLE-- [fill = 0]
                  a121ac10    0000000a                                                : ipc_notify_v0.obj (.text.IpcNotify_sendSync)
                  a121ac1a    00000006     --HOLE-- [fill = 0]
                  a121ac20    0000000a     freertos.am64x.r5f.ti-arm-clang.release.lib : TimerP.obj (.text.TimerP_start)
                  a121ac2a    00000006     --HOLE-- [fill = 0]
                  a121ac30    0000000a     TopicMetadata.obj (.text._ZN13TopicMetadataC2Ev)
                  a121ac3a    00000006     --HOLE-- [fill = 0]
                  a121ac40    0000000a     BrokerMetadata.obj (.text._ZN14BrokerMetadataC2Ev)
                  a121ac4a    00000006     --HOLE-- [fill = 0]
                  a121ac50    0000000a     SystemManager.obj (.text._ZNK13SystemManager18getClusterMetadataEv)
                  a121ac5a    00000006     --HOLE-- [fill = 0]
                  a121ac60    0000000a     BrokerMetadata.obj (.text._ZNK14BrokerMetadata17getTopicsMetadataEv)
                  a121ac6a    00000006     --HOLE-- [fill = 0]
                  a121ac70    0000000a     ProducerRecord.obj (.text._ZNK14ProducerRecord9getRecordEv)
                  a121ac7a    00000006     --HOLE-- [fill = 0]
                  a121ac80    0000000a     Topic.obj (.text._ZNK5Topic16getTopicMetadataEv)
                  a121ac8a    00000006     --HOLE-- [fill = 0]
                  a121ac90    0000000a     freertos.am64x.r5f.ti-arm-clang.release.lib : port.obj (.text.vApplicationIdleHook)
                  a121ac9a    00000006     --HOLE-- [fill = 0]
                  a121aca0    00000008     ClusterMetadata.obj (.text._ZN15ClusterMetadata18getBrokersMetadataEv)
                  a121aca8    00000008     --HOLE-- [fill = 0]
                  a121acb0    00000008     ProducerRecord.obj (.text._ZNK14ProducerRecord16getTopicMetadataEv)
                  a121acb8    00000008     --HOLE-- [fill = 0]
                  a121acc0    00000008     libc++abi.a : stdlib_stdexcept.cpp.obj (.text._ZNKSt13runtime_error4whatEv)
                  a121acc8    00000008     --HOLE-- [fill = 0]
                  a121acd0    00000008     libc++.a : memory.cpp.obj (.text._ZNKSt3__119__shared_weak_count13__get_deleterERKSt9type_info)
                  a121acd8    00000008     --HOLE-- [fill = 0]
                  a121ace0    00000008     Configurer.obj (.text._ZNSt3__120__shared_ptr_emplaceIN8nlohmann16json_abi_v3_11_26detail21output_string_adapterIcNS_12basic_stringIcNS_11char_traitsIcEENS_9allocatorIcEEEEEENS8_ISB_EEE16__on_zero_sharedEv)
                  a121ace8    00000008     --HOLE-- [fill = 0]
                  a121acf0    00000008     freertos.am64x.r5f.ti-arm-clang.release.lib : printf.obj (.text._out_char)
                  a121acf8    00000008     --HOLE-- [fill = 0]
                  a121ad00    00000008     libc++abi.a : abort_message.cpp.obj (.text.abort_message)
                  a121ad08    00000008     --HOLE-- [fill = 0]
                  a121ad10    00000008     freertos.am64x.r5f.ti-arm-clang.release.lib : port.obj (.text.uiPortGetRunTimeCounterValue)
                  a121ad18    00000008     --HOLE-- [fill = 0]
                  a121ad20    00000006                                                 : SemaphoreP_freertos.obj (.text.SemaphoreP_destruct)
                  a121ad26    0000000a     --HOLE-- [fill = 0]
                  a121ad30    00000006     TopicFactory.obj (.text._ZN12TopicFactory8askForIDEv)
                  a121ad36    0000000a     --HOLE-- [fill = 0]
                  a121ad40    00000006     ConsumerMetadata.obj (.text._ZN16ConsumerMetadataC2EiP8Endpoint)
                  a121ad46    0000000a     --HOLE-- [fill = 0]
                  a121ad50    00000006     Configurer.obj (.text._ZN8nlohmann16json_abi_v3_11_26detail21output_string_adapterIcNSt3__112basic_stringIcNS3_11char_traitsIcEENS3_9allocatorIcEEEEE15write_characterEc)
                  a121ad56    0000000a     --HOLE-- [fill = 0]
                  a121ad60    00000006     Configurer.obj (.text._ZN8nlohmann16json_abi_v3_11_26detail21output_string_adapterIcNSt3__112basic_stringIcNS3_11char_traitsIcEENS3_9allocatorIcEEEEE16write_charactersEPKcj)
                  a121ad66    0000000a     --HOLE-- [fill = 0]
                  a121ad70    00000006     Configurer.obj (.text._ZNK8nlohmann16json_abi_v3_11_26detail9exception4whatEv)
                  a121ad76    0000000a     --HOLE-- [fill = 0]
                  a121ad80    00000006     freertos.am64x.r5f.ti-arm-clang.release.lib : port.obj (.text.prvTaskExitError)
                  a121ad86    0000000a     --HOLE-- [fill = 0]
                  a121ad90    00000006                                                 : list.obj (.text.vListInitialiseItem)
                  a121ad96    0000000a     --HOLE-- [fill = 0]
                  a121ada0    00000004     ti_board_open_close.obj (.text.Board_driversOpen)
                  a121ada4    0000000c     --HOLE-- [fill = 0]
                  a121adb0    00000004     freertos.am64x.r5f.ti-arm-clang.release.lib : ClockP_freertos.obj (.text.ClockP_getTicks)
                  a121adb4    0000000c     --HOLE-- [fill = 0]
                  a121adc0    00000004                                                 : ClockP_freertos_r5.obj (.text.ClockP_getTimerCount)
                  a121adc4    0000000c     --HOLE-- [fill = 0]
                  a121add0    00000004                                                 : ClockP_freertos_r5.obj (.text.ClockP_timerClearOverflowInt)
                  a121add4    0000000c     --HOLE-- [fill = 0]
                  a121ade0    00000004     ti_drivers_open_close.obj (.text.Drivers_open)
                  a121ade4    0000000c     --HOLE-- [fill = 0]
                  a121adf0    00000004     drivers.am64x.r5f.ti-arm-clang.release.lib : ipc_rpmsg.obj (.text.RPMessage_getLocalEndPt)
                  a121adf4    0000000c     --HOLE-- [fill = 0]
                  a121ae00    00000004     freertos.am64x.r5f.ti-arm-clang.release.lib : TaskP_freertos.obj (.text.TaskP_yield)
                  a121ae04    0000000c     --HOLE-- [fill = 0]
                  a121ae10    00000004                                                 : TimerP.obj (.text.TimerP_getCount)
                  a121ae14    0000000c     --HOLE-- [fill = 0]
                  a121ae20    00000004                                                 : TimerP.obj (.text.TimerP_getReloadCount)
                  a121ae24    0000000c     --HOLE-- [fill = 0]
                  a121ae30    00000004     libc++abi.a : private_typeinfo.cpp.obj (.text._ZN10__cxxabiv116__shim_type_infoD2Ev)
                  a121ae34    0000000c     --HOLE-- [fill = 0]
                  a121ae40    00000004     UDPEndpoint.obj (.text._ZN11UDPEndpointD0Ev)
                  a121ae44    0000000c     --HOLE-- [fill = 0]
                  a121ae50    00000004     TopicMetadata.obj (.text._ZN13TopicMetadata7setNameENSt3__112basic_stringIcNS0_11char_traitsIcEENS0_9allocatorIcEEEE)
                  a121ae54    0000000c     --HOLE-- [fill = 0]
                  a121ae60    00000004     TopicMetadata.obj (.text._ZN13TopicMetadataC2ENSt3__112basic_stringIcNS0_11char_traitsIcEENS0_9allocatorIcEEEE)
                  a121ae64    0000000c     --HOLE-- [fill = 0]
                  a121ae70    00000004     ClientMetadata.obj (.text._ZN14ClientMetadata5setIdEi)
                  a121ae74    0000000c     --HOLE-- [fill = 0]
                  a121ae80    00000004     ClientMetadata.obj (.text._ZN14ClientMetadataC2Ei)
                  a121ae84    0000000c     --HOLE-- [fill = 0]
                  a121ae90    00000004     ClusterMetadata.obj (.text._ZN15ClusterMetadataD2Ev)
                  a121ae94    0000000c     --HOLE-- [fill = 0]
                  a121aea0    00000004     ConsumerMetadata.obj (.text._ZN16ConsumerMetadata11setEndpointEP8Endpoint)
                  a121aea4    0000000c     --HOLE-- [fill = 0]
                  a121aeb0    00000004     ProducerMetadata.obj (.text._ZN16ProducerMetadataC2Ei)
                  a121aeb4    0000000c     --HOLE-- [fill = 0]
                  a121aec0    00000004     RPMessageEndpoint.obj (.text._ZN17RPMessageEndpoint18setServiceEndpointEt)
                  a121aec4    0000000c     --HOLE-- [fill = 0]
                  a121aed0    00000004     RPMessageEndpoint.obj (.text._ZN17RPMessageEndpoint9setCoreIdEj)
                  a121aed4    0000000c     --HOLE-- [fill = 0]
                  a121aee0    00000004     RPMessageEndpoint.obj (.text._ZN17RPMessageEndpointD0Ev)
                  a121aee4    0000000c     --HOLE-- [fill = 0]
                  a121aef0    00000004     Logger.obj (.text._ZN6Logger8setDebugEb)
                  a121aef4    0000000c     --HOLE-- [fill = 0]
                  a121af00    00000004     Record.obj (.text._ZN6Record7setDataENSt3__112basic_stringIcNS0_11char_traitsIcEENS0_9allocatorIcEEEE)
                  a121af04    0000000c     --HOLE-- [fill = 0]
                  a121af10    00000004     Record.obj (.text._ZN6RecordC2ENSt3__112basic_stringIcNS0_11char_traitsIcEENS0_9allocatorIcEEEE)
                  a121af14    0000000c     --HOLE-- [fill = 0]
                  a121af20    00000004     Configurer.obj (.text._ZN8nlohmann16json_abi_v3_11_26detail21output_string_adapterIcNSt3__112basic_stringIcNS3_11char_traitsIcEENS3_9allocatorIcEEEEED0Ev)
                  a121af24    0000000c     --HOLE-- [fill = 0]
                  a121af30    00000004     libc++abi.a : private_typeinfo.cpp.obj (.text._ZNK10__cxxabiv116__shim_type_info5noop1Ev)
                  a121af34    0000000c     --HOLE-- [fill = 0]
                  a121af40    00000004                 : private_typeinfo.cpp.obj (.text._ZNK10__cxxabiv116__shim_type_info5noop2Ev)
                  a121af44    0000000c     --HOLE-- [fill = 0]
                  a121af50    00000004     BrokerMetadata.obj (.text._ZNK14BrokerMetadata11getEndpointEv)
                  a121af54    0000000c     --HOLE-- [fill = 0]
                  a121af60    00000004     ClientMetadata.obj (.text._ZNK14ClientMetadata5getIdEv)
                  a121af64    0000000c     --HOLE-- [fill = 0]
                  a121af70    00000004     ConsumerMetadata.obj (.text._ZNK16ConsumerMetadata11getEndpointEv)
                  a121af74    0000000c     --HOLE-- [fill = 0]
                  a121af80    00000004     ConsumerMetadata.obj (.text._ZNK16ConsumerMetadata5getIdEv)
                  a121af84    0000000c     --HOLE-- [fill = 0]
                  a121af90    00000004     ProducerMetadata.obj (.text._ZNK16ProducerMetadata5getIdEv)
                  a121af94    0000000c     --HOLE-- [fill = 0]
                  a121afa0    00000004     RPMessageEndpoint.obj (.text._ZNK17RPMessageEndpoint18getServiceEndpointEv)
                  a121afa4    0000000c     --HOLE-- [fill = 0]
                  a121afb0    00000004     RPMessageEndpoint.obj (.text._ZNK17RPMessageEndpoint9getCoreIdEv)
                  a121afb4    0000000c     --HOLE-- [fill = 0]
                  a121afc0    00000004     libc++.a : memory.cpp.obj (.text._ZNSt3__114__shared_countD2Ev)
                  a121afc4    0000000c     --HOLE-- [fill = 0]
                  a121afd0    00000004     Configurer.obj (.text._ZNSt3__120__shared_ptr_emplaceIN8nlohmann16json_abi_v3_11_26detail21output_string_adapterIcNS_12basic_stringIcNS_11char_traitsIcEENS_9allocatorIcEEEEEENS8_ISB_EEE21__on_zero_shared_weakEv)
                  a121afd4    0000000c     --HOLE-- [fill = 0]
                  a121afe0    00000004     Configurer.obj (.text._ZNSt3__125__throw_bad_function_callEv)
                  a121afe4    0000000c     --HOLE-- [fill = 0]
                  a121aff0    00000004     libc++abi.a : stdlib_exception.cpp.obj (.text._ZNSt9exceptionD2Ev)
                  a121aff4    0000000c     --HOLE-- [fill = 0]
                  a121b000    00000004                 : stdlib_typeinfo.cpp.obj (.text._ZNSt9type_infoD2Ev)
                  a121b004    0000000c     --HOLE-- [fill = 0]
                  a121b010    00000004     Configurer.obj (.text._ZSt28__throw_bad_array_new_lengthv)
                  a121b014    0000000c     --HOLE-- [fill = 0]
                  a121b020    00000004     libc++abi.a : stdlib_new_delete.cpp.obj (.text._ZdlPv)
                  a121b024    0000000c     --HOLE-- [fill = 0]
                  a121b030    00000004     libclang_rt.builtins.a : aeabi_div0.c.obj (.text.__aeabi_idiv0)
                  a121b034    0000000c     --HOLE-- [fill = 0]
                  a121b040    00000004                            : aeabi_div0.c.obj (.text.__aeabi_ldiv0)
                  a121b044    0000000c     --HOLE-- [fill = 0]
                  a121b050    00000004     ti_dpl_config.obj (.text.putchar_)
                  a121b054    0000000c     --HOLE-- [fill = 0]
                  a121b060    00000002     ti_board_open_close.obj (.text.Board_driversClose)
                  a121b062    0000000e     --HOLE-- [fill = 0]
                  a121b070    00000002     ti_board_config.obj (.text.Board_init)
                  a121b072    0000000e     --HOLE-- [fill = 0]
                  a121b080    00000002     UDPEndpoint.obj (.text._ZN11UDPEndpointD2Ev)
                  a121b082    0000000e     --HOLE-- [fill = 0]
                  a121b090    00000002     ClientMetadata.obj (.text._ZN14ClientMetadataC2Ev)
                  a121b092    0000000e     --HOLE-- [fill = 0]
                  a121b0a0    00000002     ProducerMetadata.obj (.text._ZN16ProducerMetadataC2Ev)
                  a121b0a2    0000000e     --HOLE-- [fill = 0]
                  a121b0b0    00000002     RPMessageEndpoint.obj (.text._ZN17RPMessageEndpointD2Ev)
                  a121b0b2    0000000e     --HOLE-- [fill = 0]
                  a121b0c0    00000002     Topic.obj (.text._ZN5TopicD0Ev)
                  a121b0c2    0000000e     --HOLE-- [fill = 0]
                  a121b0d0    00000002     Configurer.obj (.text._ZN8nlohmann16json_abi_v3_11_26detail23output_adapter_protocolIcED2Ev)
                  a121b0d2    0000000e     --HOLE-- [fill = 0]
                  a121b0e0    00000002     TopicMetadata.obj (.text._ZNK13TopicMetadata7getNameEv)
                  a121b0e2    0000000e     --HOLE-- [fill = 0]
                  a121b0f0    00000002     Record.obj (.text._ZNK6Record7getDataEv)
                  a121b0f2    0000000e     --HOLE-- [fill = 0]
                  a121b100    00000002     freertos.am64x.r5f.ti-arm-clang.release.lib : printf.obj (.text._out_null)
                  a121b102    0000000e     --HOLE-- [fill = 0]
                  a121b110    00000002                                                 : port.obj (.text.vPortConfigTimerForRunTimeStats)
                  a121b112    0000000e     --HOLE-- [fill = 0]
                  a121b120    00000002                                                 : port.obj (.text.vPortValidateInterruptPriority)
                  a121b122    0000000e     --HOLE-- [fill = 0]

.rodata    0    a121b130    00009b10     
                  a121b130    00001792     Configurer.obj (.rodata.str1.1)
                  a121c8c2    00001729     Broker.obj (.rodata.str1.1)
                  a121dfeb    00001626     SystemManager.obj (.rodata.str1.1)
                  a121f611    00001256     TopicProxy.obj (.rodata.str1.1)
                  a1220867    000007b7     freertos.am64x.r5f.ti-arm-clang.release.lib : tasks.obj (.rodata.str1.1)
                  a122101e    0000076f     TopicHandler.obj (.rodata.str1.1)
                  a122178d    00000756     freertos.am64x.r5f.ti-arm-clang.release.lib : queue.obj (.rodata.str1.1)
                  a1221ee3    00000005     Configurer.obj (.rodata..L__const._ZN8nlohmann16json_abi_v3_11_26detail5lexerINS0_10basic_jsonINSt3__13mapENS4_6vectorENS4_12basic_stringIcNS4_11char_traitsIcEENS4_9allocatorIcEEEEbxydSA_NS0_14adl_serializerENS6_IhNSA_IhEEEEvEENS1_22iterator_input_adapterIPcEEE4scanEv.false_literal)
                  a1221ee8    000004f0     Configurer.obj (.rodata._ZZN8nlohmann16json_abi_v3_11_26detail9dtoa_impl36get_cached_power_for_binary_exponentEiE13kCachedPowers)
                  a12223d8    0000031a     drivers.am64x.r5f.ti-arm-clang.release.lib : ipc_rpmsg.obj (.rodata.str1.1)
                  a12226f2    000002bc     freertos.am64x.r5f.ti-arm-clang.release.lib : timers.obj (.rodata.str1.1)
                  a12229ae    000001fe     BrokerMetadata.obj (.rodata.str1.1)
                  a1222bac    000001dd     ClusterMetadata.obj (.rodata.str1.1)
                  a1222d89    000001a9     RealTopic.obj (.rodata.str1.1)
                  a1222f32    00000197     RPMessageEndpoint.obj (.rodata.str1.1)
                  a12230c9    00000190     Configurer.obj (.rodata._ZZN8nlohmann16json_abi_v3_11_26detail10serializerINS0_10basic_jsonINSt3__13mapENS4_6vectorENS4_12basic_stringIcNS4_11char_traitsIcEENS4_9allocatorIcEEEEbxydSA_NS0_14adl_serializerENS6_IhNSA_IhEEEEvEEE6decodeERhRjhE5utf8d)
                  a1223259    0000018d     embedded_kafka.obj (.rodata.str1.1)
                  a12233e6    00000180     UDPEndpoint.obj (.rodata.str1.1)
                  a1223566    0000017d     drivers.am64x.r5f.ti-arm-clang.release.lib : ipc_notify_v0.obj (.rodata.str1.1)
                  a12236e3    00000154     Record.obj (.rodata.str1.1)
                  a1223837    0000014a     TopicMetadata.obj (.rodata.str1.1)
                  a1223981    00000135     drivers.am64x.r5f.ti-arm-clang.release.lib : uart_v0.obj (.rodata.str1.1)
                  a1223ab6    00000002     Message.obj (.rodata.str1.1)
                  a1223ab8    0000012c     drivers.am64x.r5f.ti-arm-clang.release.lib : sciclient_fmwSecureProxyMap.obj (.rodata.gSciclientMap)
                  a1223be4    0000010d     freertos.am64x.r5f.ti-arm-clang.release.lib : TimerP.obj (.rodata.str1.1)
                  a1223cf1    0000010a                                                 : ClockP_freertos_r5.obj (.rodata.str1.1)
                  a1223dfb    00000005     libc.a : setlocale.c.obj (.rodata.str1.1)
                  a1223e00    00000101            : aeabi_ctype.S.obj (.rodata)
                  a1223f01    000000da     freertos.am64x.r5f.ti-arm-clang.release.lib : SemaphoreP_freertos.obj (.rodata.str1.1)
                  a1223fdb    000000c8     libc++.a : charconv.cpp.obj (.rodata._ZNSt3__113__DIGIT_TABLEE)
                  a12240a3    000000c8     Configurer.obj (.rodata._ZZN8nlohmann16json_abi_v3_11_26detail10serializerINS0_10basic_jsonINSt3__13mapENS4_6vectorENS4_12basic_stringIcNS4_11char_traitsIcEENS4_9allocatorIcEEEEbxydSA_NS0_14adl_serializerENS6_IhNSA_IhEEEEvEEE12dump_integerIhLi0EEEvT_E12digits_to_99)
                  a122416b    000000c8     Configurer.obj (.rodata._ZZN8nlohmann16json_abi_v3_11_26detail10serializerINS0_10basic_jsonINSt3__13mapENS4_6vectorENS4_12basic_stringIcNS4_11char_traitsIcEENS4_9allocatorIcEEEEbxydSA_NS0_14adl_serializerENS6_IhNSA_IhEEEEvEEE12dump_integerIxLi0EEEvT_E12digits_to_99)
                  a1224233    000000c8     Configurer.obj (.rodata._ZZN8nlohmann16json_abi_v3_11_26detail10serializerINS0_10basic_jsonINSt3__13mapENS4_6vectorENS4_12basic_stringIcNS4_11char_traitsIcEENS4_9allocatorIcEEEEbxydSA_NS0_14adl_serializerENS6_IhNSA_IhEEEEvEEE12dump_integerIyLi0EEEvT_E12digits_to_99)
                  a12242fb    000000ae     TopicFactory.obj (.rodata.str1.1)
                  a12243a9    00000003     TI_DebugLogger.obj (.rodata.str1.1)
                  a12243ac    00000090     ti_dpl_config.obj (.rodata.gMpuRegionConfig)
                  a122443c    00000004     freertos.am64x.r5f.ti-arm-clang.release.lib : CacheP_armv7r.obj (.rodata.gCacheL1dCacheLineSize)
                  a1224440    00000080     libc.a : strtod.c.obj (.rodata.digits)
                  a12244c0    00000076     RPMessageCommunication.obj (.rodata.str1.1)
                  a1224536    0000005d     freertos.am64x.r5f.ti-arm-clang.release.lib : port.obj (.rodata.str1.1)
                  a1224593    00000001     SystemManager.obj (.rodata._ZN8nlohmann16json_abi_v3_11_26detail12static_constINS1_12from_json_fnEE5valueE)
                  a1224594    00000004     freertos.am64x.r5f.ti-arm-clang.release.lib : CacheP_armv7r.obj (.rodata.gCacheL1pCacheLineSize)
                  a1224598    00000050                                                 : printf.obj (.rodata._ftoa.pow10)
                  a12245e8    00000050     drivers.am64x.r5f.ti-arm-clang.release.lib : ipc_rpmsg_vring.obj (.rodata.str1.1)
                  a1224638    0000004b                                                : uart_dma.obj (.rodata.str1.1)
                  a1224683    00000001     Configurer.obj (.rodata._ZNSt3__1L19piecewise_constructE)
                  a1224684    00000004     freertos.am64x.r5f.ti-arm-clang.release.lib : tasks.obj (.rodata.uxTopUsedPriority)
                  a1224688    00000048     libc.a : strtod.c.obj (.rodata.powerof10)
                  a12246d0    00000046     ti_drivers_open_close.obj (.rodata.str1.1)
                  a1224716    00000045     libc.a : aeabi_portable.c.obj (.rodata.str1.1)
                  a122475b    00000001     RealTopic.obj (.rodata._ZNSt3__1L19piecewise_constructE)
                  a122475c    00000044     Configurer.obj (.rodata..Lswitch.table._ZN8nlohmann16json_abi_v3_11_26detail10lexer_baseINS0_10basic_jsonINSt3__13mapENS4_6vectorENS4_12basic_stringIcNS4_11char_traitsIcEENS4_9allocatorIcEEEEbxydSA_NS0_14adl_serializerENS6_IhNSA_IhEEEEvEEE15token_type_nameENSH_10token_typeE)
                  a12247a0    00000042     ti_drivers_config.obj (.rodata.str1.1)
                  a12247e2    0000003f     libc++abi.a : cxa_virtual.cpp.obj (.rodata.str1.1)
                  a1224821    0000003f     main.obj (.rodata.str1.1)
                  a1224860    0000002d     freertos.am64x.r5f.ti-arm-clang.release.lib : DebugP_log.obj (.rodata.str1.1)
                  a122488d    00000003     --HOLE-- [fill = 0]
                  a1224890    00000028     libc++.a : string.cpp.obj (.rodata._ZNSt3__16__itoaL10__pow10_32E)
                  a12248b8    00000028     libc++abi.a : private_typeinfo.cpp.obj (.rodata._ZTVN10__cxxabiv117__class_type_infoE)
                  a12248e0    00000028                 : private_typeinfo.cpp.obj (.rodata._ZTVN10__cxxabiv120__si_class_type_infoE)
                  a1224908    00000025                 : private_typeinfo.cpp.obj (.rodata._ZTSN10__cxxabiv120__si_class_type_infoE)
                  a122492d    00000003     --HOLE-- [fill = 0]
                  a1224930    00000024     TopicProxy.obj (.rodata._ZTV10TopicProxy)
                  a1224954    00000024     Topic.obj (.rodata._ZTV5Topic)
                  a1224978    00000024     RealTopic.obj (.rodata._ZTV9RealTopic)
                  a122499c    00000024     libc++.a : string.cpp.obj (.rodata.str1.1)
                  a12249c0    00000022     libc++abi.a : private_typeinfo.cpp.obj (.rodata._ZTSN10__cxxabiv117__class_type_infoE)
                  a12249e2    00000022     libc.a : _printfi.c.obj (.rodata.str1.1)
                  a1224a04    00000021     libc++abi.a : private_typeinfo.cpp.obj (.rodata._ZTSN10__cxxabiv116__shim_type_infoE)
                  a1224a25    00000003     --HOLE-- [fill = 0]
                  a1224a28    0000001c     UDPEndpoint.obj (.rodata._ZTV11UDPEndpoint)
                  a1224a44    0000001c     RPMessageEndpoint.obj (.rodata._ZTV17RPMessageEndpoint)
                  a1224a60    0000001c     Configurer.obj (.rodata._ZTVNSt3__120__shared_ptr_emplaceIN8nlohmann16json_abi_v3_11_26detail21output_string_adapterIcNS_12basic_stringIcNS_11char_traitsIcEENS_9allocatorIcEEEEEENS8_ISB_EEEE)
                  a1224a7c    00000004     --HOLE-- [fill = 0]
                  a1224a80    00000018     Configurer.obj (.rodata..Lconstinit.200)
                  a1224a98    00000018     Configurer.obj (.rodata..Lconstinit.201)
                  a1224ab0    00000018     Configurer.obj (.rodata..Lconstinit.202)
                  a1224ac8    00000018     drivers.am64x.r5f.ti-arm-clang.release.lib : sciclient_soc_priv.obj (.rodata..Lswitch.table.Sciclient_getDevId)
                  a1224ae0    00000018     RPMessageCommunication.obj (.rodata._ZTV22RPMessageCommunication)
                  a1224af8    00000018     Configurer.obj (.rodata._ZTVN8nlohmann16json_abi_v3_11_26detail21output_string_adapterIcNSt3__112basic_stringIcNS3_11char_traitsIcEENS3_9allocatorIcEEEEEE)
                  a1224b10    00000015     freertos.am64x.r5f.ti-arm-clang.release.lib : DebugP_shmLogReader_freertos.obj (.rodata.str1.1)
                  a1224b25    00000003     --HOLE-- [fill = 0]
                  a1224b28    00000014     Configurer.obj (.rodata._ZTVN8nlohmann16json_abi_v3_11_26detail11parse_errorE)
                  a1224b3c    00000014     Configurer.obj (.rodata._ZTVN8nlohmann16json_abi_v3_11_26detail12out_of_rangeE)
                  a1224b50    00000014     Configurer.obj (.rodata._ZTVN8nlohmann16json_abi_v3_11_26detail9exceptionE)
                  a1224b64    00000014     libc++abi.a : stdlib_stdexcept.cpp.obj (.rodata._ZTVSt13runtime_error)
                  a1224b78    00000012                 : stdlib_stdexcept.cpp.obj (.rodata._ZTSSt13runtime_error)
                  a1224b8a    00000012     freertos.am64x.r5f.ti-arm-clang.release.lib : printf.obj (.rodata.str1.1)
                  a1224b9c    00000010     TI_DebugLogger.obj (.rodata._ZTV14TI_DebugLogger)
                  a1224bac    00000004     --HOLE-- [fill = 0]
                  a1224bb0    00000010     UDPEndpoint.obj (.rodata.cst16)
                  a1224bc0    0000000d     libc++abi.a : stdlib_exception.cpp.obj (.rodata._ZTSSt9exception)
                  a1224bcd    0000000d                 : stdlib_typeinfo.cpp.obj (.rodata._ZTSSt9type_info)
                  a1224bda    00000002     --HOLE-- [fill = 0]
                  a1224bdc    0000000c     Configurer.obj (.rodata..Lswitch.table._ZN8nlohmann16json_abi_v3_11_26detail19json_sax_dom_parserINS0_10basic_jsonINSt3__13mapENS4_6vectorENS4_12basic_stringIcNS4_11char_traitsIcEENS4_9allocatorIcEEEEbxydSA_NS0_14adl_serializerENS6_IhNSA_IhEEEEvEEE11start_arrayEj)
                  a1224be8    0000000c     libc++abi.a : private_typeinfo.cpp.obj (.rodata._ZTIN10__cxxabiv116__shim_type_infoE)
                  a1224bf4    0000000c                 : private_typeinfo.cpp.obj (.rodata._ZTIN10__cxxabiv117__class_type_infoE)
                  a1224c00    0000000c                 : private_typeinfo.cpp.obj (.rodata._ZTIN10__cxxabiv120__si_class_type_infoE)
                  a1224c0c    0000000c                 : stdlib_stdexcept.cpp.obj (.rodata._ZTISt13runtime_error)
                  a1224c18    0000000c     ti_dpl_config.obj (.rodata.gMpuConfig)
                  a1224c24    00000008     libc++abi.a : stdlib_exception.cpp.obj (.rodata._ZTISt9exception)
                  a1224c2c    00000008                 : stdlib_typeinfo.cpp.obj (.rodata._ZTISt9type_info)
                  a1224c34    00000008     ti_dpl_config.obj (.rodata.gCacheConfig)
                  a1224c3c    00000004     --HOLE-- [fill = 0]

.bss       0    a1224c40    00008da0     UNINITIALIZED
                  a1224c40    00004000     main.obj (.bss.gMainTaskStack)
                  a1228c40    00001008     (.common:gHwiCtrl)
                  a1229c48    00000014     freertos.am64x.r5f.ti-arm-clang.release.lib : timers.obj (.bss.xActiveTimerList1)
                  a1229c5c    00000004                                                 : DebugP_shmLogReader_freertos.obj (.bss.gDebugShmLogReaderTask)
                  a1229c60    00001000                                                 : DebugP_shmLogReader_freertos.obj (.bss.gDebugShmLogReaderTaskStack)
                  a122ac60    00001000                                                 : port.obj (.bss.uxIdleTaskStack)
                  a122bc60    00000b2c     (.common:gIpcRpmsgCtrl)
                  a122c78c    00000400                                                 : port.obj (.bss.uxTimerTaskStack)
                  a122cb8c    00000280     ti_drivers_config.obj (.bss.gUartObjects)
                  a122ce0c    00000280     freertos.am64x.r5f.ti-arm-clang.release.lib : tasks.obj (.bss.pxReadyTasksLists)
                  a122d08c    00000120     libsysbm.a : trgmsg.c.obj (.bss:_CIOBUF_)
                  a122d1ac    00000100     freertos.am64x.r5f.ti-arm-clang.release.lib : timers.obj (.bss.prvCheckForValidListAndQueue.ucStaticTimerQueueStorage)
                  a122d2ac    00000100     (.common:xQueueRegistry)
                  a122d3ac    000000a8     (.common:gIpcNotifyCtrl)
                  a122d454    000000a0     (.common:__TI_tmpnams)
                  a122d4f4    00000004     main.obj (.bss.gMainTask)
                  a122d4f8    000000a0     (.common:gTaskP_ctrl)
                  a122d598    00000098     freertos.am64x.r5f.ti-arm-clang.release.lib : DebugP_freertos.obj (.bss.gDebugLogLockObj)
                  a122d630    00000094     (.common:gDebugShmLogReaderCtrl)
                  a122d6c4    0000008c                                                 : DebugP_shmLogReader_freertos.obj (.bss.gDebugShmLogReaderTaskObj)
                  a122d750    0000008c                                                 : port.obj (.bss.xIdleTaskTCB)
                  a122d7dc    0000008c                                                 : port.obj (.bss.xTimerTaskTCB)
                  a122d868    00000050                                                 : timers.obj (.bss.prvCheckForValidListAndQueue.xStaticTimerQueue)
                  a122d8b8    00000050     (.common:gRovDummyQueue)
                  a122d908    00000038     (.common:gClockCtrl)
                  a122d940    00000014                                                 : timers.obj (.bss.xActiveTimerList2)
                  a122d954    00000014                                                 : tasks.obj (.bss.xDelayedTaskList1)
                  a122d968    00000014                                                 : tasks.obj (.bss.xDelayedTaskList2)
                  a122d97c    00000014                                                 : tasks.obj (.bss.xPendingReadyList)
                  a122d990    00000014                                                 : tasks.obj (.bss.xSuspendedTaskList)
                  a122d9a4    00000014                                                 : tasks.obj (.bss.xTasksWaitingTermination)
                  a122d9b8    00000008     (.common:parmbuf)
                  a122d9c0    00000004                                                 : HwiP_armv7r_handlers_freertos.obj (.bss.gdummy)
                  a122d9c4    00000004                                                 : HwiP_armv7r_vim.obj (.bss.gdummy)
                  a122d9c8    00000004                                                 : timers.obj (.bss.pxCurrentTimerList)
                  a122d9cc    00000004                                                 : tasks.obj (.bss.pxDelayedTaskList)
                  a122d9d0    00000004                                                 : tasks.obj (.bss.pxOverflowDelayedTaskList)
                  a122d9d4    00000004                                                 : timers.obj (.bss.pxOverflowTimerList)
                  a122d9d8    00000004     libc.a : memory.c.obj (.bss.sys_free)
                  a122d9dc    00000004     (.common:gUartHandle)

.sysmem    0    a122d9e0    00008000     UNINITIALIZED
                  a122d9e0    00000010     libc.a : memory.c.obj (.sysmem)
                  a122d9f0    00007ff0     --HOLE--

.stack     0    a12359e0    00004000     UNINITIALIZED
                  a12359e0    00000004     freertos.am64x.r5f.ti-arm-clang.release.lib : boot_armv7r_asm.obj (.stack)
                  a12359e4    00003ffc     --HOLE--

.data      0    a12399e0    000006a0     
                  a12399e0    000000f0     libc.a : defs.c.obj (.data._ftable)
                  a1239ad0    000000c0     EndpointFactory.obj (.data._ZL9msgObject)
                  a1239b90    0000009c     drivers.am64x.r5f.ti-arm-clang.release.lib : uart_v0.obj (.data.gUartDrvObj)
                  a1239c2c    00000093                                                : ipc_notify_v0_cfg.obj (.data.gIpcNotifyMailboxConfig)
                  a1239cbf    00000001                                                : sciclient.obj (.data.gSecHeaderSizeWords)
                  a1239cc0    0000008c     main.obj (.data.gMainTaskObj)
                  a1239d4c    00000078     libsysbm.a : host_device.c.obj (.data._device)
                  a1239dc4    00000060     drivers.am64x.r5f.ti-arm-clang.release.lib : ipc_notify_v0_cfg.obj (.data.gIpcNotifyInterruptConfig_r5fss0_1)
                  a1239e24    00000054     ti_drivers_open_close.obj (.data.gUartParams)
                  a1239e78    00000050     libsysbm.a : host_device.c.obj (.data._stream)
                  a1239ec8    00000038     libc.a : setlocale.c.obj (.data.C_locale)
                  a1239f00    00000024     drivers.am64x.r5f.ti-arm-clang.release.lib : ipc_notify_v0_cfg.obj (.data.gIpcNotifyMailboxBaseAddr)
                  a1239f24    00000004     freertos.am64x.r5f.ti-arm-clang.release.lib : tasks.obj (.data.FreeRTOS_errno)
                  a1239f28    00000020     drivers.am64x.r5f.ti-arm-clang.release.lib : sciclient_soc_priv.obj (.data.gSciclientSecProxyCfg)
                  a1239f48    00000018     ti_pinmux_config.obj (.data.gPinMuxMainDomainCfg)
                  a1239f60    00000018     ti_power_clock_config.obj (.data.gSocModulesClockFrequency)
                  a1239f78    00000014     ti_dpl_config.obj (.data.gClockConfig)
                  a1239f8c    00000004     EndpointFactory.obj (.data._ZN15EndpointFactory12freeEndpointE)
                  a1239f90    0000000c     freertos.am64x.r5f.ti-arm-clang.release.lib : AddrTranslateP.obj (.data.gAddrTranslateConfig)
                  a1239f9c    00000008     libc.a : exit.c.obj (.data..L_MergedGlobals)
                  a1239fa4    00000008     ti_pinmux_config.obj (.data.gPinMuxMcuDomainCfg)
                  a1239fac    00000008     ti_power_clock_config.obj (.data.gSocModules)
                  a1239fb4    00000008     ti_drivers_config.obj (.data.gUartAttrs)
                  a1239fbc    00000008     ti_drivers_config.obj (.data.gUartConfig)
                  a1239fc4    00000004     libc.a : defs.c.obj (.data.__TI_ft_end)
                  a1239fc8    00000008     freertos.am64x.r5f.ti-arm-clang.release.lib : PmuP_armv7r.obj (.data.pmu)
                  a1239fd0    00000008                                                 : TaskP_freertos.obj (.data.vApplicationLoadHook.lastUpdateTime)
                  a1239fd8    00000004     libc.a : aeabi_portable.c.obj (.data.__aeabi_errno)
                  a1239fdc    00000004     libc++abi.a : cxa_default_handlers.cpp.obj (.data.__cxa_new_handler)
                  a1239fe0    00000004     libc.a : _lock.c.obj (.data._lock)
                  a1239fe4    00000004            : _lock.c.obj (.data._unlock)
                  a1239fe8    00000004     freertos.am64x.r5f.ti-arm-clang.release.lib : DebugP_log.obj (.data.gDebugLogZone)
                  a1239fec    00000004                                                 : DebugP_uartLogWriter.obj (.data.gDebugP_uartDrvIndex)
                  a1239ff0    00000004     ti_dpl_config.obj (.data.gHwiConfig)
                  a1239ff4    00000004     drivers.am64x.r5f.ti-arm-clang.release.lib : ipc_notify_v0_cfg.obj (.data.gIpcNotifyInterruptConfigNum_r5fss0_1)
                  a1239ff8    00000004     embedded_kafka.obj (.data.gMsgEchoCount)
                  a1239ffc    00000004     drivers.am64x.r5f.ti-arm-clang.release.lib : sciclient.obj (.data.gSciclientHandle.0)
                  a123a000    00000004                                                : sciclient.obj (.data.gSciclientHandle.2)
                  a123a004    00000004                                                : sciclient.obj (.data.gSciclientHandle.3)
                  a123a008    00000004                                                : sciclient.obj (.data.gSciclientHandle.4)
                  a123a00c    00000004                                                : sciclient.obj (.data.gSciclientHandle.5)
                  a123a010    00000004     ti_drivers_config.obj (.data.gUartConfigNum)
                  a123a014    00000004     ti_drivers_config.obj (.data.gUartDmaConfigNum)
                  a123a018    00000004     libc.a : rand.c.obj (.data.next)
                  a123a01c    00000004     freertos.am64x.r5f.ti-arm-clang.release.lib : timers.obj (.data.prvSampleTimeNow.xLastTime)
                  a123a020    00000004                                                 : tasks.obj (.data.pxCurrentTCB)
                  a123a024    00000004                                                 : port.obj (.data.ulPortInterruptNesting)
                  a123a028    00000004                                                 : port.obj (.data.ulPortSchedularRunning)
                  a123a02c    00000004                                                 : port.obj (.data.ulPortTaskHasFPUContext)
                  a123a030    00000004                                                 : port.obj (.data.ulPortYieldRequired)
                  a123a034    00000004                                                 : tasks.obj (.data.ulTaskSwitchedInTime)
                  a123a038    00000004                                                 : tasks.obj (.data.ulTotalRunTime)
                  a123a03c    00000004                                                 : tasks.obj (.data.uxCurrentNumberOfTasks)
                  a123a040    00000004                                                 : tasks.obj (.data.uxDeletedTasksWaitingCleanUp)
                  a123a044    00000004                                                 : tasks.obj (.data.uxSchedulerSuspended)
                  a123a048    00000004                                                 : tasks.obj (.data.uxTaskNumber)
                  a123a04c    00000004                                                 : tasks.obj (.data.uxTopReadyPriority)
                  a123a050    00000004                                                 : tasks.obj (.data.xIdleTaskHandle)
                  a123a054    00000004                                                 : tasks.obj (.data.xNextTaskUnblockTime)
                  a123a058    00000004                                                 : tasks.obj (.data.xNumOfOverflows)
                  a123a05c    00000004                                                 : tasks.obj (.data.xPendedTicks)
                  a123a060    00000004                                                 : tasks.obj (.data.xSchedulerRunning)
                  a123a064    00000004                                                 : tasks.obj (.data.xTickCount)
                  a123a068    00000004                                                 : timers.obj (.data.xTimerQueue)
                  a123a06c    00000004                                                 : timers.obj (.data.xTimerTaskHandle)
                  a123a070    00000004                                                 : tasks.obj (.data.xYieldPending)
                  a123a074    00000001                                                 : DebugP_freertos.obj (.data.gDebugLogIsInitDone)
                  a123a075    00000003     --HOLE-- [fill = 0]
                  a123a078    00000001     libc.a : memory.c.obj (.data.memory_is_initialized)
                  a123a079    00000007     --HOLE-- [fill = 0]

.irqstack 
*          0    a123a080    00000100     UNINITIALIZED
                  a123a080    00000100     --HOLE--

.fiqstack 
*          0    a123a180    00000100     UNINITIALIZED
                  a123a180    00000100     --HOLE--

.svcstack 
*          0    a123a280    00001000     UNINITIALIZED
                  a123a280    00001000     --HOLE--

.abortstack 
*          0    a123b280    00000100     UNINITIALIZED
                  a123b280    00000100     --HOLE--

.undefinedstack 
*          0    a123b380    00000100     UNINITIALIZED
                  a123b380    00000100     --HOLE--

.bss.log_shared_mem 
*          0    701d0080    00003800     NOLOAD SECTION
                  701d0080    00003800     ti_dpl_config.obj (.bss.log_shared_mem)

.bss.ipc_vring_mem 
*          0    701d4000    00008ac0     NOLOAD SECTION
                  701d4000    00008ac0     ti_drivers_config.obj (.bss.ipc_vring_mem)

.ARM.exidx 
*          0    00001108    00000008     
                  00001108    00000008     (.ARM.exidx.vectors:freertos.am64x.r5f.ti-arm-clang.release.lib<HwiP_armv7r_vectors_freertos_asm.obj>)

MODULE SUMMARY

       Module                                 code     ro data   rw data
       ------                                 ----     -------   -------
    obj/release/
       Configurer.obj                         32886    8568      0      
       ti_drivers_config.obj                  282      66        36184  
       main.obj                               158      63        16528  
       ti_dpl_config.obj                      96       164       14360  
       Broker.obj                             2098     5929      0      
       SystemManager.obj                      1256     5671      0      
       TopicProxy.obj                         1434     4730      0      
       TopicHandler.obj                       2640     1903      0      
       embedded_kafka.obj                     1592     397       4      
       BrokerMetadata.obj                     1314     510       0      
       TopicFactory.obj                       1456     174       0      
       RealTopic.obj                          1082     462       0      
       Record.obj                             1116     340       0      
       UDPEndpoint.obj                        1024     428       0      
       ClusterMetadata.obj                    824      477       0      
       RPMessageEndpoint.obj                  776      435       0      
       Message.obj                            888      2         0      
       RPMessageCommunication.obj             432      142       0      
       TopicMetadata.obj                      80       330       0      
       EndpointFactory.obj                    122      0         196    
       Consumer.obj                           308      0         0      
       ti_drivers_open_close.obj              80       70        88     
       TI_DebugLogger.obj                     212      19        0      
       Producer.obj                           226      0         0      
       ti_power_clock_config.obj              114      0         32     
       Topic.obj                              78       36        0      
       CommunicationUtils.obj                 72       0         0      
       ti_pinmux_config.obj                   34       0         32     
       ConsumerMetadata.obj                   44       0         0      
       ProducerRecord.obj                     40       0         0      
       CommunicationFactory.obj               32       0         0      
       ClientMetadata.obj                     14       0         0      
       ProducerMetadata.obj                   10       0         0      
       ti_board_open_close.obj                6        0         0      
       Logger.obj                             4        0         0      
       ti_board_config.obj                    2        0         0      
    +--+--------------------------------------+--------+---------+---------+
       Total:                                 52832    30916     67424  
                                                                        
    /home/thomas/ti/mcu_plus_sdk_am64x_08_05_00_24/source/drivers/lib/drivers.am64x.r5f.ti-arm-clang.release.lib
       ipc_rpmsg.obj                          1804     794       2860   
       uart_v0.obj                            3460     309       156    
       ipc_notify_v0.obj                      1542     381       168    
       sciclient.obj                          1270     0         21     
       ipc_rpmsg_vring.obj                    1124     80        0      
       sciclient_pm.obj                       1184     0         0      
       soc.obj                                544      0         0      
       uart_dma.obj                           254      75        0      
       sciclient_fmwSecureProxyMap.obj        0        300       0      
       ipc_notify_v0_cfg.obj                  0        0         283    
       pinmux.obj                             188      0         0      
       sciclient_soc_priv.obj                 104      24        32     
       csl_sec_proxy.obj                      10       0         0      
    +--+--------------------------------------+--------+---------+---------+
       Total:                                 11484    1963      3520   
                                                                        
    /home/thomas/ti/mcu_plus_sdk_am64x_08_05_00_24/source/kernel/freertos/lib/freertos.am64x.r5f.ti-arm-clang.release.lib
       tasks.obj                              4172     1979      812    
       port.obj                               356      93        5416   
       queue.obj                              3124     1878      256    
       HwiP_armv7r_vim.obj                    1146     0         4108   
       DebugP_shmLogReader_freertos.obj       80       21        4240   
       printf.obj                             3952     98        0      
       timers.obj                             1184     700       396    
       CacheP_armv7r_asm.obj                  848      0         0      
       TimerP.obj                             516      269       0      
       SemaphoreP_freertos.obj                370      218       80     
       ClockP_freertos_r5.obj                 318      266       0      
       HwiP_armv7r_handlers_freertos.obj      526      0         4      
       DebugP_shmLogReader.obj                362      0         148    
       portASM.obj                            500      0         0      
       MpuP_armv7r.obj                        436      0         0      
       TaskP_freertos.obj                     238      0         168    
       ClockP_freertos.obj                    216      0         56     
       DebugP_freertos.obj                    118      0         153    
       CacheP_armv7r.obj                      246      8         0      
       boot_armv7r_asm.obj                    252      0         0      
       DebugP_log.obj                         162      45        4      
       HwiP_armv7r_asm.obj                    160      0         0      
       list.obj                               150      0         0      
       MpuP_armv7r_asm.obj                    128      0         0      
       AddrTranslateP.obj                     104      0         12     
       PmuP_armv7r.obj                        100      0         8      
       DebugP_uartLogWriter.obj               70       0         4      
       HwiP_armv7r_vectors_freertos_asm.obj   64       0         0      
       PmuP_armv7r_asm.obj                    56       0         0      
       boot_armv7r.obj                        40       0         0      
       heap_3.obj                             26       0         0      
    +--+--------------------------------------+--------+---------+---------+
       Total:                                 20020    5575      15865  
                                                                        
    /home/thomas/ti/ti-cgt-armllvm_2.1.2.LTS/lib/armv7r-ti-none-eabihf/c/libc.a
       _printfi.c.obj                         6516     34        0      
       strtod.c.obj                           1228     200       0      
       memory.c.obj                           1172     0         5      
       strtoll.c.obj                          652      0         0      
       strtoull.c.obj                         560      0         0      
       strtol.c.obj                           520      0         0      
       fputs.c.obj                            420      0         0      
       defs.c.obj                             0        0         404    
       setvbuf.c.obj                          324      0         0      
       s_scalbn.c.obj                         320      0         0      
       getdevice.c.obj                        308      0         0      
       fflush.c.obj                           304      0         0      
       aeabi_ctype.S.obj                      0        257       0      
       snprintf.c.obj                         256      0         0      
       vsnprintf.c.obj                        240      0         0      
       fputc.c.obj                            232      0         0      
       aeabi_portable.c.obj                   156      69        4      
       fseek.c.obj                            184      0         0      
       fclose.c.obj                           180      0         0      
       fprintf.c.obj                          160      0         0      
       _io_perm.c.obj                         156      0         0      
       sprintf.c.obj                          152      0         0      
       _ltoa.c.obj                            136      0         0      
       s_frexp.c.obj                          124      0         0      
       exit.c.obj                             108      0         8      
       atoi.c.obj                             112      0         0      
       autoinit.c.obj                         88       0         0      
       fopen.c.obj                            88       0         0      
       rand.c.obj                             76       0         4      
       memmov.c.obj                           76       0         0      
       setlocale.c.obj                        12       5         56     
       memccpy.c.obj                          72       0         0      
       memchr.c.obj                           68       0         0      
       memcmp.c.obj                           64       0         0      
       assert.c.obj                           32       0         0      
       wcslen.c.obj                           32       0         0      
       strlen.c.obj                           28       0         0      
       _lock.c.obj                            4        0         8      
    +--+--------------------------------------+--------+---------+---------+
       Total:                                 15160    565       489    
                                                                        
    /home/thomas/ti/ti-cgt-armllvm_2.1.2.LTS/lib/armv7r-ti-none-eabihf/c/libsysbm.a
       trgmsg.c.obj                           176      0         288    
       hostrename.c.obj                       208      0         0      
       host_device.c.obj                      0        0         200    
       hostopen.c.obj                         148      0         8      
       hostlseek.c.obj                        152      0         0      
       close.c.obj                            140      0         0      
       hostread.c.obj                         132      0         0      
       hostwrite.c.obj                        132      0         0      
       hostunlink.c.obj                       108      0         0      
       hostclose.c.obj                        96       0         0      
       unlink.c.obj                           72       0         0      
       lseek.c.obj                            52       0         0      
       write.c.obj                            52       0         0      
       memcpy32.S.obj                         28       0         0      
       memset32.S.obj                         24       0         0      
       remove.c.obj                           4        0         0      
    +--+--------------------------------------+--------+---------+---------+
       Total:                                 1524     0         496    
                                                                        
    /home/thomas/ti/ti-cgt-armllvm_2.1.2.LTS/lib/armv7r-ti-none-eabihf/libc++.a
       string.cpp.obj                         5468     76        0      
       charconv.cpp.obj                       852      200       0      
       stdexcept.cpp.obj                      176      0         0      
       memory.cpp.obj                         64       0         0      
    +--+--------------------------------------+--------+---------+---------+
       Total:                                 6560     276       0      
                                                                        
    /home/thomas/ti/ti-cgt-armllvm_2.1.2.LTS/lib/armv7r-ti-none-eabihf/libc++abi.a
       private_typeinfo.cpp.obj               2292     220       0      
       stdlib_stdexcept.cpp.obj               188      50        0      
       stdlib_new_delete.cpp.obj              84       0         0      
       cxa_virtual.cpp.obj                    16       63        0      
       stdlib_exception.cpp.obj               12       21        0      
       stdlib_typeinfo.cpp.obj                4        21        0      
       cxa_handlers.cpp.obj                   16       0         0      
       abort_message.cpp.obj                  8        0         0      
       cxa_default_handlers.cpp.obj           0        0         4      
    +--+--------------------------------------+--------+---------+---------+
       Total:                                 2620     375       4      
                                                                        
    /home/thomas/ti/ti-cgt-armllvm_2.1.2.LTS/lib/clang/14.0.6/lib/armv7r-ti-none-eabihf/libclang_rt.builtins.a
       udivsi3.S.obj                          464      0         0      
       udivmoddi4.S.obj                       280      0         0      
       divsi3.S.obj                           44       0         0      
       aeabi_uldivmod.S.obj                   36       0         0      
       aeabi_memset.S.obj                     28       0         0      
       aeabi_div0.c.obj                       8        0         0      
       aeabi_memcpy.S.obj                     4        0         0      
       aeabi_memmove.S.obj                    4        0         0      
    +--+--------------------------------------+--------+---------+---------+
       Total:                                 868      0         0      
                                                                        
       Heap:                                  0        0         32768  
       Stack:                                 0        0         16384  
       Linker Generated:                      0        8         0      
    +--+--------------------------------------+--------+---------+---------+
       Grand Total:                           111068   39678     136950 

VENEERS

callee name               veneer name
   callee addr  veneer addr  call addr  call info
--------------  -----------  ---------  ----------------
HwiP_enableFIQ            $Ven$TA$L$PI$$HwiP_enableFIQ
   000008cc     00000494     0000047c   freertos.am64x.r5f.ti-arm-clang.release.lib : HwiP_armv7r_vim.obj (.text.hwi)
CacheP_invL1d             $Ven$TA$L$PI$$CacheP_invL1d
   00000980     00000d48     00000d42   freertos.am64x.r5f.ti-arm-clang.release.lib : CacheP_armv7r.obj (.text.cache)
HwiP_restore              $Ven$TA$L$PI$$HwiP_restore
   000008dc     00000d50     00000cf6   freertos.am64x.r5f.ti-arm-clang.release.lib : CacheP_armv7r.obj (.text.cache)
CacheP_enableL1p          $Ven$TA$L$PI$$CacheP_enableL1p
   00000968     00000d58     00000cbc   freertos.am64x.r5f.ti-arm-clang.release.lib : CacheP_armv7r.obj (.text.cache)
                             00000d1c                                               : CacheP_armv7r.obj (.text.cache)
MpuP_isEnableAsm          $Ven$TA$L$PI$$MpuP_isEnableAsm
   00000f64     00000f8c     00000ea0   freertos.am64x.r5f.ti-arm-clang.release.lib : MpuP_armv7r.obj (.text.mpu)
HwiP_restore              $Ven$TA$L$PI$$HwiP_restore
   000008dc     00000f94     00000e54   freertos.am64x.r5f.ti-arm-clang.release.lib : MpuP_armv7r.obj (.text.mpu)
                             00000e8c                                               : MpuP_armv7r.obj (.text.mpu)
main                      $Ven$AT$L$PI$$main
   a1214981     000010d8     00001074   freertos.am64x.r5f.ti-arm-clang.release.lib : boot_armv7r_asm.obj (.text.boot)
_system_pre_init          $Ven$AT$L$PI$$_system_pre_init
   a121a691     000010ec     00001064   freertos.am64x.r5f.ti-arm-clang.release.lib : boot_armv7r_asm.obj (.text.boot)
_ZNSt3__112basic_stringIcNS_11char_traitsIcEENS_9allocatorIcEEEC1ERKS5_  $Ven$TA$L$PI$$_ZNSt3__112basic_stringIcNS_11char_traitsIcEENS_9allocatorIcEEEC1ERKS5_
   a12133e0     a1203618     a121ae60   TopicMetadata.obj (.text._ZN13TopicMetadataC2ENSt3__112basic_stringIcNS0_11char_traitsIcEENS0_9allocatorIcEEEE)
                             a121af10   Record.obj (.text._ZN6RecordC2ENSt3__112basic_stringIcNS0_11char_traitsIcEENS0_9allocatorIcEEEE)
_ZNKSt13runtime_error4whatEv  $Ven$TA$L$PI$$_ZNKSt13runtime_error4whatEv
   a121acc0     a1204548     a121ad72   Configurer.obj (.text._ZNK8nlohmann16json_abi_v3_11_26detail9exception4whatEv)
_ZNSt3__112basic_stringIcNS_11char_traitsIcEENS_9allocatorIcEEE6appendEPKcj  $Ven$TA$L$PI$$_ZNSt3__112basic_stringIcNS_11char_traitsIcEENS_9allocatorIcEEE6appendEPKcj
   a120b4d0     a1205ba8     a121ad62   Configurer.obj (.text._ZN8nlohmann16json_abi_v3_11_26detail21output_string_adapterIcNSt3__112basic_stringIcNS3_11char_traitsIcEENS3_9allocatorIcEEEEE16write_charactersEPKcj)
_ZNSt3__112basic_stringIcNS_11char_traitsIcEENS_9allocatorIcEEE9push_backEc  $Ven$TA$L$PI$$_ZNSt3__112basic_stringIcNS_11char_traitsIcEENS_9allocatorIcEEE9push_backEc
   a120f900     a1206cb8     a121ad52   Configurer.obj (.text._ZN8nlohmann16json_abi_v3_11_26detail21output_string_adapterIcNSt3__112basic_stringIcNS3_11char_traitsIcEENS3_9allocatorIcEEEEE15write_characterEc)
_ZNSt3__119__shared_weak_countD2Ev  $Ven$TA$L$PI$$_ZNSt3__119__shared_weak_countD2Ev
   a121afc0     a1207318     a121ab1c   Configurer.obj (.text._ZNSt3__120__shared_ptr_emplaceIN8nlohmann16json_abi_v3_11_26detail21output_string_adapterIcNS_12basic_stringIcNS_11char_traitsIcEENS_9allocatorIcEEEEEENS8_ISB_EEED2Ev)
_ZNSt3__112basic_stringIcNS_11char_traitsIcEENS_9allocatorIcEEEaSERKS5_  $Ven$TA$L$PI$$_ZNSt3__112basic_stringIcNS_11char_traitsIcEENS_9allocatorIcEEEaSERKS5_
   a1207950     a1208968     a121aa1c   Configurer.obj (.text._ZN8nlohmann16json_abi_v3_11_214adl_serializerINSt3__112basic_stringIcNS2_11char_traitsIcEENS2_9allocatorIcEEEEvE9from_jsonIRKNS0_10basic_jsonINS2_3mapENS2_6vectorES8_bxydS6_S1_NSD_IhNS6_IhEEEEvEES8_EEDTcmclL_ZNS0_12_GLOBAL__N_19from_jsonEEclsr3stdE7forwardIT_Efp_Efp0_Ecvv_EEOSK_RT0_)
                             a121ae50   TopicMetadata.obj (.text._ZN13TopicMetadata7setNameENSt3__112basic_stringIcNS0_11char_traitsIcEENS0_9allocatorIcEEEE)
                             a121af00   Record.obj (.text._ZN6Record7setDataENSt3__112basic_stringIcNS0_11char_traitsIcEENS0_9allocatorIcEEEE)
_ZNSt9exceptionD2Ev       $Ven$TA$L$PI$$_ZNSt9exceptionD2Ev
   a121aff0     a120a3b8     a121a020   Configurer.obj (.text._ZN8nlohmann16json_abi_v3_11_26detail9exceptionD2Ev)
HwiP_enable               $Ven$TA$L$PI$$HwiP_enable
   000008bc     a120a738     a121769a   ti_dpl_config.obj (.text.Dpl_init)
PmuP_enableCounters       $Ven$TA$L$PI$$PmuP_enableCounters
   a1219570     a120ae24     a1215e20   freertos.am64x.r5f.ti-arm-clang.release.lib : PmuP_armv7r.obj (.text.pmu)
_ZdlPv                    $Ven$TA$L$PI$$_ZdlPv
   a121b020     a120b668     a1215732   Configurer.obj (.text._ZN8nlohmann16json_abi_v3_11_26detail5lexerINS0_10basic_jsonINSt3__13mapENS4_6vectorENS4_12basic_stringIcNS4_11char_traitsIcEENS4_9allocatorIcEEEEbxydSA_NS0_14adl_serializerENS6_IhNSA_IhEEEEvEENS1_22iterator_input_adapterIPcEEE5resetEv)
                             a12180ce   Configurer.obj (.text._ZNSt3__16__treeINS_12__value_typeINS_12basic_stringIcNS_11char_traitsIcEENS_9allocatorIcEEEEN8nlohmann16json_abi_v3_11_210basic_jsonINS_3mapENS_6vectorES7_bxydS5_NS9_14adl_serializerENSC_IhNS5_IhEEEEvEEEENS_19__map_value_compareIS7_SH_NS_4lessIvEELb1EEENS5_ISH_EEE7destroyEPNS_11__tree_nodeISH_PvEE)
                             a12197f8   RPMessageCommunication.obj (.text._ZN22RPMessageCommunicationD0Ev)
                             a1219858   RealTopic.obj (.text._ZN9RealTopicD0Ev)
                             a1219c76   Configurer.obj (.text._ZNSt3__116allocator_traitsINS_9allocatorINS_11__tree_nodeINS_12__value_typeINS_12basic_stringIcNS_11char_traitsIcEENS1_IcEEEEN8nlohmann16json_abi_v3_11_210basic_jsonINS_3mapENS_6vectorES8_bxydS1_NSA_14adl_serializerENSD_IhNS1_IhEEEEvEEEEPvEEEEE7destroyINS_4pairIKS8_SH_EEvvEEvRSL_PT_)
                             a1219d04   TopicProxy.obj (.text._ZN10TopicProxyD0Ev)
                             a1219d64   Configurer.obj (.text._ZN8nlohmann16json_abi_v3_11_26detail11parse_errorD0Ev)
                             a1219d94   Configurer.obj (.text._ZN8nlohmann16json_abi_v3_11_26detail12out_of_rangeD0Ev)
                             a1219dc4   Configurer.obj (.text._ZN8nlohmann16json_abi_v3_11_26detail9exceptionD0Ev)
                             a121a2ac   TopicHandler.obj (.text._ZNSt3__16__treeINS_12__value_typeI16ConsumerMetadataiEENS_19__map_value_compareIS2_S3_NS_4lessIS2_EELb1EEENS_9allocatorIS3_EEE7destroyEPNS_11__tree_nodeIS3_PvEE)
                             a121a836   Configurer.obj (.text._ZNSt3__120__shared_ptr_emplaceIN8nlohmann16json_abi_v3_11_26detail21output_string_adapterIcNS_12basic_stringIcNS_11char_traitsIcEENS_9allocatorIcEEEEEENS8_ISB_EEED0Ev)
                             a121ae40   UDPEndpoint.obj (.text._ZN11UDPEndpointD0Ev)
                             a121aee0   RPMessageEndpoint.obj (.text._ZN17RPMessageEndpointD0Ev)
                             a121af20   Configurer.obj (.text._ZN8nlohmann16json_abi_v3_11_26detail21output_string_adapterIcNSt3__112basic_stringIcNS3_11char_traitsIcEENS3_9allocatorIcEEEEED0Ev)
                             a121afd0   Configurer.obj (.text._ZNSt3__120__shared_ptr_emplaceIN8nlohmann16json_abi_v3_11_26detail21output_string_adapterIcNS_12basic_stringIcNS_11char_traitsIcEENS_9allocatorIcEEEEEENS8_ISB_EEE21__on_zero_shared_weakEv)
__aeabi_assert            $Ven$TA$L$PI$$__aeabi_assert
   a121550c     a120c634     a120103e   Configurer.obj (.text._ZN8nlohmann16json_abi_v3_11_26detail10serializerINS0_10basic_jsonINSt3__13mapENS4_6vectorENS4_12basic_stringIcNS4_11char_traitsIcEENS4_9allocatorIcEEEEbxydSA_NS0_14adl_serializerENS6_IhNSA_IhEEEEvEEE4dumpERKSG_bbjj)
                             a1213b2e   Configurer.obj (.text._ZNK8nlohmann16json_abi_v3_11_210basic_jsonINSt3__13mapENS2_6vectorENS2_12basic_stringIcNS2_11char_traitsIcEENS2_9allocatorIcEEEEbxydS8_NS0_14adl_serializerENS4_IhNS8_IhEEEEvE16assert_invariantEb)

[19 trampolines]
[39 trampoline calls]


FAR CALL TRAMPOLINES

callee name               trampoline name
   callee addr  tramp addr   call addr  call info
--------------  -----------  ---------  ----------------
exit                      $Tramp$AA$L$PI$$exit
   a1216f64     000010d0     0000107c   freertos.am64x.r5f.ti-arm-clang.release.lib : boot_armv7r_asm.obj (.text.boot)
__TI_auto_init_nobinit_nopinit  $Tramp$AA$L$PI$$__TI_auto_init_nobinit_nopinit
   a1217600     000010e4     00001070   freertos.am64x.r5f.ti-arm-clang.release.lib : boot_armv7r_asm.obj (.text.boot)
vPortRestoreTaskContext   $Tramp$AA$L$PI$$vPortRestoreTaskContext
   000006b0     a1209508     a121a950   freertos.am64x.r5f.ti-arm-clang.release.lib : port.obj (.text.xPortStartScheduler)
HwiP_init                 $Tramp$TT$L$PI$$HwiP_init
   000003b1     a120ac68     a1217652   ti_dpl_config.obj (.text.Dpl_init)
HwiP_inISR                $Tramp$TT$L$PI$$HwiP_inISR
   00000481     a120b7f4     a1214efe   freertos.am64x.r5f.ti-arm-clang.release.lib : DebugP_freertos.obj (.text._DebugP_logZone)
                             a121664a                                               : SemaphoreP_freertos.obj (.text.SemaphoreP_pend)
                             a1217088                                               : SemaphoreP_freertos.obj (.text.SemaphoreP_post)
_DebugP_assertNoLog       $Tramp$TT$L$PI$$_DebugP_assertNoLog
   000010a1     a120b978     a120ee08   ti_drivers_config.obj (.text.System_init)
                             a1210dcc   drivers.am64x.r5f.ti-arm-clang.release.lib : ipc_notify_v0.obj (.text.IpcNotify_isr)
                             a12149f6   main.obj (.text.main)
                             a1214f22   freertos.am64x.r5f.ti-arm-clang.release.lib : DebugP_freertos.obj (.text._DebugP_logZone)
                             a12158ac                                               : AddrTranslateP.obj (.text.AddrTranslateP_getLocalAddr)
                             a1216654                                               : SemaphoreP_freertos.obj (.text.SemaphoreP_pend)
                             a1217098                                               : SemaphoreP_freertos.obj (.text.SemaphoreP_post)
                             a12173cc                                               : DebugP_shmLogReader_freertos.obj (.text.DebugP_shmLogReaderTaskCreate)
                             a1218e98   ti_power_clock_config.obj (.text.Module_clockSetFrequency)
                             a12192d2   freertos.am64x.r5f.ti-arm-clang.release.lib : DebugP_shmLogReader.obj (.text.DebugP_shmLogReaderInit)
                             a12195bc                                               : port.obj (.text.vApplicationStackOverflowHook)
                             a1219610   ti_power_clock_config.obj (.text.Module_clockEnable)
                             a121ad82   freertos.am64x.r5f.ti-arm-clang.release.lib : port.obj (.text.prvTaskExitError)
HwiP_destruct             $Tramp$TT$L$PI$$HwiP_destruct
   000002d1     a120baf4     a120cf42   drivers.am64x.r5f.ti-arm-clang.release.lib : uart_v0.obj (.text.UART_close)
HwiP_restore              $Tramp$AA$L$PI$$HwiP_restore
   000008dc     a120bc68     a12045f6   drivers.am64x.r5f.ti-arm-clang.release.lib : sciclient.obj (.text.Sciclient_service)
                             a1204962                                              : ipc_notify_v0.obj (.text.IpcNotify_init)
                             a1204b4e                                              : ipc_notify_v0.obj (.text.IpcNotify_init)
                             a1204c36                                              : ipc_notify_v0.obj (.text.IpcNotify_init)
                             a120800e                                              : uart_v0.obj (.text.UART_write)
                             a120803a                                              : uart_v0.obj (.text.UART_write)
                             a120d940                                              : ipc_rpmsg.obj (.text.RPMessage_recv)
                             a120e2ea   freertos.am64x.r5f.ti-arm-clang.release.lib : queue.obj (.text.xQueueGenericSendFromISR)
                             a120e926   drivers.am64x.r5f.ti-arm-clang.release.lib : ipc_rpmsg.obj (.text.RPMessage_recvHandler)
                             a120e962                                              : ipc_rpmsg.obj (.text.RPMessage_recvHandler)
                             a120e98e                                              : ipc_rpmsg.obj (.text.RPMessage_recvHandler)
                             a120edda   freertos.am64x.r5f.ti-arm-clang.release.lib : queue.obj (.text.xQueueGiveFromISR)
                             a120f7ee                                               : queue.obj (.text.xQueueReceiveFromISR)
                             a1210b96   drivers.am64x.r5f.ti-arm-clang.release.lib : ipc_notify_v0.obj (.text.IpcNotify_sendMsg)
                             a1210bbc                                              : ipc_notify_v0.obj (.text.IpcNotify_sendMsg)
                             a1212312                                              : ipc_rpmsg_vring.obj (.text.RPMessage_vringGetFullRxBuf)
                             a1212d8a                                              : ipc_rpmsg_vring.obj (.text.RPMessage_vringPutEmptyRxBuf)
                             a12139a6                                              : ipc_rpmsg_vring.obj (.text.RPMessage_vringGetEmptyTxBuf)
                             a12139e6                                              : ipc_rpmsg_vring.obj (.text.RPMessage_vringGetEmptyTxBuf)
                             a1215960                                              : uart_v0.obj (.text.UART_writeCancelNoCB)
                             a1215b50                                              : ipc_rpmsg.obj (.text.RPMessage_getEndPtMsg)
                             a1215eee                                              : ipc_notify_v0.obj (.text.IpcNotify_waitSync)
                             a12160e8                                              : ipc_rpmsg_vring.obj (.text.RPMessage_vringPutFullTxBuf)
                             a1216512                                              : ipc_rpmsg_vring.obj (.text.RPMessage_vringIsFullRxBuf)
                             a1217914                                              : ipc_rpmsg.obj (.text.RPMessage_allocEndPtMsg)
                             a1218866                                              : ipc_notify_v0.obj (.text.IpcNotify_registerClient)
                             a1218d12                                              : ipc_rpmsg_vring.obj (.text.RPMessage_vringCheckEmptyTxBuf)
                             a121a368   freertos.am64x.r5f.ti-arm-clang.release.lib : DebugP_log.obj (.text.DebugP_logZoneEnable)
HwiP_disable              $Tramp$AA$L$PI$$HwiP_disable
   0000089c     a120bdd8     a12045ee   drivers.am64x.r5f.ti-arm-clang.release.lib : sciclient.obj (.text.Sciclient_service)
                             a1204610                                              : sciclient.obj (.text.Sciclient_service)
                             a1204956                                              : ipc_notify_v0.obj (.text.IpcNotify_init)
                             a1204b32                                              : ipc_notify_v0.obj (.text.IpcNotify_init)
                             a1204b52                                              : ipc_notify_v0.obj (.text.IpcNotify_init)
                             a1207ffe                                              : uart_v0.obj (.text.UART_write)
                             a120d90e                                              : ipc_rpmsg.obj (.text.RPMessage_recv)
                             a120e268   freertos.am64x.r5f.ti-arm-clang.release.lib : queue.obj (.text.xQueueGenericSendFromISR)
                             a120e904   drivers.am64x.r5f.ti-arm-clang.release.lib : ipc_rpmsg.obj (.text.RPMessage_recvHandler)
                             a120e940                                              : ipc_rpmsg.obj (.text.RPMessage_recvHandler)
                             a120e974                                              : ipc_rpmsg.obj (.text.RPMessage_recvHandler)
                             a120ed64   freertos.am64x.r5f.ti-arm-clang.release.lib : queue.obj (.text.xQueueGiveFromISR)
                             a120f762                                               : queue.obj (.text.xQueueReceiveFromISR)
                             a1210b84   drivers.am64x.r5f.ti-arm-clang.release.lib : ipc_notify_v0.obj (.text.IpcNotify_sendMsg)
                             a1210b9a                                              : ipc_notify_v0.obj (.text.IpcNotify_sendMsg)
                             a1212276                                              : ipc_rpmsg_vring.obj (.text.RPMessage_vringGetFullRxBuf)
                             a1212d08                                              : ipc_rpmsg_vring.obj (.text.RPMessage_vringPutEmptyRxBuf)
                             a121396c                                              : ipc_rpmsg_vring.obj (.text.RPMessage_vringGetEmptyTxBuf)
                             a12139b4                                              : ipc_rpmsg_vring.obj (.text.RPMessage_vringGetEmptyTxBuf)
                             a121591c                                              : uart_v0.obj (.text.UART_writeCancelNoCB)
                             a1215b32                                              : ipc_rpmsg.obj (.text.RPMessage_getEndPtMsg)
                             a1215ee4                                              : ipc_notify_v0.obj (.text.IpcNotify_waitSync)
                             a12160ae                                              : ipc_rpmsg_vring.obj (.text.RPMessage_vringPutFullTxBuf)
                             a121638a   freertos.am64x.r5f.ti-arm-clang.release.lib : DebugP_log.obj (.text._DebugP_assert)
                             a12164c4   drivers.am64x.r5f.ti-arm-clang.release.lib : ipc_rpmsg_vring.obj (.text.RPMessage_vringIsFullRxBuf)
                             a12178d4                                              : ipc_rpmsg.obj (.text.RPMessage_allocEndPtMsg)
                             a121883c                                              : ipc_notify_v0.obj (.text.IpcNotify_registerClient)
                             a1218cf4                                              : ipc_rpmsg_vring.obj (.text.RPMessage_vringCheckEmptyTxBuf)
                             a121a354   freertos.am64x.r5f.ti-arm-clang.release.lib : DebugP_log.obj (.text.DebugP_logZoneEnable)
abort                     $Tramp$AA$L$PI$$abort
   00001100     a120bf44     a1202b7c   libc++.a : string.cpp.obj (.text._ZNSt3__112_GLOBAL__N_117as_integer_helperIlNS_12basic_stringIcNS_11char_traitsIcEENS_9allocatorIcEEEEPFlPKcPPciEEET_RKS7_RKT0_PjiT1_)
                             a1202cc8            : string.cpp.obj (.text._ZNSt3__112_GLOBAL__N_117as_integer_helperIlNS_12basic_stringIcNS_11char_traitsIcEENS_9allocatorIcEEEEPFlPKcPPciEEET_RKS7_RKT0_PjiT1_)
                             a1203614   Configurer.obj (.text._ZN8nlohmann16json_abi_v3_11_26detail6parserINS0_10basic_jsonINSt3__13mapENS4_6vectorENS4_12basic_stringIcNS4_11char_traitsIcEENS4_9allocatorIcEEEEbxydSA_NS0_14adl_serializerENS6_IhNSA_IhEEEEvEENS1_22iterator_input_adapterIPcEEE18sax_parse_internalINS1_28json_sax_dom_callback_parserISG_EEEEbPT_)
                             a1203a78   Configurer.obj (.text._ZN8nlohmann16json_abi_v3_11_26detail6parserINS0_10basic_jsonINSt3__13mapENS4_6vectorENS4_12basic_stringIcNS4_11char_traitsIcEENS4_9allocatorIcEEEEbxydSA_NS0_14adl_serializerENS6_IhNSA_IhEEEEvEENS1_22iterator_input_adapterIPcEEE18sax_parse_internalINS1_19json_sax_dom_parserISG_EEEEbPT_)
                             a12041bc   Configurer.obj (.text._ZN8nlohmann16json_abi_v3_11_210basic_jsonINSt3__13mapENS2_6vectorENS2_12basic_stringIcNS2_11char_traitsIcEENS2_9allocatorIcEEEEbxydS8_NS0_14adl_serializerENS4_IhNS8_IhEEEEvE10json_value7destroyENS0_6detail7value_tE)
                             a1205e58   Configurer.obj (.text._ZN8nlohmann16json_abi_v3_11_26detail6parserINS0_10basic_jsonINSt3__13mapENS4_6vectorENS4_12basic_stringIcNS4_11char_traitsIcEENS4_9allocatorIcEEEEbxydSA_NS0_14adl_serializerENS6_IhNSA_IhEEEEvEENS1_22iterator_input_adapterIPcEEE5parseEbRSG_)
                             a1206102   Configurer.obj (.text._ZN8nlohmann16json_abi_v3_11_26detail10serializerINS0_10basic_jsonINSt3__13mapENS4_6vectorENS4_12basic_stringIcNS4_11char_traitsIcEENS4_9allocatorIcEEEEbxydSA_NS0_14adl_serializerENS6_IhNSA_IhEEEEvEEE12dump_escapedERKSC_b)
                             a1207b54   libc++.a : string.cpp.obj (.text._ZNSt3__112basic_stringIcNS_11char_traitsIcEENS_9allocatorIcEEEaSERKS5_)
                             a12096e6   TopicFactory.obj (.text._ZN12TopicFactory12createTopicsEv)
                             a120a8f4   libc++.a : string.cpp.obj (.text._ZNSt3__112basic_stringIcNS_11char_traitsIcEENS_9allocatorIcEEE6resizeEjc)
                             a120b184            : string.cpp.obj (.text._ZNSt3__112basic_stringIcNS_11char_traitsIcEENS_9allocatorIcEEE6appendEPKc)
                             a120b4ca   Message.obj (.text._Z16SerializeMessageRK7Message)
                             a120b664   libc++.a : string.cpp.obj (.text._ZNSt3__112basic_stringIcNS_11char_traitsIcEENS_9allocatorIcEEE6appendEPKcj)
                             a120b972   ClusterMetadata.obj (.text._ZN15ClusterMetadata9from_jsonERKN8nlohmann16json_abi_v3_11_210basic_jsonINSt3__13mapENS3_6vectorENS3_12basic_stringIcNS3_11char_traitsIcEENS3_9allocatorIcEEEEbxydS9_NS1_14adl_serializerENS5_IhNS9_IhEEEEvEE)
                             a120bdd4   libc++.a : string.cpp.obj (.text._ZNSt3__112basic_stringIcNS_11char_traitsIcEENS_9allocatorIcEEE7reserveEj)
                             a120c4d4            : string.cpp.obj (.text._ZNSt3__112basic_stringIcNS_11char_traitsIcEENS_9allocatorIcEEE6assignEPKc)
                             a120c8d8   Configurer.obj (.text._ZN8nlohmann16json_abi_v3_11_26detail19json_sax_dom_parserINS0_10basic_jsonINSt3__13mapENS4_6vectorENS4_12basic_stringIcNS4_11char_traitsIcEENS4_9allocatorIcEEEEbxydSA_NS0_14adl_serializerENS6_IhNSA_IhEEEEvEEE12handle_valueIRbEEPSG_OT_)
                             a120ca28   Configurer.obj (.text._ZN8nlohmann16json_abi_v3_11_26detail19json_sax_dom_parserINS0_10basic_jsonINSt3__13mapENS4_6vectorENS4_12basic_stringIcNS4_11char_traitsIcEENS4_9allocatorIcEEEEbxydSA_NS0_14adl_serializerENS6_IhNSA_IhEEEEvEEE12handle_valueIRdEEPSG_OT_)
                             a120cb78   Configurer.obj (.text._ZN8nlohmann16json_abi_v3_11_26detail19json_sax_dom_parserINS0_10basic_jsonINSt3__13mapENS4_6vectorENS4_12basic_stringIcNS4_11char_traitsIcEENS4_9allocatorIcEEEEbxydSA_NS0_14adl_serializerENS6_IhNSA_IhEEEEvEEE12handle_valueIRxEEPSG_OT_)
                             a120ccc8   Configurer.obj (.text._ZN8nlohmann16json_abi_v3_11_26detail19json_sax_dom_parserINS0_10basic_jsonINSt3__13mapENS4_6vectorENS4_12basic_stringIcNS4_11char_traitsIcEENS4_9allocatorIcEEEEbxydSA_NS0_14adl_serializerENS6_IhNSA_IhEEEEvEEE12handle_valueIRyEEPSG_OT_)
                             a120e094   libc++.a : string.cpp.obj (.text._ZNSt3__19to_stringEi)
                             a120ecd4            : string.cpp.obj (.text._ZNSt3__112basic_stringIcNS_11char_traitsIcEENS_9allocatorIcEEE5eraseEjj)
                             a120f1f8   Configurer.obj (.text._ZN8nlohmann16json_abi_v3_11_26detail28json_sax_dom_callback_parserINS0_10basic_jsonINSt3__13mapENS4_6vectorENS4_12basic_stringIcNS4_11char_traitsIcEENS4_9allocatorIcEEEEbxydSA_NS0_14adl_serializerENS6_IhNSA_IhEEEEvEEE11start_arrayEj)
                             a120f2f6   Configurer.obj (.text._ZN8nlohmann16json_abi_v3_11_26detail28json_sax_dom_callback_parserINS0_10basic_jsonINSt3__13mapENS4_6vectorENS4_12basic_stringIcNS4_11char_traitsIcEENS4_9allocatorIcEEEEbxydSA_NS0_14adl_serializerENS6_IhNSA_IhEEEEvEEE12start_objectEj)
                             a120f4f8   Configurer.obj (.text._ZN8nlohmann16json_abi_v3_11_210basic_jsonINSt3__13mapENS2_6vectorENS2_12basic_stringIcNS2_11char_traitsIcEENS2_9allocatorIcEEEEbxydS8_NS0_14adl_serializerENS4_IhNS8_IhEEEEvE5eraseINS0_6detail9iter_implISE_EELi0EEET_SJ_)
                             a120f9f4   libc++.a : string.cpp.obj (.text._ZNSt3__112basic_stringIcNS_11char_traitsIcEENS_9allocatorIcEEE9push_backEc)
                             a120faea   Record.obj (.text._ZN8nlohmann16json_abi_v3_11_210basic_jsonINSt3__13mapENS2_6vectorENS2_12basic_stringIcNS2_11char_traitsIcEENS2_9allocatorIcEEEEbxydS8_NS0_14adl_serializerENS4_IhNS8_IhEEEEvEC2ESt16initializer_listINS0_6detail8json_refISE_EEEbNSG_7value_tE)
                             a120fdba   TopicFactory.obj (.text._ZNSt3__16vectorI14BrokerMetadataNS_9allocatorIS1_EEE6assignIPS1_EENS_9enable_ifIXaasr27__is_cpp17_forward_iteratorIT_EE5valuesr16is_constructibleIS1_NS_15iterator_traitsIS8_E9referenceEEE5valueEvE4typeES8_S8_)
                             a121043e   TopicFactory.obj (.text._ZNSt3__16vectorI13TopicMetadataNS_9allocatorIS1_EEE6assignIPS1_EENS_9enable_ifIXaasr27__is_cpp17_forward_iteratorIT_EE5valuesr16is_constructibleIS1_NS_15iterator_traitsIS8_E9referenceEEE5valueEvE4typeES8_S8_)
                             a12106da   Configurer.obj (.text._ZN8nlohmann16json_abi_v3_11_26detail19json_sax_dom_parserINS0_10basic_jsonINSt3__13mapENS4_6vectorENS4_12basic_stringIcNS4_11char_traitsIcEENS4_9allocatorIcEEEEbxydSA_NS0_14adl_serializerENS6_IhNSA_IhEEEEvEEE11start_arrayEj)
                             a12107b6   Configurer.obj (.text._ZN8nlohmann16json_abi_v3_11_26detail19json_sax_dom_parserINS0_10basic_jsonINSt3__13mapENS4_6vectorENS4_12basic_stringIcNS4_11char_traitsIcEENS4_9allocatorIcEEEEbxydSA_NS0_14adl_serializerENS6_IhNSA_IhEEEEvEEE12start_objectEj)
                             a1210c94   libc++.a : string.cpp.obj (.text._ZNSt3__112basic_stringIcNS_11char_traitsIcEENS_9allocatorIcEEEC2ERKS5_jjRKS4_)
                             a1211160   Configurer.obj (.text._ZNSt3__120back_insert_iteratorINS_6vectorIN8nlohmann16json_abi_v3_11_210basic_jsonINS_3mapES1_NS_12basic_stringIcNS_11char_traitsIcEENS_9allocatorIcEEEEbxydS9_NS3_14adl_serializerENS1_IhNS9_IhEEEEvEENS9_ISF_EEEEEaSEOSF_)
                             a1211230   Configurer.obj (.text._ZNSt3__16vectorI13TopicMetadataNS_9allocatorIS1_EEE21__push_back_slow_pathIRKS1_EEvOT_)
                             a12112fe   TopicHandler.obj (.text._ZN12TopicHandler15addHandledTopicE13TopicMetadata)
                             a121149e   Configurer.obj (.text._ZN8nlohmann16json_abi_v3_11_26detail5lexerINS0_10basic_jsonINSt3__13mapENS4_6vectorENS4_12basic_stringIcNS4_11char_traitsIcEENS4_9allocatorIcEEEEbxydSA_NS0_14adl_serializerENS6_IhNSA_IhEEEEvEENS1_22iterator_input_adapterIPcEEE3getEv)
                             a1211928   Configurer.obj (.text._ZNSt3__16vectorIN8nlohmann16json_abi_v3_11_210basic_jsonINS_3mapES0_NS_12basic_stringIcNS_11char_traitsIcEENS_9allocatorIcEEEEbxydS8_NS2_14adl_serializerENS0_IhNS8_IhEEEEvEENS8_ISE_EEE12emplace_backIJSE_EEEvDpOT_)
                             a1212474   libc++.a : string.cpp.obj (.text._ZNKSt3__112basic_stringIcNS_11char_traitsIcEENS_9allocatorIcEEE7compareEjjPKcj)
                             a1212524            : string.cpp.obj (.text._ZNSt3__19to_stringEj)
                             a1212880   Configurer.obj (.text._ZNSt3__16vectorIN8nlohmann16json_abi_v3_11_210basic_jsonINS_3mapES0_NS_12basic_stringIcNS_11char_traitsIcEENS_9allocatorIcEEEEbxydS8_NS2_14adl_serializerENS0_IhNS8_IhEEEEvEENS8_ISE_EEE12emplace_backIJRSA_EEEvDpOT_)
                             a12131f6   Configurer.obj (.text._ZNSt3__16vectorIN8nlohmann16json_abi_v3_11_210basic_jsonINS_3mapES0_NS_12basic_stringIcNS_11char_traitsIcEENS_9allocatorIcEEEEbxydS8_NS2_14adl_serializerENS0_IhNS8_IhEEEEvEENS8_ISE_EEE12emplace_backIJDnEEEvDpOT_)
                             a12133d4   libc++.a : string.cpp.obj (.text._ZNKSt3__112basic_stringIcNS_11char_traitsIcEENS_9allocatorIcEEE7compareEPKc)
                             a1213474            : string.cpp.obj (.text._ZNSt3__112basic_stringIcNS_11char_traitsIcEENS_9allocatorIcEEEC2ERKS5_)
                             a1213514   Configurer.obj (.text._ZNSt3__16vectorIN8nlohmann16json_abi_v3_11_210basic_jsonINS_3mapES0_NS_12basic_stringIcNS_11char_traitsIcEENS_9allocatorIcEEEEbxydS8_NS2_14adl_serializerENS0_IhNS8_IhEEEEvEENS8_ISE_EEE12emplace_backIJNS2_6detail7value_tEEEEvDpOT_)
                             a12140d4   ClusterMetadata.obj (.text._ZN15ClusterMetadata17addBrokerMetadataE14BrokerMetadata)
                             a1214284   BrokerMetadata.obj (.text._ZNK8nlohmann16json_abi_v3_11_26detail9iter_implIKNS0_10basic_jsonINSt3__13mapENS4_6vectorENS4_12basic_stringIcNS4_11char_traitsIcEENS4_9allocatorIcEEEEbxydSA_NS0_14adl_serializerENS6_IhNSA_IhEEEEvEEEdeEv)
                             a1214314   Configurer.obj (.text._ZNK8nlohmann16json_abi_v3_11_26detail9iter_implINS0_10basic_jsonINSt3__13mapENS4_6vectorENS4_12basic_stringIcNS4_11char_traitsIcEENS4_9allocatorIcEEEEbxydSA_NS0_14adl_serializerENS6_IhNSA_IhEEEEvEEEdeEv)
                             a1214532   Configurer.obj (.text._ZNK8nlohmann16json_abi_v3_11_26detail9iter_implINS0_10basic_jsonINSt3__13mapENS4_6vectorENS4_12basic_stringIcNS4_11char_traitsIcEENS4_9allocatorIcEEEEbxydSA_NS0_14adl_serializerENS6_IhNSA_IhEEEEvEEEptEv)
                             a1215160   Configurer.obj (.text._ZNSt3__16vectorIbNS_9allocatorIbEEE9push_backERKb)
                             a1215ab4   Configurer.obj (.text._ZNSt3__16vectorIbNS_9allocatorIbEEE7reserveEj)
                             a1216cc2   embedded_kafka.obj (.text._ZNSt3__112basic_stringIcNS_11char_traitsIcEENS_9allocatorIcEEEC2IDnEEPKc)
                             a1216fa8   libc.a : exit.c.obj (.text.exit)
                             a121724e   BrokerMetadata.obj (.text._ZNK8nlohmann16json_abi_v3_11_26detail9iter_implIKNS0_10basic_jsonINSt3__13mapENS4_6vectorENS4_12basic_stringIcNS4_11char_traitsIcEENS4_9allocatorIcEEEEbxydSA_NS0_14adl_serializerENS6_IhNSA_IhEEEEvEEEeqISI_LDn0EEEbRKT_)
                             a12172ae   Configurer.obj (.text._ZNK8nlohmann16json_abi_v3_11_26detail9iter_implINS0_10basic_jsonINSt3__13mapENS4_6vectorENS4_12basic_stringIcNS4_11char_traitsIcEENS4_9allocatorIcEEEEbxydSA_NS0_14adl_serializerENS6_IhNSA_IhEEEEvEEEeqISH_LDn0EEEbRKT_)
                             a1218030   Configurer.obj (.text._ZN8nlohmann16json_abi_v3_11_210basic_jsonINSt3__13mapENS2_6vectorENS2_12basic_stringIcNS2_11char_traitsIcEENS2_9allocatorIcEEEEbxydS8_NS0_14adl_serializerENS4_IhNS8_IhEEEEvEixESA_)
                             a121876c   Configurer.obj (.text._ZNSt3__16vectorIN8nlohmann16json_abi_v3_11_210basic_jsonINS_3mapES0_NS_12basic_stringIcNS_11char_traitsIcEENS_9allocatorIcEEEEbxydS8_NS2_14adl_serializerENS0_IhNS8_IhEEEEvEENS8_ISE_EEE7reserveEj)
                             a1218b28   Configurer.obj (.text._ZNK8nlohmann16json_abi_v3_11_210basic_jsonINSt3__13mapENS2_6vectorENS2_12basic_stringIcNS2_11char_traitsIcEENS2_9allocatorIcEEEEbxydS8_NS0_14adl_serializerENS4_IhNS8_IhEEEEvEixERKSA_)
                             a12198b8   SystemManager.obj (.text._ZNK8nlohmann16json_abi_v3_11_26detail12from_json_fnclINS0_10basic_jsonINSt3__13mapENS5_6vectorENS5_12basic_stringIcNS5_11char_traitsIcEENS5_9allocatorIcEEEEbxydSB_NS0_14adl_serializerENS7_IhNSB_IhEEEEvEERiEEDTcl9from_jsonfp_clsr3stdE7forwardIT0_Efp0_EEERKT_OSJ_)
                             a1219ca6   embedded_kafka.obj (.text._ZNSt3__16vectorI13TopicMetadataNS_9allocatorIS1_EEE11__vallocateEj)
                             a121a080   Configurer.obj (.text._ZNSt3__16vectorIbNS_9allocatorIbEEE11__vallocateEj)
                             a121a2de   SystemManager.obj (.text._ZNSt3__16vectorI14BrokerMetadataNS_9allocatorIS1_EEE11__vallocateEj)
                             a121a30e   Configurer.obj (.text._ZNSt3__16vectorIN8nlohmann16json_abi_v3_11_210basic_jsonINS_3mapES0_NS_12basic_stringIcNS_11char_traitsIcEENS_9allocatorIcEEEEbxydS8_NS2_14adl_serializerENS0_IhNS8_IhEEEEvEENS8_ISE_EEE11__vallocateEj)
                             a121a42c   BrokerMetadata.obj (.text._ZN8nlohmann16json_abi_v3_11_210basic_jsonINSt3__13mapENS2_6vectorENS2_12basic_stringIcNS2_11char_traitsIcEENS2_9allocatorIcEEEEbxydS8_NS0_14adl_serializerENS4_IhNS8_IhEEEEvE2atIRA5_KcLi0EEERSE_OT_)
                             a121a46c   RPMessageEndpoint.obj (.text._ZNK8nlohmann16json_abi_v3_11_210basic_jsonINSt3__13mapENS2_6vectorENS2_12basic_stringIcNS2_11char_traitsIcEENS2_9allocatorIcEEEEbxydS8_NS0_14adl_serializerENS4_IhNS8_IhEEEEvE2atIRA16_KcLi0EEERKSE_OT_)
                             a121a48c   UDPEndpoint.obj (.text._ZNK8nlohmann16json_abi_v3_11_210basic_jsonINSt3__13mapENS2_6vectorENS2_12basic_stringIcNS2_11char_traitsIcEENS2_9allocatorIcEEEEbxydS8_NS0_14adl_serializerENS4_IhNS8_IhEEEEvE2atIRA3_KcLi0EEERKSE_OT_)
                             a121a4ac   Record.obj (.text._ZNK8nlohmann16json_abi_v3_11_210basic_jsonINSt3__13mapENS2_6vectorENS2_12basic_stringIcNS2_11char_traitsIcEENS2_9allocatorIcEEEEbxydS8_NS0_14adl_serializerENS4_IhNS8_IhEEEEvE2atIRA5_KcLi0EEERKSE_OT_)
                             a121a4cc   BrokerMetadata.obj (.text._ZNK8nlohmann16json_abi_v3_11_210basic_jsonINSt3__13mapENS2_6vectorENS2_12basic_stringIcNS2_11char_traitsIcEENS2_9allocatorIcEEEEbxydS8_NS0_14adl_serializerENS4_IhNS8_IhEEEEvE2atIRA7_KcLi0EEERKSE_OT_)
                             a121a4ec   ClusterMetadata.obj (.text._ZNK8nlohmann16json_abi_v3_11_210basic_jsonINSt3__13mapENS2_6vectorENS2_12basic_stringIcNS2_11char_traitsIcEENS2_9allocatorIcEEEEbxydS8_NS0_14adl_serializerENS4_IhNS8_IhEEEEvE2atIRA8_KcLi0EEERKSE_OT_)
                             a121a50c   BrokerMetadata.obj (.text._ZNK8nlohmann16json_abi_v3_11_210basic_jsonINSt3__13mapENS2_6vectorENS2_12basic_stringIcNS2_11char_traitsIcEENS2_9allocatorIcEEEEbxydS8_NS0_14adl_serializerENS4_IhNS8_IhEEEEvE2atIRA9_KcLi0EEERKSE_OT_)
                             a121a54c   Configurer.obj (.text._ZNSt3__16vectorIhNS_9allocatorIhEEE11__vallocateEj)
                             a121a568   libc.a : assert.c.obj (.text._abort_msg)
                             a121aa20   Configurer.obj (.text._ZN8nlohmann16json_abi_v3_11_214adl_serializerINSt3__112basic_stringIcNS2_11char_traitsIcEENS2_9allocatorIcEEEEvE9from_jsonIRKNS0_10basic_jsonINS2_3mapENS2_6vectorES8_bxydS6_S1_NSD_IhNS6_IhEEEEvEES8_EEDTcmclL_ZNS0_12_GLOBAL__N_19from_jsonEEclsr3stdE7forwardIT_Efp_Efp0_Ecvv_EEOSK_RT0_)
                             a121ad04   libc++abi.a : abort_message.cpp.obj (.text.abort_message)
                             a121afe0   Configurer.obj (.text._ZNSt3__125__throw_bad_function_callEv)
                             a121b010   Configurer.obj (.text._ZSt28__throw_bad_array_new_lengthv)
HwiP_construct            $Tramp$TT$L$PI$$HwiP_construct
   00000181     a120c0b4     a12027be   drivers.am64x.r5f.ti-arm-clang.release.lib : uart_v0.obj (.text.UART_open)
                             a1204c1c                                              : ipc_notify_v0.obj (.text.IpcNotify_init)
                             a120d808   freertos.am64x.r5f.ti-arm-clang.release.lib : ClockP_freertos_r5.obj (.text.ClockP_init)
HwiP_Params_init          $Tramp$TT$L$PI$$HwiP_Params_init
   00000161     a120c4d8     a1202798   drivers.am64x.r5f.ti-arm-clang.release.lib : uart_v0.obj (.text.UART_open)
                             a1204bf2                                              : ipc_notify_v0.obj (.text.IpcNotify_init)
                             a120d7ec   freertos.am64x.r5f.ti-arm-clang.release.lib : ClockP_freertos_r5.obj (.text.ClockP_init)

[12 trampolines]
[159 trampoline calls]


GLOBAL SYMBOLS: SORTED ALPHABETICALLY BY Name 

address   name                                                                                                                                                                                                                                                                                                                                                                                                                                           
-------   ----                                                                                                                                                                                                                                                                                                                                                                                                                                           
00001108  .ARM.exidx$$Base                                                                                                                                                                                                                                                                                                                                                                                                                               
00001110  .ARM.exidx$$Limit                                                                                                                                                                                                                                                                                                                                                                                                                              
a1215891  AddrTranslateP_getLocalAddr                                                                                                                                                                                                                                                                                                                                                                                                                    
a121b061  Board_driversClose                                                                                                                                                                                                                                                                                                                                                                                                                             
a121ada1  Board_driversOpen                                                                                                                                                                                                                                                                                                                                                                                                                              
a121b071  Board_init                                                                                                                                                                                                                                                                                                                                                                                                                                     
00001100  C$$EXIT                                                                                                                                                                                                                                                                                                                                                                                                                                        
a1216a34  C$$IO$$                                                                                                                                                                                                                                                                                                                                                                                                                                        
a121ac01  CSL_secProxyGetDataAddr                                                                                                                                                                                                                                                                                                                                                                                                                        
00000c20  CacheP_configForceWrThru                                                                                                                                                                                                                                                                                                                                                                                                                       
00000cc1  CacheP_disable                                                                                                                                                                                                                                                                                                                                                                                                                                 
00000910  CacheP_disableL1d                                                                                                                                                                                                                                                                                                                                                                                                                              
00000938  CacheP_disableL1p                                                                                                                                                                                                                                                                                                                                                                                                                              
00000d01  CacheP_enable                                                                                                                                                                                                                                                                                                                                                                                                                                  
00000950  CacheP_enableL1d                                                                                                                                                                                                                                                                                                                                                                                                                               
00000968  CacheP_enableL1p                                                                                                                                                                                                                                                                                                                                                                                                                               
00000c14  CacheP_getCacheLevelInfo                                                                                                                                                                                                                                                                                                                                                                                                                       
00000bdc  CacheP_getEnabled                                                                                                                                                                                                                                                                                                                                                                                                                              
00000c51  CacheP_init                                                                                                                                                                                                                                                                                                                                                                                                                                    
00000d21  CacheP_inv                                                                                                                                                                                                                                                                                                                                                                                                                                     
00000980  CacheP_invL1d                                                                                                                                                                                                                                                                                                                                                                                                                                  
000009f4  CacheP_invL1dAll                                                                                                                                                                                                                                                                                                                                                                                                                               
000009b8  CacheP_invL1p                                                                                                                                                                                                                                                                                                                                                                                                                                  
000009fc  CacheP_invL1pAll                                                                                                                                                                                                                                                                                                                                                                                                                               
00000c40  CacheP_setDLFO                                                                                                                                                                                                                                                                                                                                                                                                                                 
00000a04  CacheP_wb                                                                                                                                                                                                                                                                                                                                                                                                                                      
00000a7c  CacheP_wbAll                                                                                                                                                                                                                                                                                                                                                                                                                                   
00000a40  CacheP_wbInv                                                                                                                                                                                                                                                                                                                                                                                                                                   
00000b24  CacheP_wbInvAll                                                                                                                                                                                                                                                                                                                                                                                                                                
00000b3c  CacheP_wbInvAllAsm                                                                                                                                                                                                                                                                                                                                                                                                                             
a121adb1  ClockP_getTicks                                                                                                                                                                                                                                                                                                                                                                                                                                
a1217831  ClockP_getTimeUsec                                                                                                                                                                                                                                                                                                                                                                                                                             
a121adc1  ClockP_getTimerCount                                                                                                                                                                                                                                                                                                                                                                                                                           
a120d6e1  ClockP_init                                                                                                                                                                                                                                                                                                                                                                                                                                    
a121aad1  ClockP_ticksToUsec                                                                                                                                                                                                                                                                                                                                                                                                                             
a121add1  ClockP_timerClearOverflowInt                                                                                                                                                                                                                                                                                                                                                                                                                   
a12195c1  ClockP_timerTickIsr                                                                                                                                                                                                                                                                                                                                                                                                                            
a121a9f1  ClockP_usecToTicks                                                                                                                                                                                                                                                                                                                                                                                                                             
a1218e31  ClockP_usleep                                                                                                                                                                                                                                                                                                                                                                                                                                  
a1219560  CycleCounterP_getCount32                                                                                                                                                                                                                                                                                                                                                                                                                       
a1215dc1  CycleCounterP_init                                                                                                                                                                                                                                                                                                                                                                                                                             
a1215dd1  CycleCounterP_nsToTicks                                                                                                                                                                                                                                                                                                                                                                                                                        
a1215e01  CycleCounterP_reset                                                                                                                                                                                                                                                                                                                                                                                                                            
a121a351  DebugP_logZoneEnable                                                                                                                                                                                                                                                                                                                                                                                                                           
a12129e1  DebugP_shmLogReaderGetString                                                                                                                                                                                                                                                                                                                                                                                                                   
a12192c1  DebugP_shmLogReaderInit                                                                                                                                                                                                                                                                                                                                                                                                                        
a1217381  DebugP_shmLogReaderTaskCreate                                                                                                                                                                                                                                                                                                                                                                                                                  
a1212ee1  DebugP_shmLogReaderTaskMain                                                                                                                                                                                                                                                                                                                                                                                                                    
a1218bf1  DebugP_uartLogWriterPutChar                                                                                                                                                                                                                                                                                                                                                                                                                    
a121ab91  DebugP_uartSetDrvIndex                                                                                                                                                                                                                                                                                                                                                                                                                         
a1217651  Dpl_init                                                                                                                                                                                                                                                                                                                                                                                                                                       
a121ade1  Drivers_open                                                                                                                                                                                                                                                                                                                                                                                                                                   
a1217881  Drivers_uartOpen                                                                                                                                                                                                                                                                                                                                                                                                                               
a1239f24  FreeRTOS_errno                                                                                                                                                                                                                                                                                                                                                                                                                                 
a1215f74  HOSTclose                                                                                                                                                                                                                                                                                                                                                                                                                                      
a12131fc  HOSTlseek                                                                                                                                                                                                                                                                                                                                                                                                                                      
a12136e8  HOSTopen                                                                                                                                                                                                                                                                                                                                                                                                                                       
a12145c8  HOSTread                                                                                                                                                                                                                                                                                                                                                                                                                                       
a1212a80  HOSTrename                                                                                                                                                                                                                                                                                                                                                                                                                                     
a1215430  HOSTunlink                                                                                                                                                                                                                                                                                                                                                                                                                                     
a121464c  HOSTwrite                                                                                                                                                                                                                                                                                                                                                                                                                                      
00000161  HwiP_Params_init                                                                                                                                                                                                                                                                                                                                                                                                                               
00000111  HwiP_clearInt                                                                                                                                                                                                                                                                                                                                                                                                                                  
00000181  HwiP_construct                                                                                                                                                                                                                                                                                                                                                                                                                                 
00000681  HwiP_data_abort_handler                                                                                                                                                                                                                                                                                                                                                                                                                        
000002d1  HwiP_destruct                                                                                                                                                                                                                                                                                                                                                                                                                                  
0000089c  HwiP_disable                                                                                                                                                                                                                                                                                                                                                                                                                                   
000008ac  HwiP_disableFIQ                                                                                                                                                                                                                                                                                                                                                                                                                                
00000071  HwiP_disableInt                                                                                                                                                                                                                                                                                                                                                                                                                                
000008f4  HwiP_disableVIC                                                                                                                                                                                                                                                                                                                                                                                                                                
000008bc  HwiP_enable                                                                                                                                                                                                                                                                                                                                                                                                                                    
000008cc  HwiP_enableFIQ                                                                                                                                                                                                                                                                                                                                                                                                                                 
00000041  HwiP_enableInt                                                                                                                                                                                                                                                                                                                                                                                                                                 
000008e4  HwiP_enableVIC                                                                                                                                                                                                                                                                                                                                                                                                                                 
00000531  HwiP_fiq_handler                                                                                                                                                                                                                                                                                                                                                                                                                               
00000904  HwiP_getCPSR                                                                                                                                                                                                                                                                                                                                                                                                                                   
00000481  HwiP_inISR                                                                                                                                                                                                                                                                                                                                                                                                                                     
000003b1  HwiP_init                                                                                                                                                                                                                                                                                                                                                                                                                                      
00000758  HwiP_irq_handler                                                                                                                                                                                                                                                                                                                                                                                                                               
000004a1  HwiP_irq_handler_c                                                                                                                                                                                                                                                                                                                                                                                                                             
00000131  HwiP_post                                                                                                                                                                                                                                                                                                                                                                                                                                      
00000651  HwiP_prefetch_abort_handler                                                                                                                                                                                                                                                                                                                                                                                                                    
000005f1  HwiP_reserved_handler                                                                                                                                                                                                                                                                                                                                                                                                                          
000008dc  HwiP_restore                                                                                                                                                                                                                                                                                                                                                                                                                                   
000000b1  HwiP_restoreInt                                                                                                                                                                                                                                                                                                                                                                                                                                
000006e8  HwiP_svc_handler                                                                                                                                                                                                                                                                                                                                                                                                                               
00000621  HwiP_undefined_handler                                                                                                                                                                                                                                                                                                                                                                                                                         
a121a781  IpcNotify_Params_init                                                                                                                                                                                                                                                                                                                                                                                                                          
a121a881  IpcNotify_getConfig                                                                                                                                                                                                                                                                                                                                                                                                                            
a121aba1  IpcNotify_getSelfCoreId                                                                                                                                                                                                                                                                                                                                                                                                                        
a12048d1  IpcNotify_init                                                                                                                                                                                                                                                                                                                                                                                                                                 
a121a8a1  IpcNotify_isCoreEnabled                                                                                                                                                                                                                                                                                                                                                                                                                        
a1210d61  IpcNotify_isr                                                                                                                                                                                                                                                                                                                                                                                                                                  
a1218831  IpcNotify_registerClient                                                                                                                                                                                                                                                                                                                                                                                                                       
a1210b01  IpcNotify_sendMsg                                                                                                                                                                                                                                                                                                                                                                                                                              
a121ac11  IpcNotify_sendSync                                                                                                                                                                                                                                                                                                                                                                                                                             
a121a591  IpcNotify_syncCallback                                                                                                                                                                                                                                                                                                                                                                                                                         
a1215ea1  IpcNotify_waitSync                                                                                                                                                                                                                                                                                                                                                                                                                             
a12195f1  Module_clockEnable                                                                                                                                                                                                                                                                                                                                                                                                                             
a1218e71  Module_clockSetFrequency                                                                                                                                                                                                                                                                                                                                                                                                                       
00000d61  MpuP_RegionAttrs_init                                                                                                                                                                                                                                                                                                                                                                                                                          
00000e61  MpuP_disable                                                                                                                                                                                                                                                                                                                                                                                                                                   
00000f14  MpuP_disableAsm                                                                                                                                                                                                                                                                                                                                                                                                                                
00000f2c  MpuP_disableBRAsm                                                                                                                                                                                                                                                                                                                                                                                                                              
00000e21  MpuP_enable                                                                                                                                                                                                                                                                                                                                                                                                                                    
00000f3c  MpuP_enableAsm                                                                                                                                                                                                                                                                                                                                                                                                                                 
00000f54  MpuP_enableBRAsm                                                                                                                                                                                                                                                                                                                                                                                                                               
00000eb1  MpuP_init                                                                                                                                                                                                                                                                                                                                                                                                                                      
00000ea1  MpuP_isEnable                                                                                                                                                                                                                                                                                                                                                                                                                                  
00000f64  MpuP_isEnableAsm                                                                                                                                                                                                                                                                                                                                                                                                                               
00000d71  MpuP_setRegion                                                                                                                                                                                                                                                                                                                                                                                                                                 
00000f78  MpuP_setRegionAsm                                                                                                                                                                                                                                                                                                                                                                                                                              
a12117b1  Pinmux_config                                                                                                                                                                                                                                                                                                                                                                                                                                  
a121a141  Pinmux_init                                                                                                                                                                                                                                                                                                                                                                                                                                    
a1219588  PmuP_clearOverflowStatus                                                                                                                                                                                                                                                                                                                                                                                                                       
a1219578  PmuP_disableCounters                                                                                                                                                                                                                                                                                                                                                                                                                           
a1219570  PmuP_enableCounters                                                                                                                                                                                                                                                                                                                                                                                                                            
a1219580  PmuP_getOverflowStatus                                                                                                                                                                                                                                                                                                                                                                                                                         
a1219568  PmuP_setup                                                                                                                                                                                                                                                                                                                                                                                                                                     
a121ab61  PowerClock_init                                                                                                                                                                                                                                                                                                                                                                                                                                
a121aae1  RPMessage_CreateParams_init                                                                                                                                                                                                                                                                                                                                                                                                                    
a1219cb1  RPMessage_Params_init                                                                                                                                                                                                                                                                                                                                                                                                                          
a12178d1  RPMessage_allocEndPtMsg                                                                                                                                                                                                                                                                                                                                                                                                                        
a1214b01  RPMessage_construct                                                                                                                                                                                                                                                                                                                                                                                                                            
a1219771  RPMessage_controlEndPtHandler                                                                                                                                                                                                                                                                                                                                                                                                                  
a12132a1  RPMessage_coreInit                                                                                                                                                                                                                                                                                                                                                                                                                             
a1218531  RPMessage_destruct                                                                                                                                                                                                                                                                                                                                                                                                                             
a1215b21  RPMessage_getEndPtMsg                                                                                                                                                                                                                                                                                                                                                                                                                          
a121adf1  RPMessage_getLocalEndPt                                                                                                                                                                                                                                                                                                                                                                                                                        
a1210271  RPMessage_init                                                                                                                                                                                                                                                                                                                                                                                                                                 
a1219eb1  RPMessage_isLinuxCore                                                                                                                                                                                                                                                                                                                                                                                                                          
a1216d31  RPMessage_notifyCallback                                                                                                                                                                                                                                                                                                                                                                                                                       
a120d821  RPMessage_recv                                                                                                                                                                                                                                                                                                                                                                                                                                 
a120e8a1  RPMessage_recvHandler                                                                                                                                                                                                                                                                                                                                                                                                                          
a120ef01  RPMessage_send                                                                                                                                                                                                                                                                                                                                                                                                                                 
a1218cf1  RPMessage_vringCheckEmptyTxBuf                                                                                                                                                                                                                                                                                                                                                                                                                 
a1213961  RPMessage_vringGetEmptyTxBuf                                                                                                                                                                                                                                                                                                                                                                                                                   
a1212271  RPMessage_vringGetFullRxBuf                                                                                                                                                                                                                                                                                                                                                                                                                    
a121a7a1  RPMessage_vringGetRxBufAddr                                                                                                                                                                                                                                                                                                                                                                                                                    
a121a7c1  RPMessage_vringGetTxBufAddr                                                                                                                                                                                                                                                                                                                                                                                                                    
a121a631  RPMessage_vringGetTxBufLen                                                                                                                                                                                                                                                                                                                                                                                                                     
a12164c1  RPMessage_vringIsFullRxBuf                                                                                                                                                                                                                                                                                                                                                                                                                     
a1212d01  RPMessage_vringPutEmptyRxBuf                                                                                                                                                                                                                                                                                                                                                                                                                   
a12160a1  RPMessage_vringPutFullTxBuf                                                                                                                                                                                                                                                                                                                                                                                                                    
a12116f1  RPMessage_vringReset                                                                                                                                                                                                                                                                                                                                                                                                                           
a1213cf1  RPMessage_vringResetInternal                                                                                                                                                                                                                                                                                                                                                                                                                   
a1219a11  SOC_controlModuleLockMMR                                                                                                                                                                                                                                                                                                                                                                                                                       
a1218871  SOC_controlModuleUnlockMMR                                                                                                                                                                                                                                                                                                                                                                                                                     
a121a371  SOC_getSelfCpuClk                                                                                                                                                                                                                                                                                                                                                                                                                              
a1215351  SOC_moduleClockEnable                                                                                                                                                                                                                                                                                                                                                                                                                          
a120dd11  SOC_moduleSetClockFrequency                                                                                                                                                                                                                                                                                                                                                                                                                    
a12173d1  Sciclient_getContext                                                                                                                                                                                                                                                                                                                                                                                                                           
a1218d31  Sciclient_getCurrentContext                                                                                                                                                                                                                                                                                                                                                                                                                    
a121a8c1  Sciclient_getDevId                                                                                                                                                                                                                                                                                                                                                                                                                             
a121abb1  Sciclient_getSelfDevIdCore                                                                                                                                                                                                                                                                                                                                                                                                                     
a1212f81  Sciclient_init                                                                                                                                                                                                                                                                                                                                                                                                                                 
a1215b91  Sciclient_pmGetModuleClkFreq                                                                                                                                                                                                                                                                                                                                                                                                                   
a1214c81  Sciclient_pmGetModuleClkNumParent                                                                                                                                                                                                                                                                                                                                                                                                              
a1215c01  Sciclient_pmGetModuleClkParent                                                                                                                                                                                                                                                                                                                                                                                                                 
a12153c1  Sciclient_pmGetModuleState                                                                                                                                                                                                                                                                                                                                                                                                                     
a1216101  Sciclient_pmModuleClkRequest                                                                                                                                                                                                                                                                                                                                                                                                                   
a1215c71  Sciclient_pmModuleGetClkStatus                                                                                                                                                                                                                                                                                                                                                                                                                 
a1212681  Sciclient_pmQueryModuleClkFreq                                                                                                                                                                                                                                                                                                                                                                                                                 
a1213a01  Sciclient_pmSetModuleClkFreq                                                                                                                                                                                                                                                                                                                                                                                                                   
a1216161  Sciclient_pmSetModuleClkParent                                                                                                                                                                                                                                                                                                                                                                                                                 
a1217fa1  Sciclient_pmSetModuleRst                                                                                                                                                                                                                                                                                                                                                                                                                       
a1216fc1  Sciclient_pmSetModuleState                                                                                                                                                                                                                                                                                                                                                                                                                     
a1204551  Sciclient_service                                                                                                                                                                                                                                                                                                                                                                                                                              
a1215271  SemaphoreP_constructBinary                                                                                                                                                                                                                                                                                                                                                                                                                     
a1217021  SemaphoreP_constructMutex                                                                                                                                                                                                                                                                                                                                                                                                                      
a121ad21  SemaphoreP_destruct                                                                                                                                                                                                                                                                                                                                                                                                                            
a1216641  SemaphoreP_pend                                                                                                                                                                                                                                                                                                                                                                                                                                
a1217081  SemaphoreP_post                                                                                                                                                                                                                                                                                                                                                                                                                                
a120edf1  System_init                                                                                                                                                                                                                                                                                                                                                                                                                                    
a121a73c  TI_memcpy_small                                                                                                                                                                                                                                                                                                                                                                                                                                
a121a958  TI_memset_small                                                                                                                                                                                                                                                                                                                                                                                                                                
a1212111  TaskP_loadUpdateAll                                                                                                                                                                                                                                                                                                                                                                                                                            
a121ae01  TaskP_yield                                                                                                                                                                                                                                                                                                                                                                                                                                    
a121a391  TimerP_Params_init                                                                                                                                                                                                                                                                                                                                                                                                                             
a121aa51  TimerP_clearOverflowInt                                                                                                                                                                                                                                                                                                                                                                                                                        
a121ae11  TimerP_getCount                                                                                                                                                                                                                                                                                                                                                                                                                                
a121ae21  TimerP_getReloadCount                                                                                                                                                                                                                                                                                                                                                                                                                          
a120a3c1  TimerP_setup                                                                                                                                                                                                                                                                                                                                                                                                                                   
a121ac21  TimerP_start                                                                                                                                                                                                                                                                                                                                                                                                                                   
a120ce21  UART_close                                                                                                                                                                                                                                                                                                                                                                                                                                     
a1216d91  UART_dmaClose                                                                                                                                                                                                                                                                                                                                                                                                                                  
a1216bb1  UART_dmaDisableChannel                                                                                                                                                                                                                                                                                                                                                                                                                         
a1218c31  UART_dmaOpen                                                                                                                                                                                                                                                                                                                                                                                                                                   
a1211cd1  UART_flushTxFifo                                                                                                                                                                                                                                                                                                                                                                                                                               
a1219621  UART_getHandle                                                                                                                                                                                                                                                                                                                                                                                                                                 
a1213781  UART_init                                                                                                                                                                                                                                                                                                                                                                                                                                      
a1202311  UART_open                                                                                                                                                                                                                                                                                                                                                                                                                                      
a1207f71  UART_write                                                                                                                                                                                                                                                                                                                                                                                                                                     
a121a7e1  UART_writeInterruptDma                                                                                                                                                                                                                                                                                                                                                                                                                         
a122d08c  _CIOBUF_                                                                                                                                                                                                                                                                                                                                                                                                                                       
a1216341  _DebugP_assert                                                                                                                                                                                                                                                                                                                                                                                                                                 
000010a1  _DebugP_assertNoLog                                                                                                                                                                                                                                                                                                                                                                                                                            
a1214ef1  _DebugP_logZone                                                                                                                                                                                                                                                                                                                                                                                                                                
a121aa71  _Z13freertos_mainPv                                                                                                                                                                                                                                                                                                                                                                                                                            
a120b331  _Z16SerializeMessageRK7Message                                                                                                                                                                                                                                                                                                                                                                                                                 
a12098d1  _Z18DeserializeMessageRKNSt3__112basic_stringIcNS_11char_traitsIcEENS_9allocatorIcEEEE                                                                                                                                                                                                                                                                                                                                                         
a1211ab1  _Z18communication_mainPv                                                                                                                                                                                                                                                                                                                                                                                                                       
a1212da1  _Z6brokerii                                                                                                                                                                                                                                                                                                                                                                                                                                    
a120a021  _Z8consumeriiNSt3__112basic_stringIcNS_11char_traitsIcEENS_9allocatorIcEEEE                                                                                                                                                                                                                                                                                                                                                                    
a1207101  _Z8produceriiNSt3__112basic_stringIcNS_11char_traitsIcEENS_9allocatorIcEEEE                                                                                                                                                                                                                                                                                                                                                                    
a120feb1  _ZN10TopicProxy11unsubscribeE16ConsumerMetadata                                                                                                                                                                                                                                                                                                                                                                                                
a120a581  _ZN10TopicProxy4pollE16ConsumerMetadata                                                                                                                                                                                                                                                                                                                                                                                                        
a1218571  _ZN10TopicProxy4readE16ConsumerMetadata                                                                                                                                                                                                                                                                                                                                                                                                        
a120f801  _ZN10TopicProxy7publishE16ProducerMetadata6Record                                                                                                                                                                                                                                                                                                                                                                                              
a120ffa1  _ZN10TopicProxy9subscribeE16ConsumerMetadata                                                                                                                                                                                                                                                                                                                                                                                                   
a1213fc1  _ZN10TopicProxyC1E17CommunicationType14BrokerMetadata13TopicMetadataRK6Logger                                                                                                                                                                                                                                                                                                                                                                  
a1213fc1  _ZN10TopicProxyC2E17CommunicationType14BrokerMetadata13TopicMetadataRK6Logger                                                                                                                                                                                                                                                                                                                                                                  
a1219ce1  _ZN10TopicProxyD0Ev                                                                                                                                                                                                                                                                                                                                                                                                                            
a1219fd1  _ZN10TopicProxyD1Ev                                                                                                                                                                                                                                                                                                                                                                                                                            
a1219fd1  _ZN10TopicProxyD2Ev                                                                                                                                                                                                                                                                                                                                                                                                                            
a121ae30  _ZN10__cxxabiv116__enum_type_infoD1Ev                                                                                                                                                                                                                                                                                                                                                                                                          
a121ae30  _ZN10__cxxabiv116__enum_type_infoD2Ev                                                                                                                                                                                                                                                                                                                                                                                                          
a121ae30  _ZN10__cxxabiv116__shim_type_infoD1Ev                                                                                                                                                                                                                                                                                                                                                                                                          
a121ae30  _ZN10__cxxabiv116__shim_type_infoD2Ev                                                                                                                                                                                                                                                                                                                                                                                                          
a121ae30  _ZN10__cxxabiv117__array_type_infoD1Ev                                                                                                                                                                                                                                                                                                                                                                                                         
a121ae30  _ZN10__cxxabiv117__array_type_infoD2Ev                                                                                                                                                                                                                                                                                                                                                                                                         
a121aaf0  _ZN10__cxxabiv117__class_type_infoD0Ev                                                                                                                                                                                                                                                                                                                                                                                                         
a121ae30  _ZN10__cxxabiv117__class_type_infoD1Ev                                                                                                                                                                                                                                                                                                                                                                                                         
a121ae30  _ZN10__cxxabiv117__class_type_infoD2Ev                                                                                                                                                                                                                                                                                                                                                                                                         
a121ae30  _ZN10__cxxabiv117__pbase_type_infoD1Ev                                                                                                                                                                                                                                                                                                                                                                                                         
a121ae30  _ZN10__cxxabiv117__pbase_type_infoD2Ev                                                                                                                                                                                                                                                                                                                                                                                                         
a121ae30  _ZN10__cxxabiv119__pointer_type_infoD1Ev                                                                                                                                                                                                                                                                                                                                                                                                       
a121ae30  _ZN10__cxxabiv119__pointer_type_infoD2Ev                                                                                                                                                                                                                                                                                                                                                                                                       
a121ae30  _ZN10__cxxabiv120__function_type_infoD1Ev                                                                                                                                                                                                                                                                                                                                                                                                      
a121ae30  _ZN10__cxxabiv120__function_type_infoD2Ev                                                                                                                                                                                                                                                                                                                                                                                                      
a121ab00  _ZN10__cxxabiv120__si_class_type_infoD0Ev                                                                                                                                                                                                                                                                                                                                                                                                      
a121ae30  _ZN10__cxxabiv120__si_class_type_infoD1Ev                                                                                                                                                                                                                                                                                                                                                                                                      
a121ae30  _ZN10__cxxabiv120__si_class_type_infoD2Ev                                                                                                                                                                                                                                                                                                                                                                                                      
a121ae30  _ZN10__cxxabiv121__vmi_class_type_infoD1Ev                                                                                                                                                                                                                                                                                                                                                                                                     
a121ae30  _ZN10__cxxabiv121__vmi_class_type_infoD2Ev                                                                                                                                                                                                                                                                                                                                                                                                     
a121ae30  _ZN10__cxxabiv123__fundamental_type_infoD1Ev                                                                                                                                                                                                                                                                                                                                                                                                   
a121ae30  _ZN10__cxxabiv123__fundamental_type_infoD2Ev                                                                                                                                                                                                                                                                                                                                                                                                   
a121ae30  _ZN10__cxxabiv129__pointer_to_member_type_infoD1Ev                                                                                                                                                                                                                                                                                                                                                                                             
a121ae30  _ZN10__cxxabiv129__pointer_to_member_type_infoD2Ev                                                                                                                                                                                                                                                                                                                                                                                             
a1213821  _ZN11UDPEndpoint9from_jsonERKN8nlohmann16json_abi_v3_11_210basic_jsonINSt3__13mapENS3_6vectorENS3_12basic_stringIcNS3_11char_traitsIcEENS3_9allocatorIcEEEEbxydS9_NS1_14adl_serializerENS5_IhNS9_IhEEEEvEE                                                                                                                                                                                                                                     
a12197a1  _ZN11UDPEndpointC1Ev                                                                                                                                                                                                                                                                                                                                                                                                                           
a12197a1  _ZN11UDPEndpointC2Ev                                                                                                                                                                                                                                                                                                                                                                                                                           
a121ae41  _ZN11UDPEndpointD0Ev                                                                                                                                                                                                                                                                                                                                                                                                                           
a121b081  _ZN11UDPEndpointD1Ev                                                                                                                                                                                                                                                                                                                                                                                                                           
a121b081  _ZN11UDPEndpointD2Ev                                                                                                                                                                                                                                                                                                                                                                                                                           
a1209511  _ZN12TopicFactory12createTopicsEv                                                                                                                                                                                                                                                                                                                                                                                                              
a1219a41  _ZN12TopicFactory26retrieveClusterInformationEv                                                                                                                                                                                                                                                                                                                                                                                                
a121ad31  _ZN12TopicFactory8askForIDEv                                                                                                                                                                                                                                                                                                                                                                                                                   
a1218d71  _ZN12TopicFactory8getTopicE13TopicMetadata                                                                                                                                                                                                                                                                                                                                                                                                     
a1210961  _ZN12TopicFactory9findTopicE13TopicMetadata                                                                                                                                                                                                                                                                                                                                                                                                    
a1215f11  _ZN12TopicFactoryC1E17CommunicationTypeRK6Logger14BrokerMetadatab                                                                                                                                                                                                                                                                                                                                                                              
a1215f11  _ZN12TopicFactoryC2E17CommunicationTypeRK6Logger14BrokerMetadatab                                                                                                                                                                                                                                                                                                                                                                              
a121a5b1  _ZN12TopicFactoryD1Ev                                                                                                                                                                                                                                                                                                                                                                                                                          
a121a5b1  _ZN12TopicFactoryD2Ev                                                                                                                                                                                                                                                                                                                                                                                                                          
a1214881  _ZN12TopicHandler11unsubscribeE16ConsumerMetadata13TopicMetadata                                                                                                                                                                                                                                                                                                                                                                               
a1210451  _ZN12TopicHandler14findTopicIndexE13TopicMetadata                                                                                                                                                                                                                                                                                                                                                                                              
a1211241  _ZN12TopicHandler15addHandledTopicE13TopicMetadata                                                                                                                                                                                                                                                                                                                                                                                             
a120bf51  _ZN12TopicHandler4pollE16ConsumerMetadata13TopicMetadata                                                                                                                                                                                                                                                                                                                                                                                       
a1209321  _ZN12TopicHandler4saveE6Record13TopicMetadata16ProducerMetadata                                                                                                                                                                                                                                                                                                                                                                                
a1212b21  _ZN12TopicHandler9subscribeE16ConsumerMetadata13TopicMetadata                                                                                                                                                                                                                                                                                                                                                                                  
a12191c1  _ZN12TopicHandlerC1E17CommunicationTypeRK6LoggerP13Communicationb                                                                                                                                                                                                                                                                                                                                                                              
a12191c1  _ZN12TopicHandlerC2E17CommunicationTypeRK6LoggerP13Communicationb                                                                                                                                                                                                                                                                                                                                                                              
a121a8e1  _ZN12TopicHandlerD1Ev                                                                                                                                                                                                                                                                                                                                                                                                                          
a121a8e1  _ZN12TopicHandlerD2Ev                                                                                                                                                                                                                                                                                                                                                                                                                          
a1207321  _ZN13SystemManager4initEv                                                                                                                                                                                                                                                                                                                                                                                                                      
a120bb01  _ZN13SystemManager8askForIDEv                                                                                                                                                                                                                                                                                                                                                                                                                  
a1217421  _ZN13SystemManagerC1E17CommunicationTypeRK6Logger14BrokerMetadatab                                                                                                                                                                                                                                                                                                                                                                             
a1217421  _ZN13SystemManagerC2E17CommunicationTypeRK6Logger14BrokerMetadatab                                                                                                                                                                                                                                                                                                                                                                             
a1219a71  _ZN13SystemManagerD1Ev                                                                                                                                                                                                                                                                                                                                                                                                                         
a1219a71  _ZN13SystemManagerD2Ev                                                                                                                                                                                                                                                                                                                                                                                                                         
a121ae51  _ZN13TopicMetadata7setNameENSt3__112basic_stringIcNS0_11char_traitsIcEENS0_9allocatorIcEEEE                                                                                                                                                                                                                                                                                                                                                    
a12189b1  _ZN13TopicMetadata9from_jsonERKN8nlohmann16json_abi_v3_11_210basic_jsonINSt3__13mapENS3_6vectorENS3_12basic_stringIcNS3_11char_traitsIcEENS3_9allocatorIcEEEEbxydS9_NS1_14adl_serializerENS5_IhNS9_IhEEEEvEE                                                                                                                                                                                                                                   
a121ae61  _ZN13TopicMetadataC1ENSt3__112basic_stringIcNS0_11char_traitsIcEENS0_9allocatorIcEEEE                                                                                                                                                                                                                                                                                                                                                          
a121ac31  _ZN13TopicMetadataC1Ev                                                                                                                                                                                                                                                                                                                                                                                                                         
a121ae61  _ZN13TopicMetadataC2ENSt3__112basic_stringIcNS0_11char_traitsIcEENS0_9allocatorIcEEEE                                                                                                                                                                                                                                                                                                                                                          
a121ac31  _ZN13TopicMetadataC2Ev                                                                                                                                                                                                                                                                                                                                                                                                                         
a121a3b1  _ZN14BrokerMetadata16addTopicMetadataE13TopicMetadata                                                                                                                                                                                                                                                                                                                                                                                          
a1208771  _ZN14BrokerMetadata9from_jsonERKN8nlohmann16json_abi_v3_11_210basic_jsonINSt3__13mapENS3_6vectorENS3_12basic_stringIcNS3_11char_traitsIcEENS3_9allocatorIcEEEEbxydS9_NS1_14adl_serializerENS5_IhNS9_IhEEEEvEE                                                                                                                                                                                                                                  
a121abc1  _ZN14BrokerMetadataC1EP8Endpoint                                                                                                                                                                                                                                                                                                                                                                                                               
a121ac41  _ZN14BrokerMetadataC1Ev                                                                                                                                                                                                                                                                                                                                                                                                                        
a121abc1  _ZN14BrokerMetadataC2EP8Endpoint                                                                                                                                                                                                                                                                                                                                                                                                               
a121ac41  _ZN14BrokerMetadataC2Ev                                                                                                                                                                                                                                                                                                                                                                                                                        
a121ae71  _ZN14ClientMetadata5setIdEi                                                                                                                                                                                                                                                                                                                                                                                                                    
a121ae81  _ZN14ClientMetadataC1Ei                                                                                                                                                                                                                                                                                                                                                                                                                        
a121b091  _ZN14ClientMetadataC1Ev                                                                                                                                                                                                                                                                                                                                                                                                                        
a121ae81  _ZN14ClientMetadataC2Ei                                                                                                                                                                                                                                                                                                                                                                                                                        
a121b091  _ZN14ClientMetadataC2Ev                                                                                                                                                                                                                                                                                                                                                                                                                        
a121a971  _ZN14ProducerRecordC1E13TopicMetadata6Record                                                                                                                                                                                                                                                                                                                                                                                                   
a121a971  _ZN14ProducerRecordC2E13TopicMetadata6Record                                                                                                                                                                                                                                                                                                                                                                                                   
a1214051  _ZN15ClusterMetadata17addBrokerMetadataE14BrokerMetadata                                                                                                                                                                                                                                                                                                                                                                                       
a121aca1  _ZN15ClusterMetadata18getBrokersMetadataEv                                                                                                                                                                                                                                                                                                                                                                                                     
a120b801  _ZN15ClusterMetadata9from_jsonERKN8nlohmann16json_abi_v3_11_210basic_jsonINSt3__13mapENS3_6vectorENS3_12basic_stringIcNS3_11char_traitsIcEENS3_9allocatorIcEEEEbxydS9_NS1_14adl_serializerENS5_IhNS9_IhEEEEvEE                                                                                                                                                                                                                                 
a121ae91  _ZN15ClusterMetadataD1Ev                                                                                                                                                                                                                                                                                                                                                                                                                       
a121ae91  _ZN15ClusterMetadataD2Ev                                                                                                                                                                                                                                                                                                                                                                                                                       
a1239f8c  _ZN15EndpointFactory12freeEndpointE                                                                                                                                                                                                                                                                                                                                                                                                            
a1219aa1  _ZN15EndpointFactory14createEndpointE17CommunicationType                                                                                                                                                                                                                                                                                                                                                                                       
a1217471  _ZN15EndpointFactory15getFreeEndpointEv                                                                                                                                                                                                                                                                                                                                                                                                        
a121aea1  _ZN16ConsumerMetadata11setEndpointEP8Endpoint                                                                                                                                                                                                                                                                                                                                                                                                  
a121ad41  _ZN16ConsumerMetadataC1EiP8Endpoint                                                                                                                                                                                                                                                                                                                                                                                                            
a121abd1  _ZN16ConsumerMetadataC1Ev                                                                                                                                                                                                                                                                                                                                                                                                                      
a121ad41  _ZN16ConsumerMetadataC2EiP8Endpoint                                                                                                                                                                                                                                                                                                                                                                                                            
a121abd1  _ZN16ConsumerMetadataC2Ev                                                                                                                                                                                                                                                                                                                                                                                                                      
a121aeb1  _ZN16ProducerMetadataC1Ei                                                                                                                                                                                                                                                                                                                                                                                                                      
a121b0a1  _ZN16ProducerMetadataC1Ev                                                                                                                                                                                                                                                                                                                                                                                                                      
a121aeb1  _ZN16ProducerMetadataC2Ei                                                                                                                                                                                                                                                                                                                                                                                                                      
a121b0a1  _ZN16ProducerMetadataC2Ev                                                                                                                                                                                                                                                                                                                                                                                                                      
a121aec1  _ZN17RPMessageEndpoint18setServiceEndpointEt                                                                                                                                                                                                                                                                                                                                                                                                   
a12170e1  _ZN17RPMessageEndpoint9from_jsonERKN8nlohmann16json_abi_v3_11_210basic_jsonINSt3__13mapENS3_6vectorENS3_12basic_stringIcNS3_11char_traitsIcEENS3_9allocatorIcEEEEbxydS9_NS1_14adl_serializerENS5_IhNS9_IhEEEEvEE                                                                                                                                                                                                                               
a121aed1  _ZN17RPMessageEndpoint9setCoreIdEj                                                                                                                                                                                                                                                                                                                                                                                                             
a121aa91  _ZN17RPMessageEndpointC1Ejt                                                                                                                                                                                                                                                                                                                                                                                                                    
a121a801  _ZN17RPMessageEndpointC1Ev                                                                                                                                                                                                                                                                                                                                                                                                                     
a121aa91  _ZN17RPMessageEndpointC2Ejt                                                                                                                                                                                                                                                                                                                                                                                                                    
a121a801  _ZN17RPMessageEndpointC2Ev                                                                                                                                                                                                                                                                                                                                                                                                                     
a121aee1  _ZN17RPMessageEndpointD0Ev                                                                                                                                                                                                                                                                                                                                                                                                                     
a121b0b1  _ZN17RPMessageEndpointD1Ev                                                                                                                                                                                                                                                                                                                                                                                                                     
a121b0b1  _ZN17RPMessageEndpointD2Ev                                                                                                                                                                                                                                                                                                                                                                                                                     
a1217b01  _ZN18CommunicationUtils7requestEP13Communication17CommunicationTypeP8EndpointPKcjPcj                                                                                                                                                                                                                                                                                                                                                           
a121a3d1  _ZN20CommunicationFactory19createCommunicationE17CommunicationTypeRK8EndpointRK6Logger                                                                                                                                                                                                                                                                                                                                                         
a1215171  _ZN22RPMessageCommunication4readEPcjR8Endpoint                                                                                                                                                                                                                                                                                                                                                                                                 
a12155f1  _ZN22RPMessageCommunication5writeEPKcjRK8Endpoint                                                                                                                                                                                                                                                                                                                                                                                              
a1214761  _ZN22RPMessageCommunicationC1ERK17RPMessageEndpointRK6Logger                                                                                                                                                                                                                                                                                                                                                                                   
a1214761  _ZN22RPMessageCommunicationC2ERK17RPMessageEndpointRK6Logger                                                                                                                                                                                                                                                                                                                                                                                   
a12197d1  _ZN22RPMessageCommunicationD0Ev                                                                                                                                                                                                                                                                                                                                                                                                                
a1219ee1  _ZN22RPMessageCommunicationD1Ev                                                                                                                                                                                                                                                                                                                                                                                                                
a1219ee1  _ZN22RPMessageCommunicationD2Ev                                                                                                                                                                                                                                                                                                                                                                                                                
a121a3f1  _ZN5TopicC2E13TopicMetadataRK6Logger                                                                                                                                                                                                                                                                                                                                                                                                           
a121b0c1  _ZN5TopicD0Ev                                                                                                                                                                                                                                                                                                                                                                                                                                  
a121a171  _ZN5TopicD1Ev                                                                                                                                                                                                                                                                                                                                                                                                                                  
a121a171  _ZN5TopicD2Ev                                                                                                                                                                                                                                                                                                                                                                                                                                  
a12058f1  _ZN6Broker12askForTopicsEv                                                                                                                                                                                                                                                                                                                                                                                                                     
a1204c51  _ZN6Broker15handleOperationEPKcP8Endpoint                                                                                                                                                                                                                                                                                                                                                                                                      
a1215fe1  _ZN6Broker18createTestingTopicEv                                                                                                                                                                                                                                                                                                                                                                                                               
a12135b1  _ZN6Broker5startEv                                                                                                                                                                                                                                                                                                                                                                                                                             
a1214f71  _ZN6BrokerC1E17CommunicationTypeRK8EndpointRK6Logger14BrokerMetadatabb                                                                                                                                                                                                                                                                                                                                                                         
a1214f71  _ZN6BrokerC2E17CommunicationTypeRK8EndpointRK6Logger14BrokerMetadatabb                                                                                                                                                                                                                                                                                                                                                                         
a1219d11  _ZN6BrokerD1Ev                                                                                                                                                                                                                                                                                                                                                                                                                                 
a1219d11  _ZN6BrokerD2Ev                                                                                                                                                                                                                                                                                                                                                                                                                                 
a121aef1  _ZN6Logger8setDebugEb                                                                                                                                                                                                                                                                                                                                                                                                                          
a121af01  _ZN6Record7setDataENSt3__112basic_stringIcNS0_11char_traitsIcEENS0_9allocatorIcEEEE                                                                                                                                                                                                                                                                                                                                                            
a12189f1  _ZN6Record9from_jsonERKN8nlohmann16json_abi_v3_11_210basic_jsonINSt3__13mapENS3_6vectorENS3_12basic_stringIcNS3_11char_traitsIcEENS3_9allocatorIcEEEEbxydS9_NS1_14adl_serializerENS5_IhNS9_IhEEEEvEE                                                                                                                                                                                                                                           
a121af11  _ZN6RecordC1ENSt3__112basic_stringIcNS0_11char_traitsIcEENS0_9allocatorIcEEEE                                                                                                                                                                                                                                                                                                                                                                  
a121abe1  _ZN6RecordC1Ev                                                                                                                                                                                                                                                                                                                                                                                                                                 
a121af11  _ZN6RecordC2ENSt3__112basic_stringIcNS0_11char_traitsIcEENS0_9allocatorIcEEEE                                                                                                                                                                                                                                                                                                                                                                  
a121abe1  _ZN6RecordC2Ev                                                                                                                                                                                                                                                                                                                                                                                                                                 
a12185b1  _ZN8Consumer4pollE13TopicMetadata                                                                                                                                                                                                                                                                                                                                                                                                              
a1216521  _ZN8Consumer9subscribeE13TopicMetadata                                                                                                                                                                                                                                                                                                                                                                                                         
a12130c1  _ZN8ConsumerC1E17CommunicationTypeRK6Logger14BrokerMetadatab                                                                                                                                                                                                                                                                                                                                                                                   
a12130c1  _ZN8ConsumerC2E17CommunicationTypeRK6Logger14BrokerMetadatab                                                                                                                                                                                                                                                                                                                                                                                   
a1216c11  _ZN8Producer7publishE14ProducerRecord                                                                                                                                                                                                                                                                                                                                                                                                          
a1213d81  _ZN8ProducerC1E17CommunicationTypeRK6Logger14BrokerMetadatab                                                                                                                                                                                                                                                                                                                                                                                   
a1213d81  _ZN8ProducerC2E17CommunicationTypeRK6Logger14BrokerMetadatab                                                                                                                                                                                                                                                                                                                                                                                   
a1203e31  _ZN8nlohmann16json_abi_v3_11_210basic_jsonINSt3__13mapENS2_6vectorENS2_12basic_stringIcNS2_11char_traitsIcEENS2_9allocatorIcEEEEbxydS8_NS0_14adl_serializerENS4_IhNS8_IhEEEEvE10json_value7destroyENS0_6detail7value_tE                                                                                                                                                                                                                        
a1217921  _ZN8nlohmann16json_abi_v3_11_210basic_jsonINSt3__13mapENS2_6vectorENS2_12basic_stringIcNS2_11char_traitsIcEENS2_9allocatorIcEEEEbxydS8_NS0_14adl_serializerENS4_IhNS8_IhEEEEvE10json_valueC2ENS0_6detail7value_tE                                                                                                                                                                                                                              
a121a411  _ZN8nlohmann16json_abi_v3_11_210basic_jsonINSt3__13mapENS2_6vectorENS2_12basic_stringIcNS2_11char_traitsIcEENS2_9allocatorIcEEEEbxydS8_NS0_14adl_serializerENS4_IhNS8_IhEEEEvE2atIRA5_KcLi0EEERSE_OT_                                                                                                                                                                                                                                          
a120f401  _ZN8nlohmann16json_abi_v3_11_210basic_jsonINSt3__13mapENS2_6vectorENS2_12basic_stringIcNS2_11char_traitsIcEENS2_9allocatorIcEEEEbxydS8_NS0_14adl_serializerENS4_IhNS8_IhEEEEvE5eraseINS0_6detail9iter_implISE_EELi0EEET_SJ_                                                                                                                                                                                                                    
a12140e1  _ZN8nlohmann16json_abi_v3_11_210basic_jsonINSt3__13mapENS2_6vectorENS2_12basic_stringIcNS2_11char_traitsIcEENS2_9allocatorIcEEEEbxydS8_NS0_14adl_serializerENS4_IhNS8_IhEEEEvE5parseIRA1024_cEESE_OT_NS2_8functionIFbiNS0_6detail13parse_event_tERSE_EEEbb                                                                                                                                                                                     
a1218eb1  _ZN8nlohmann16json_abi_v3_11_210basic_jsonINSt3__13mapENS2_6vectorENS2_12basic_stringIcNS2_11char_traitsIcEENS2_9allocatorIcEEEEbxydS8_NS0_14adl_serializerENS4_IhNS8_IhEEEEvE6createINS0_27byte_container_with_subtypeISD_EEJEEEPT_DpOT0_                                                                                                                                                                                                     
a12188b1  _ZN8nlohmann16json_abi_v3_11_210basic_jsonINSt3__13mapENS2_6vectorENS2_12basic_stringIcNS2_11char_traitsIcEENS2_9allocatorIcEEEEbxydS8_NS0_14adl_serializerENS4_IhNS8_IhEEEEvE6createINS0_27byte_container_with_subtypeISD_EEJRKSH_EEEPT_DpOT0_                                                                                                                                                                                                
a1218ff1  _ZN8nlohmann16json_abi_v3_11_210basic_jsonINSt3__13mapENS2_6vectorENS2_12basic_stringIcNS2_11char_traitsIcEENS2_9allocatorIcEEEEbxydS8_NS0_14adl_serializerENS4_IhNS8_IhEEEEvE6createINS3_ISA_SE_NS2_4lessIvEENS8_INS2_4pairIKSA_SE_EEEEEEJEEEPT_DpOT0_                                                                                                                                                                                        
a12181c1  _ZN8nlohmann16json_abi_v3_11_210basic_jsonINSt3__13mapENS2_6vectorENS2_12basic_stringIcNS2_11char_traitsIcEENS2_9allocatorIcEEEEbxydS8_NS0_14adl_serializerENS4_IhNS8_IhEEEEvE6createINS3_ISA_SE_NS2_4lessIvEENS8_INS2_4pairIKSA_SE_EEEEEEJRKSM_EEEPT_DpOT0_                                                                                                                                                                                   
a12192f1  _ZN8nlohmann16json_abi_v3_11_210basic_jsonINSt3__13mapENS2_6vectorENS2_12basic_stringIcNS2_11char_traitsIcEENS2_9allocatorIcEEEEbxydS8_NS0_14adl_serializerENS4_IhNS8_IhEEEEvE6createINS4_ISE_NS8_ISE_EEEEJEEEPT_DpOT0_                                                                                                                                                                                                                        
a1219031  _ZN8nlohmann16json_abi_v3_11_210basic_jsonINSt3__13mapENS2_6vectorENS2_12basic_stringIcNS2_11char_traitsIcEENS2_9allocatorIcEEEEbxydS8_NS0_14adl_serializerENS4_IhNS8_IhEEEEvE6createINS4_ISE_NS8_ISE_EEEEJPKNS0_6detail8json_refISE_EESM_EEEPT_DpOT0_                                                                                                                                                                                         
a1219321  _ZN8nlohmann16json_abi_v3_11_210basic_jsonINSt3__13mapENS2_6vectorENS2_12basic_stringIcNS2_11char_traitsIcEENS2_9allocatorIcEEEEbxydS8_NS0_14adl_serializerENS4_IhNS8_IhEEEEvE6createINS4_ISE_NS8_ISE_EEEEJRKSH_EEEPT_DpOT0_                                                                                                                                                                                                                   
a1219351  _ZN8nlohmann16json_abi_v3_11_210basic_jsonINSt3__13mapENS2_6vectorENS2_12basic_stringIcNS2_11char_traitsIcEENS2_9allocatorIcEEEEbxydS8_NS0_14adl_serializerENS4_IhNS8_IhEEEEvE6createISA_JRA10_KcEEEPT_DpOT0_                                                                                                                                                                                                                                  
a1219381  _ZN8nlohmann16json_abi_v3_11_210basic_jsonINSt3__13mapENS2_6vectorENS2_12basic_stringIcNS2_11char_traitsIcEENS2_9allocatorIcEEEEbxydS8_NS0_14adl_serializerENS4_IhNS8_IhEEEEvE6createISA_JRA16_KcEEEPT_DpOT0_                                                                                                                                                                                                                                  
a12193b1  _ZN8nlohmann16json_abi_v3_11_210basic_jsonINSt3__13mapENS2_6vectorENS2_12basic_stringIcNS2_11char_traitsIcEENS2_9allocatorIcEEEEbxydS8_NS0_14adl_serializerENS4_IhNS8_IhEEEEvE6createISA_JRA1_KcEEEPT_DpOT0_                                                                                                                                                                                                                                   
a12193e1  _ZN8nlohmann16json_abi_v3_11_210basic_jsonINSt3__13mapENS2_6vectorENS2_12basic_stringIcNS2_11char_traitsIcEENS2_9allocatorIcEEEEbxydS8_NS0_14adl_serializerENS4_IhNS8_IhEEEEvE6createISA_JRA22_KcEEEPT_DpOT0_                                                                                                                                                                                                                                  
a1219411  _ZN8nlohmann16json_abi_v3_11_210basic_jsonINSt3__13mapENS2_6vectorENS2_12basic_stringIcNS2_11char_traitsIcEENS2_9allocatorIcEEEEbxydS8_NS0_14adl_serializerENS4_IhNS8_IhEEEEvE6createISA_JRA3_KcEEEPT_DpOT0_                                                                                                                                                                                                                                   
a1219441  _ZN8nlohmann16json_abi_v3_11_210basic_jsonINSt3__13mapENS2_6vectorENS2_12basic_stringIcNS2_11char_traitsIcEENS2_9allocatorIcEEEEbxydS8_NS0_14adl_serializerENS4_IhNS8_IhEEEEvE6createISA_JRA5_KcEEEPT_DpOT0_                                                                                                                                                                                                                                   
a1219471  _ZN8nlohmann16json_abi_v3_11_210basic_jsonINSt3__13mapENS2_6vectorENS2_12basic_stringIcNS2_11char_traitsIcEENS2_9allocatorIcEEEEbxydS8_NS0_14adl_serializerENS4_IhNS8_IhEEEEvE6createISA_JRA7_KcEEEPT_DpOT0_                                                                                                                                                                                                                                   
a12194a1  _ZN8nlohmann16json_abi_v3_11_210basic_jsonINSt3__13mapENS2_6vectorENS2_12basic_stringIcNS2_11char_traitsIcEENS2_9allocatorIcEEEEbxydS8_NS0_14adl_serializerENS4_IhNS8_IhEEEEvE6createISA_JRA9_KcEEEPT_DpOT0_                                                                                                                                                                                                                                   
a12194d1  _ZN8nlohmann16json_abi_v3_11_210basic_jsonINSt3__13mapENS2_6vectorENS2_12basic_stringIcNS2_11char_traitsIcEENS2_9allocatorIcEEEEbxydS8_NS0_14adl_serializerENS4_IhNS8_IhEEEEvE6createISA_JRKSA_EEEPT_DpOT0_                                                                                                                                                                                                                                    
a12166a1  _ZN8nlohmann16json_abi_v3_11_210basic_jsonINSt3__13mapENS2_6vectorENS2_12basic_stringIcNS2_11char_traitsIcEENS2_9allocatorIcEEEEbxydS8_NS0_14adl_serializerENS4_IhNS8_IhEEEEvE6parserINS0_6detail22iterator_input_adapterIPcEEEENSG_6parserISE_T_EESL_NS2_8functionIFbiNSG_13parse_event_tERSE_EEEbb                                                                                                                                           
a12154a1  _ZN8nlohmann16json_abi_v3_11_210basic_jsonINSt3__13mapENS2_6vectorENS2_12basic_stringIcNS2_11char_traitsIcEENS2_9allocatorIcEEEEbxydS8_NS0_14adl_serializerENS4_IhNS8_IhEEEEvEC2ERKSE_                                                                                                                                                                                                                                                         
a120fa01  _ZN8nlohmann16json_abi_v3_11_210basic_jsonINSt3__13mapENS2_6vectorENS2_12basic_stringIcNS2_11char_traitsIcEENS2_9allocatorIcEEEEbxydS8_NS0_14adl_serializerENS4_IhNS8_IhEEEEvEC2ESt16initializer_listINS0_6detail8json_refISE_EEEbNSG_7value_tE                                                                                                                                                                                                
a12176a1  _ZN8nlohmann16json_abi_v3_11_210basic_jsonINSt3__13mapENS2_6vectorENS2_12basic_stringIcNS2_11char_traitsIcEENS2_9allocatorIcEEEEbxydS8_NS0_14adl_serializerENS4_IhNS8_IhEEEEvEC2INS0_6detail8json_refISE_EELi0EEERKT_                                                                                                                                                                                                                          
a1218a31  _ZN8nlohmann16json_abi_v3_11_210basic_jsonINSt3__13mapENS2_6vectorENS2_12basic_stringIcNS2_11char_traitsIcEENS2_9allocatorIcEEEEbxydS8_NS0_14adl_serializerENS4_IhNS8_IhEEEEvEC2IRKjjLi0EEEOT_                                                                                                                                                                                                                                                 
a1218a71  _ZN8nlohmann16json_abi_v3_11_210basic_jsonINSt3__13mapENS2_6vectorENS2_12basic_stringIcNS2_11char_traitsIcEENS2_9allocatorIcEEEEbxydS8_NS0_14adl_serializerENS4_IhNS8_IhEEEEvEC2IRKttLi0EEEOT_                                                                                                                                                                                                                                                 
a1218ab1  _ZN8nlohmann16json_abi_v3_11_210basic_jsonINSt3__13mapENS2_6vectorENS2_12basic_stringIcNS2_11char_traitsIcEENS2_9allocatorIcEEEEbxydS8_NS0_14adl_serializerENS4_IhNS8_IhEEEEvEC2IRbbLi0EEEOT_                                                                                                                                                                                                                                                  
a1218211  _ZN8nlohmann16json_abi_v3_11_210basic_jsonINSt3__13mapENS2_6vectorENS2_12basic_stringIcNS2_11char_traitsIcEENS2_9allocatorIcEEEEbxydS8_NS0_14adl_serializerENS4_IhNS8_IhEEEEvEC2IRddLi0EEEOT_                                                                                                                                                                                                                                                  
a12188f1  _ZN8nlohmann16json_abi_v3_11_210basic_jsonINSt3__13mapENS2_6vectorENS2_12basic_stringIcNS2_11char_traitsIcEENS2_9allocatorIcEEEEbxydS8_NS0_14adl_serializerENS4_IhNS8_IhEEEEvEC2IRxxLi0EEEOT_                                                                                                                                                                                                                                                  
a1218931  _ZN8nlohmann16json_abi_v3_11_210basic_jsonINSt3__13mapENS2_6vectorENS2_12basic_stringIcNS2_11char_traitsIcEENS2_9allocatorIcEEEEbxydS8_NS0_14adl_serializerENS4_IhNS8_IhEEEEvEC2IRyyLi0EEEOT_                                                                                                                                                                                                                                                  
a1219201  _ZN8nlohmann16json_abi_v3_11_210basic_jsonINSt3__13mapENS2_6vectorENS2_12basic_stringIcNS2_11char_traitsIcEENS2_9allocatorIcEEEEbxydS8_NS0_14adl_serializerENS4_IhNS8_IhEEEEvEaSESE_                                                                                                                                                                                                                                                           
a1217ff1  _ZN8nlohmann16json_abi_v3_11_210basic_jsonINSt3__13mapENS2_6vectorENS2_12basic_stringIcNS2_11char_traitsIcEENS2_9allocatorIcEEEEbxydS8_NS0_14adl_serializerENS4_IhNS8_IhEEEEvEixESA_                                                                                                                                                                                                                                                           
a1219801  _ZN8nlohmann16json_abi_v3_11_210basic_jsonINSt3__13mapENS2_6vectorENS2_12basic_stringIcNS2_11char_traitsIcEENS2_9allocatorIcEEEEbxydS8_NS0_14adl_serializerENS4_IhNS8_IhEEEEvEixIKcEERSE_PT_                                                                                                                                                                                                                                                   
a121aa11  _ZN8nlohmann16json_abi_v3_11_214adl_serializerINSt3__112basic_stringIcNS2_11char_traitsIcEENS2_9allocatorIcEEEEvE9from_jsonIRKNS0_10basic_jsonINS2_3mapENS2_6vectorES8_bxydS6_S1_NSD_IhNS6_IhEEEEvEES8_EEDTcmclL_ZNS0_12_GLOBAL__N_19from_jsonEEclsr3stdE7forwardIT_Efp_Efp0_Ecvv_EEOSK_RT0_                                                                                                                                                   
a121a651  _ZN8nlohmann16json_abi_v3_11_26detail10lexer_baseINS0_10basic_jsonINSt3__13mapENS4_6vectorENS4_12basic_stringIcNS4_11char_traitsIcEENS4_9allocatorIcEEEEbxydSA_NS0_14adl_serializerENS6_IhNSA_IhEEEEvEEE15token_type_nameENSH_10token_typeE                                                                                                                                                                                                    
a1216041  _ZN8nlohmann16json_abi_v3_11_26detail10serializerINS0_10basic_jsonINSt3__13mapENS4_6vectorENS4_12basic_stringIcNS4_11char_traitsIcEENS4_9allocatorIcEEEEbxydSA_NS0_14adl_serializerENS6_IhNSA_IhEEEEvEEE10dump_floatEd                                                                                                                                                                                                                         
a1205e61  _ZN8nlohmann16json_abi_v3_11_26detail10serializerINS0_10basic_jsonINSt3__13mapENS4_6vectorENS4_12basic_stringIcNS4_11char_traitsIcEENS4_9allocatorIcEEEEbxydSA_NS0_14adl_serializerENS6_IhNSA_IhEEEEvEEE12dump_escapedERKSC_b                                                                                                                                                                                                                  
a12147f1  _ZN8nlohmann16json_abi_v3_11_26detail10serializerINS0_10basic_jsonINSt3__13mapENS4_6vectorENS4_12basic_stringIcNS4_11char_traitsIcEENS4_9allocatorIcEEEEbxydSA_NS0_14adl_serializerENS6_IhNSA_IhEEEEvEEE12dump_integerIhLi0EEEvT_                                                                                                                                                                                                              
a1207d61  _ZN8nlohmann16json_abi_v3_11_26detail10serializerINS0_10basic_jsonINSt3__13mapENS4_6vectorENS4_12basic_stringIcNS4_11char_traitsIcEENS4_9allocatorIcEEEEbxydSA_NS0_14adl_serializerENS6_IhNSA_IhEEEEvEEE12dump_integerIxLi0EEEvT_                                                                                                                                                                                                              
a120c221  _ZN8nlohmann16json_abi_v3_11_26detail10serializerINS0_10basic_jsonINSt3__13mapENS4_6vectorENS4_12basic_stringIcNS4_11char_traitsIcEENS4_9allocatorIcEEEEbxydSA_NS0_14adl_serializerENS6_IhNSA_IhEEEEvEEE12dump_integerIyLi0EEEvT_                                                                                                                                                                                                              
a1200ff1  _ZN8nlohmann16json_abi_v3_11_26detail10serializerINS0_10basic_jsonINSt3__13mapENS4_6vectorENS4_12basic_stringIcNS4_11char_traitsIcEENS4_9allocatorIcEEEEbxydSA_NS0_14adl_serializerENS6_IhNSA_IhEEEEvEEE4dumpERKSG_bbjj                                                                                                                                                                                                                        
a1216df1  _ZN8nlohmann16json_abi_v3_11_26detail10serializerINS0_10basic_jsonINSt3__13mapENS4_6vectorENS4_12basic_stringIcNS4_11char_traitsIcEENS4_9allocatorIcEEEEbxydSA_NS0_14adl_serializerENS6_IhNSA_IhEEEEvEEE6decodeERhRjh                                                                                                                                                                                                                          
a1214171  _ZN8nlohmann16json_abi_v3_11_26detail10serializerINS0_10basic_jsonINSt3__13mapENS4_6vectorENS4_12basic_stringIcNS4_11char_traitsIcEENS4_9allocatorIcEEEEbxydSA_NS0_14adl_serializerENS6_IhNSA_IhEEEEvEEEC2ENS4_10shared_ptrINS1_23output_adapter_protocolIcEEEEcNS1_15error_handler_tE                                                                                                                                                         
a121a5d1  _ZN8nlohmann16json_abi_v3_11_26detail10serializerINS0_10basic_jsonINSt3__13mapENS4_6vectorENS4_12basic_stringIcNS4_11char_traitsIcEENS4_9allocatorIcEEEEbxydSA_NS0_14adl_serializerENS6_IhNSA_IhEEEEvEEED2Ev                                                                                                                                                                                                                                   
a1216701  _ZN8nlohmann16json_abi_v3_11_26detail11parse_error15position_stringERKNS1_10position_tE                                                                                                                                                                                                                                                                                                                                                        
a120faf1  _ZN8nlohmann16json_abi_v3_11_26detail11parse_error6createIDnLi0EEES2_iRKNS1_10position_tERKNSt3__112basic_stringIcNS7_11char_traitsIcEENS7_9allocatorIcEEEET_                                                                                                                                                                                                                                                                                  
a1219d41  _ZN8nlohmann16json_abi_v3_11_26detail11parse_errorD0Ev                                                                                                                                                                                                                                                                                                                                                                                         
a120dbe1  _ZN8nlohmann16json_abi_v3_11_26detail12out_of_range6createIDnLi0EEES2_iRKNSt3__112basic_stringIcNS4_11char_traitsIcEENS4_9allocatorIcEEEET_                                                                                                                                                                                                                                                                                                    
a1219d71  _ZN8nlohmann16json_abi_v3_11_26detail12out_of_rangeD0Ev                                                                                                                                                                                                                                                                                                                                                                                        
a1224593  _ZN8nlohmann16json_abi_v3_11_26detail12static_constINS1_12from_json_fnEE5valueE                                                                                                                                                                                                                                                                                                                                                                
a1217141  _ZN8nlohmann16json_abi_v3_11_26detail19json_sax_dom_parserINS0_10basic_jsonINSt3__13mapENS4_6vectorENS4_12basic_stringIcNS4_11char_traitsIcEENS4_9allocatorIcEEEEbxydSA_NS0_14adl_serializerENS6_IhNSA_IhEEEEvEEE10end_objectEv                                                                                                                                                                                                                
a1210611  _ZN8nlohmann16json_abi_v3_11_26detail19json_sax_dom_parserINS0_10basic_jsonINSt3__13mapENS4_6vectorENS4_12basic_stringIcNS4_11char_traitsIcEENS4_9allocatorIcEEEEbxydSA_NS0_14adl_serializerENS6_IhNSA_IhEEEEvEEE11start_arrayEj                                                                                                                                                                                                               
a120eac1  _ZN8nlohmann16json_abi_v3_11_26detail19json_sax_dom_parserINS0_10basic_jsonINSt3__13mapENS4_6vectorENS4_12basic_stringIcNS4_11char_traitsIcEENS4_9allocatorIcEEEEbxydSA_NS0_14adl_serializerENS6_IhNSA_IhEEEEvEEE12handle_valueIDnEEPSG_OT_                                                                                                                                                                                                    
a120f001  _ZN8nlohmann16json_abi_v3_11_26detail19json_sax_dom_parserINS0_10basic_jsonINSt3__13mapENS4_6vectorENS4_12basic_stringIcNS4_11char_traitsIcEENS4_9allocatorIcEEEEbxydSA_NS0_14adl_serializerENS6_IhNSA_IhEEEEvEEE12handle_valueINS1_7value_tEEEPSG_OT_                                                                                                                                                                                         
a120e9b1  _ZN8nlohmann16json_abi_v3_11_26detail19json_sax_dom_parserINS0_10basic_jsonINSt3__13mapENS4_6vectorENS4_12basic_stringIcNS4_11char_traitsIcEENS4_9allocatorIcEEEEbxydSA_NS0_14adl_serializerENS6_IhNSA_IhEEEEvEEE12handle_valueIRSC_EEPSG_OT_                                                                                                                                                                                                  
a120c791  _ZN8nlohmann16json_abi_v3_11_26detail19json_sax_dom_parserINS0_10basic_jsonINSt3__13mapENS4_6vectorENS4_12basic_stringIcNS4_11char_traitsIcEENS4_9allocatorIcEEEEbxydSA_NS0_14adl_serializerENS6_IhNSA_IhEEEEvEEE12handle_valueIRbEEPSG_OT_                                                                                                                                                                                                    
a120c8e1  _ZN8nlohmann16json_abi_v3_11_26detail19json_sax_dom_parserINS0_10basic_jsonINSt3__13mapENS4_6vectorENS4_12basic_stringIcNS4_11char_traitsIcEENS4_9allocatorIcEEEEbxydSA_NS0_14adl_serializerENS6_IhNSA_IhEEEEvEEE12handle_valueIRdEEPSG_OT_                                                                                                                                                                                                    
a120ca31  _ZN8nlohmann16json_abi_v3_11_26detail19json_sax_dom_parserINS0_10basic_jsonINSt3__13mapENS4_6vectorENS4_12basic_stringIcNS4_11char_traitsIcEENS4_9allocatorIcEEEEbxydSA_NS0_14adl_serializerENS6_IhNSA_IhEEEEvEEE12handle_valueIRxEEPSG_OT_                                                                                                                                                                                                    
a120cb81  _ZN8nlohmann16json_abi_v3_11_26detail19json_sax_dom_parserINS0_10basic_jsonINSt3__13mapENS4_6vectorENS4_12basic_stringIcNS4_11char_traitsIcEENS4_9allocatorIcEEEEbxydSA_NS0_14adl_serializerENS6_IhNSA_IhEEEEvEEE12handle_valueIRyEEPSG_OT_                                                                                                                                                                                                    
a12106f1  _ZN8nlohmann16json_abi_v3_11_26detail19json_sax_dom_parserINS0_10basic_jsonINSt3__13mapENS4_6vectorENS4_12basic_stringIcNS4_11char_traitsIcEENS4_9allocatorIcEEEEbxydSA_NS0_14adl_serializerENS6_IhNSA_IhEEEEvEEE12start_objectEj                                                                                                                                                                                                              
a1214901  _ZN8nlohmann16json_abi_v3_11_26detail19json_sax_dom_parserINS0_10basic_jsonINSt3__13mapENS4_6vectorENS4_12basic_stringIcNS4_11char_traitsIcEENS4_9allocatorIcEEEEbxydSA_NS0_14adl_serializerENS6_IhNSA_IhEEEEvEEE3keyERSC_                                                                                                                                                                                                                     
a12171a1  _ZN8nlohmann16json_abi_v3_11_26detail19json_sax_dom_parserINS0_10basic_jsonINSt3__13mapENS4_6vectorENS4_12basic_stringIcNS4_11char_traitsIcEENS4_9allocatorIcEEEEbxydSA_NS0_14adl_serializerENS6_IhNSA_IhEEEEvEEE9end_arrayEv                                                                                                                                                                                                                  
a1219ad1  _ZN8nlohmann16json_abi_v3_11_26detail20external_constructorILNS1_7value_tE3EE9constructINS0_10basic_jsonINSt3__13mapENS7_6vectorENS7_12basic_stringIcNS7_11char_traitsIcEENS7_9allocatorIcEEEEbxydSD_NS0_14adl_serializerENS9_IhNSD_IhEEEEvEEA10_cLi0EEEvRT_RKT0_                                                                                                                                                                              
a1219b01  _ZN8nlohmann16json_abi_v3_11_26detail20external_constructorILNS1_7value_tE3EE9constructINS0_10basic_jsonINSt3__13mapENS7_6vectorENS7_12basic_stringIcNS7_11char_traitsIcEENS7_9allocatorIcEEEEbxydSD_NS0_14adl_serializerENS9_IhNSD_IhEEEEvEEA16_cLi0EEEvRT_RKT0_                                                                                                                                                                              
a1219b31  _ZN8nlohmann16json_abi_v3_11_26detail20external_constructorILNS1_7value_tE3EE9constructINS0_10basic_jsonINSt3__13mapENS7_6vectorENS7_12basic_stringIcNS7_11char_traitsIcEENS7_9allocatorIcEEEEbxydSD_NS0_14adl_serializerENS9_IhNSD_IhEEEEvEEA22_cLi0EEEvRT_RKT0_                                                                                                                                                                              
a1219b61  _ZN8nlohmann16json_abi_v3_11_26detail20external_constructorILNS1_7value_tE3EE9constructINS0_10basic_jsonINSt3__13mapENS7_6vectorENS7_12basic_stringIcNS7_11char_traitsIcEENS7_9allocatorIcEEEEbxydSD_NS0_14adl_serializerENS9_IhNSD_IhEEEEvEEA3_cLi0EEEvRT_RKT0_                                                                                                                                                                               
a1219b91  _ZN8nlohmann16json_abi_v3_11_26detail20external_constructorILNS1_7value_tE3EE9constructINS0_10basic_jsonINSt3__13mapENS7_6vectorENS7_12basic_stringIcNS7_11char_traitsIcEENS7_9allocatorIcEEEEbxydSD_NS0_14adl_serializerENS9_IhNSD_IhEEEEvEEA5_cLi0EEEvRT_RKT0_                                                                                                                                                                               
a1219bc1  _ZN8nlohmann16json_abi_v3_11_26detail20external_constructorILNS1_7value_tE3EE9constructINS0_10basic_jsonINSt3__13mapENS7_6vectorENS7_12basic_stringIcNS7_11char_traitsIcEENS7_9allocatorIcEEEEbxydSD_NS0_14adl_serializerENS9_IhNSD_IhEEEEvEEA7_cLi0EEEvRT_RKT0_                                                                                                                                                                               
a1219bf1  _ZN8nlohmann16json_abi_v3_11_26detail20external_constructorILNS1_7value_tE3EE9constructINS0_10basic_jsonINSt3__13mapENS7_6vectorENS7_12basic_stringIcNS7_11char_traitsIcEENS7_9allocatorIcEEEEbxydSD_NS0_14adl_serializerENS9_IhNSD_IhEEEEvEEA9_cLi0EEEvRT_RKT0_                                                                                                                                                                               
a1219c21  _ZN8nlohmann16json_abi_v3_11_26detail20external_constructorILNS1_7value_tE3EE9constructINS0_10basic_jsonINSt3__13mapENS7_6vectorENS7_12basic_stringIcNS7_11char_traitsIcEENS7_9allocatorIcEEEEbxydSD_NS0_14adl_serializerENS9_IhNSD_IhEEEEvEEEEvRT_RKNSK_8string_tE                                                                                                                                                                            
a121ad51  _ZN8nlohmann16json_abi_v3_11_26detail21output_string_adapterIcNSt3__112basic_stringIcNS3_11char_traitsIcEENS3_9allocatorIcEEEEE15write_characterEc                                                                                                                                                                                                                                                                                             
a121ad61  _ZN8nlohmann16json_abi_v3_11_26detail21output_string_adapterIcNSt3__112basic_stringIcNS3_11char_traitsIcEENS3_9allocatorIcEEEEE16write_charactersEPKcj                                                                                                                                                                                                                                                                                         
a121af21  _ZN8nlohmann16json_abi_v3_11_26detail21output_string_adapterIcNSt3__112basic_stringIcNS3_11char_traitsIcEENS3_9allocatorIcEEEEED0Ev                                                                                                                                                                                                                                                                                                            
a121b0d1  _ZN8nlohmann16json_abi_v3_11_26detail23output_adapter_protocolIcED2Ev                                                                                                                                                                                                                                                                                                                                                                          
a120b981  _ZN8nlohmann16json_abi_v3_11_26detail28json_sax_dom_callback_parserINS0_10basic_jsonINSt3__13mapENS4_6vectorENS4_12basic_stringIcNS4_11char_traitsIcEENS4_9allocatorIcEEEEbxydSA_NS0_14adl_serializerENS6_IhNSA_IhEEEEvEEE10end_objectEv                                                                                                                                                                                                       
a120f101  _ZN8nlohmann16json_abi_v3_11_26detail28json_sax_dom_callback_parserINS0_10basic_jsonINSt3__13mapENS4_6vectorENS4_12basic_stringIcNS4_11char_traitsIcEENS4_9allocatorIcEEEEbxydSA_NS0_14adl_serializerENS6_IhNSA_IhEEEEvEEE11start_arrayEj                                                                                                                                                                                                      
a1208371  _ZN8nlohmann16json_abi_v3_11_26detail28json_sax_dom_callback_parserINS0_10basic_jsonINSt3__13mapENS4_6vectorENS4_12basic_stringIcNS4_11char_traitsIcEENS4_9allocatorIcEEEEbxydSA_NS0_14adl_serializerENS6_IhNSA_IhEEEEvEEE12handle_valueIDnEENS4_4pairIbPSG_EEOT_b                                                                                                                                                                             
a1208571  _ZN8nlohmann16json_abi_v3_11_26detail28json_sax_dom_callback_parserINS0_10basic_jsonINSt3__13mapENS4_6vectorENS4_12basic_stringIcNS4_11char_traitsIcEENS4_9allocatorIcEEEEbxydSA_NS0_14adl_serializerENS6_IhNSA_IhEEEEvEEE12handle_valueINS1_7value_tEEENS4_4pairIbPSG_EEOT_b                                                                                                                                                                  
a1208171  _ZN8nlohmann16json_abi_v3_11_26detail28json_sax_dom_callback_parserINS0_10basic_jsonINSt3__13mapENS4_6vectorENS4_12basic_stringIcNS4_11char_traitsIcEENS4_9allocatorIcEEEEbxydSA_NS0_14adl_serializerENS6_IhNSA_IhEEEEvEEE12handle_valueIRSC_EENS4_4pairIbPSG_EEOT_b                                                                                                                                                                           
a1208b61  _ZN8nlohmann16json_abi_v3_11_26detail28json_sax_dom_callback_parserINS0_10basic_jsonINSt3__13mapENS4_6vectorENS4_12basic_stringIcNS4_11char_traitsIcEENS4_9allocatorIcEEEEbxydSA_NS0_14adl_serializerENS6_IhNSA_IhEEEEvEEE12handle_valueIRbEENS4_4pairIbPSG_EEOT_b                                                                                                                                                                             
a1208d51  _ZN8nlohmann16json_abi_v3_11_26detail28json_sax_dom_callback_parserINS0_10basic_jsonINSt3__13mapENS4_6vectorENS4_12basic_stringIcNS4_11char_traitsIcEENS4_9allocatorIcEEEEbxydSA_NS0_14adl_serializerENS6_IhNSA_IhEEEEvEEE12handle_valueIRdEENS4_4pairIbPSG_EEOT_b                                                                                                                                                                             
a1208f41  _ZN8nlohmann16json_abi_v3_11_26detail28json_sax_dom_callback_parserINS0_10basic_jsonINSt3__13mapENS4_6vectorENS4_12basic_stringIcNS4_11char_traitsIcEENS4_9allocatorIcEEEEbxydSA_NS0_14adl_serializerENS6_IhNSA_IhEEEEvEEE12handle_valueIRxEENS4_4pairIbPSG_EEOT_b                                                                                                                                                                             
a1209131  _ZN8nlohmann16json_abi_v3_11_26detail28json_sax_dom_callback_parserINS0_10basic_jsonINSt3__13mapENS4_6vectorENS4_12basic_stringIcNS4_11char_traitsIcEENS4_9allocatorIcEEEEbxydSA_NS0_14adl_serializerENS6_IhNSA_IhEEEEvEEE12handle_valueIRyEENS4_4pairIbPSG_EEOT_b                                                                                                                                                                             
a120f201  _ZN8nlohmann16json_abi_v3_11_26detail28json_sax_dom_callback_parserINS0_10basic_jsonINSt3__13mapENS4_6vectorENS4_12basic_stringIcNS4_11char_traitsIcEENS4_9allocatorIcEEEEbxydSA_NS0_14adl_serializerENS6_IhNSA_IhEEEEvEEE12start_objectEj                                                                                                                                                                                                     
a1211311  _ZN8nlohmann16json_abi_v3_11_26detail28json_sax_dom_callback_parserINS0_10basic_jsonINSt3__13mapENS4_6vectorENS4_12basic_stringIcNS4_11char_traitsIcEENS4_9allocatorIcEEEEbxydSA_NS0_14adl_serializerENS6_IhNSA_IhEEEEvEEE3keyERSC_                                                                                                                                                                                                            
a1210fd1  _ZN8nlohmann16json_abi_v3_11_26detail28json_sax_dom_callback_parserINS0_10basic_jsonINSt3__13mapENS4_6vectorENS4_12basic_stringIcNS4_11char_traitsIcEENS4_9allocatorIcEEEEbxydSA_NS0_14adl_serializerENS6_IhNSA_IhEEEEvEEE9end_arrayEv                                                                                                                                                                                                         
a1216e51  _ZN8nlohmann16json_abi_v3_11_26detail28json_sax_dom_callback_parserINS0_10basic_jsonINSt3__13mapENS4_6vectorENS4_12basic_stringIcNS4_11char_traitsIcEENS4_9allocatorIcEEEEbxydSA_NS0_14adl_serializerENS6_IhNSA_IhEEEEvEEEC2ERSG_NS4_8functionIFbiNS1_13parse_event_tESI_EEEb                                                                                                                                                                  
a12176f1  _ZN8nlohmann16json_abi_v3_11_26detail28json_sax_dom_callback_parserINS0_10basic_jsonINSt3__13mapENS4_6vectorENS4_12basic_stringIcNS4_11char_traitsIcEENS4_9allocatorIcEEEEbxydSA_NS0_14adl_serializerENS6_IhNSA_IhEEEEvEEED2Ev                                                                                                                                                                                                                 
a1205621  _ZN8nlohmann16json_abi_v3_11_26detail5lexerINS0_10basic_jsonINSt3__13mapENS4_6vectorENS4_12basic_stringIcNS4_11char_traitsIcEENS4_9allocatorIcEEEEbxydSA_NS0_14adl_serializerENS6_IhNSA_IhEEEEvEENS1_22iterator_input_adapterIPcEEE11scan_numberEv                                                                                                                                                                                             
a12017c1  _ZN8nlohmann16json_abi_v3_11_26detail5lexerINS0_10basic_jsonINSt3__13mapENS4_6vectorENS4_12basic_stringIcNS4_11char_traitsIcEENS4_9allocatorIcEEEEbxydSA_NS0_14adl_serializerENS6_IhNSA_IhEEEEvEENS1_22iterator_input_adapterIPcEEE11scan_stringEv                                                                                                                                                                                             
a1215661  _ZN8nlohmann16json_abi_v3_11_26detail5lexerINS0_10basic_jsonINSt3__13mapENS4_6vectorENS4_12basic_stringIcNS4_11char_traitsIcEENS4_9allocatorIcEEEEbxydSA_NS0_14adl_serializerENS6_IhNSA_IhEEEEvEENS1_22iterator_input_adapterIPcEEE12scan_commentEv                                                                                                                                                                                            
a12161c1  _ZN8nlohmann16json_abi_v3_11_26detail5lexerINS0_10basic_jsonINSt3__13mapENS4_6vectorENS4_12basic_stringIcNS4_11char_traitsIcEENS4_9allocatorIcEEEEbxydSA_NS0_14adl_serializerENS6_IhNSA_IhEEEEvEENS1_22iterator_input_adapterIPcEEE12scan_literalEPKcjNS1_10lexer_baseISG_E10token_typeE                                                                                                                                                       
a1212bc1  _ZN8nlohmann16json_abi_v3_11_26detail5lexerINS0_10basic_jsonINSt3__13mapENS4_6vectorENS4_12basic_stringIcNS4_11char_traitsIcEENS4_9allocatorIcEEEEbxydSA_NS0_14adl_serializerENS6_IhNSA_IhEEEEvEENS1_22iterator_input_adapterIPcEEE13get_codepointEv                                                                                                                                                                                           
a1219651  _ZN8nlohmann16json_abi_v3_11_26detail5lexerINS0_10basic_jsonINSt3__13mapENS4_6vectorENS4_12basic_stringIcNS4_11char_traitsIcEENS4_9allocatorIcEEEEbxydSA_NS0_14adl_serializerENS6_IhNSA_IhEEEEvEENS1_22iterator_input_adapterIPcEEE17get_decimal_pointEv                                                                                                                                                                                       
a1214e01  _ZN8nlohmann16json_abi_v3_11_26detail5lexerINS0_10basic_jsonINSt3__13mapENS4_6vectorENS4_12basic_stringIcNS4_11char_traitsIcEENS4_9allocatorIcEEEEbxydSA_NS0_14adl_serializerENS6_IhNSA_IhEEEEvEENS1_22iterator_input_adapterIPcEEE18next_byte_in_rangeESt16initializer_listIiE                                                                                                                                                                
a12113e1  _ZN8nlohmann16json_abi_v3_11_26detail5lexerINS0_10basic_jsonINSt3__13mapENS4_6vectorENS4_12basic_stringIcNS4_11char_traitsIcEENS4_9allocatorIcEEEEbxydSA_NS0_14adl_serializerENS6_IhNSA_IhEEEEvEENS1_22iterator_input_adapterIPcEEE3getEv                                                                                                                                                                                                      
a120c641  _ZN8nlohmann16json_abi_v3_11_26detail5lexerINS0_10basic_jsonINSt3__13mapENS4_6vectorENS4_12basic_stringIcNS4_11char_traitsIcEENS4_9allocatorIcEEEEbxydSA_NS0_14adl_serializerENS6_IhNSA_IhEEEEvEENS1_22iterator_input_adapterIPcEEE4scanEv                                                                                                                                                                                                     
a12156d1  _ZN8nlohmann16json_abi_v3_11_26detail5lexerINS0_10basic_jsonINSt3__13mapENS4_6vectorENS4_12basic_stringIcNS4_11char_traitsIcEENS4_9allocatorIcEEEEbxydSA_NS0_14adl_serializerENS6_IhNSA_IhEEEEvEENS1_22iterator_input_adapterIPcEEE5resetEv                                                                                                                                                                                                    
a12174c1  _ZN8nlohmann16json_abi_v3_11_26detail5lexerINS0_10basic_jsonINSt3__13mapENS4_6vectorENS4_12basic_stringIcNS4_11char_traitsIcEENS4_9allocatorIcEEEEbxydSA_NS0_14adl_serializerENS6_IhNSA_IhEEEEvEENS1_22iterator_input_adapterIPcEEE5ungetEv                                                                                                                                                                                                    
a1219071  _ZN8nlohmann16json_abi_v3_11_26detail5lexerINS0_10basic_jsonINSt3__13mapENS4_6vectorENS4_12basic_stringIcNS4_11char_traitsIcEENS4_9allocatorIcEEEEbxydSA_NS0_14adl_serializerENS6_IhNSA_IhEEEEvEENS1_22iterator_input_adapterIPcEEE8skip_bomEv                                                                                                                                                                                                 
a121a431  _ZN8nlohmann16json_abi_v3_11_26detail5lexerINS0_10basic_jsonINSt3__13mapENS4_6vectorENS4_12basic_stringIcNS4_11char_traitsIcEENS4_9allocatorIcEEEEbxydSA_NS0_14adl_serializerENS6_IhNSA_IhEEEEvEENS1_22iterator_input_adapterIPcEEED2Ev                                                                                                                                                                                                        
a1212c61  _ZN8nlohmann16json_abi_v3_11_26detail6concatINSt3__112basic_stringIcNS3_11char_traitsIcEENS3_9allocatorIcEEEEJRA10_KcS9_SC_S9_EEET_DpOT0_                                                                                                                                                                                                                                                                                                      
a1211e51  _ZN8nlohmann16json_abi_v3_11_26detail6concatINSt3__112basic_stringIcNS3_11char_traitsIcEENS3_9allocatorIcEEEEJRA17_KcRKS9_cS9_RA3_SA_EEET_DpOT0_                                                                                                                                                                                                                                                                                               
a1216761  _ZN8nlohmann16json_abi_v3_11_26detail6concatINSt3__112basic_stringIcNS3_11char_traitsIcEENS3_9allocatorIcEEEEJRA26_KcS9_cEEET_DpOT0_                                                                                                                                                                                                                                                                                                           
a120f501  _ZN8nlohmann16json_abi_v3_11_26detail6concatINSt3__112basic_stringIcNS3_11char_traitsIcEENS3_9allocatorIcEEEEJS9_RA12_KcS9_RA3_SA_S9_RKS9_EEET_DpOT0_                                                                                                                                                                                                                                                                                          
a1207741  _ZN8nlohmann16json_abi_v3_11_26detail6parserINS0_10basic_jsonINSt3__13mapENS4_6vectorENS4_12basic_stringIcNS4_11char_traitsIcEENS4_9allocatorIcEEEEbxydSA_NS0_14adl_serializerENS6_IhNSA_IhEEEEvEENS1_22iterator_input_adapterIPcEEE17exception_messageENS1_10lexer_baseISG_E10token_typeERKSC_                                                                                                                                                
a1203621  _ZN8nlohmann16json_abi_v3_11_26detail6parserINS0_10basic_jsonINSt3__13mapENS4_6vectorENS4_12basic_stringIcNS4_11char_traitsIcEENS4_9allocatorIcEEEEbxydSA_NS0_14adl_serializerENS6_IhNSA_IhEEEEvEENS1_22iterator_input_adapterIPcEEE18sax_parse_internalINS1_19json_sax_dom_parserISG_EEEEbPT_                                                                                                                                                 
a12031a1  _ZN8nlohmann16json_abi_v3_11_26detail6parserINS0_10basic_jsonINSt3__13mapENS4_6vectorENS4_12basic_stringIcNS4_11char_traitsIcEENS4_9allocatorIcEEEEbxydSA_NS0_14adl_serializerENS6_IhNSA_IhEEEEvEENS1_22iterator_input_adapterIPcEEE18sax_parse_internalINS1_28json_sax_dom_callback_parserISG_EEEEbPT_                                                                                                                                        
a1205bb1  _ZN8nlohmann16json_abi_v3_11_26detail6parserINS0_10basic_jsonINSt3__13mapENS4_6vectorENS4_12basic_stringIcNS4_11char_traitsIcEENS4_9allocatorIcEEEEbxydSA_NS0_14adl_serializerENS6_IhNSA_IhEEEEvEENS1_22iterator_input_adapterIPcEEE5parseEbRSG_                                                                                                                                                                                               
a1215971  _ZN8nlohmann16json_abi_v3_11_26detail6parserINS0_10basic_jsonINSt3__13mapENS4_6vectorENS4_12basic_stringIcNS4_11char_traitsIcEENS4_9allocatorIcEEEEbxydSA_NS0_14adl_serializerENS6_IhNSA_IhEEEEvEENS1_22iterator_input_adapterIPcEEEC2EOSJ_NS4_8functionIFbiNS1_13parse_event_tERSG_EEEbb                                                                                                                                                      
a120d471  _ZN8nlohmann16json_abi_v3_11_26detail8to_charsIdEEPcS3_PKcT_                                                                                                                                                                                                                                                                                                                                                                                   
a120bde1  _ZN8nlohmann16json_abi_v3_11_26detail9dtoa_impl12grisu2_roundEPciyyyy                                                                                                                                                                                                                                                                                                                                                                          
a12096f1  _ZN8nlohmann16json_abi_v3_11_26detail9dtoa_impl13format_bufferEPciiii                                                                                                                                                                                                                                                                                                                                                                          
a1203a81  _ZN8nlohmann16json_abi_v3_11_26detail9dtoa_impl16grisu2_digit_genEPcRiS4_NS2_5diyfpES5_S5_                                                                                                                                                                                                                                                                                                                                                     
a120e301  _ZN8nlohmann16json_abi_v3_11_26detail9dtoa_impl18compute_boundariesIdEENS2_10boundariesET_                                                                                                                                                                                                                                                                                                                                                     
a120e661  _ZN8nlohmann16json_abi_v3_11_26detail9dtoa_impl36get_cached_power_for_binary_exponentEi                                                                                                                                                                                                                                                                                                                                                        
a1213bd1  _ZN8nlohmann16json_abi_v3_11_26detail9dtoa_impl5diyfp12normalize_toERKS3_i                                                                                                                                                                                                                                                                                                                                                                     
a1215741  _ZN8nlohmann16json_abi_v3_11_26detail9dtoa_impl5diyfp3subERKS3_S5_                                                                                                                                                                                                                                                                                                                                                                             
a1216eb1  _ZN8nlohmann16json_abi_v3_11_26detail9dtoa_impl5diyfp9normalizeES3_                                                                                                                                                                                                                                                                                                                                                                            
a120d331  _ZN8nlohmann16json_abi_v3_11_26detail9dtoa_impl6grisu2EPcRiS4_NS2_5diyfpES5_S5_                                                                                                                                                                                                                                                                                                                                                                
a12114b1  _ZN8nlohmann16json_abi_v3_11_26detail9dtoa_impl6grisu2IdEEvPcRiS5_T_                                                                                                                                                                                                                                                                                                                                                                           
a1217a61  _ZN8nlohmann16json_abi_v3_11_26detail9exception4nameERKNSt3__112basic_stringIcNS3_11char_traitsIcEENS3_9allocatorIcEEEEi                                                                                                                                                                                                                                                                                                                       
a1219da1  _ZN8nlohmann16json_abi_v3_11_26detail9exceptionD0Ev                                                                                                                                                                                                                                                                                                                                                                                            
a121a001  _ZN8nlohmann16json_abi_v3_11_26detail9exceptionD2Ev                                                                                                                                                                                                                                                                                                                                                                                            
a1218261  _ZN8nlohmann16json_abi_v3_11_26detail9iter_implIKNS0_10basic_jsonINSt3__13mapENS4_6vectorENS4_12basic_stringIcNS4_11char_traitsIcEENS4_9allocatorIcEEEEbxydSA_NS0_14adl_serializerENS6_IhNSA_IhEEEEvEEE7set_endEv                                                                                                                                                                                                                              
a1217b51  _ZN8nlohmann16json_abi_v3_11_26detail9iter_implIKNS0_10basic_jsonINSt3__13mapENS4_6vectorENS4_12basic_stringIcNS4_11char_traitsIcEENS4_9allocatorIcEEEEbxydSA_NS0_14adl_serializerENS6_IhNSA_IhEEEEvEEE9set_beginEv                                                                                                                                                                                                                            
a1217dc1  _ZN8nlohmann16json_abi_v3_11_26detail9iter_implIKNS0_10basic_jsonINSt3__13mapENS4_6vectorENS4_12basic_stringIcNS4_11char_traitsIcEENS4_9allocatorIcEEEEbxydSA_NS0_14adl_serializerENS6_IhNSA_IhEEEEvEEEppEv                                                                                                                                                                                                                                    
a12182b1  _ZN8nlohmann16json_abi_v3_11_26detail9iter_implINS0_10basic_jsonINSt3__13mapENS4_6vectorENS4_12basic_stringIcNS4_11char_traitsIcEENS4_9allocatorIcEEEEbxydSA_NS0_14adl_serializerENS6_IhNSA_IhEEEEvEEE7set_endEv                                                                                                                                                                                                                               
a1217ba1  _ZN8nlohmann16json_abi_v3_11_26detail9iter_implINS0_10basic_jsonINSt3__13mapENS4_6vectorENS4_12basic_stringIcNS4_11char_traitsIcEENS4_9allocatorIcEEEEbxydSA_NS0_14adl_serializerENS6_IhNSA_IhEEEEvEEE9set_beginEv                                                                                                                                                                                                                             
a1217741  _ZN8nlohmann16json_abi_v3_11_26detail9iter_implINS0_10basic_jsonINSt3__13mapENS4_6vectorENS4_12basic_stringIcNS4_11char_traitsIcEENS4_9allocatorIcEEEEbxydSA_NS0_14adl_serializerENS6_IhNSA_IhEEEEvEEEC2EPSG_                                                                                                                                                                                                                                  
a1217e11  _ZN8nlohmann16json_abi_v3_11_26detail9iter_implINS0_10basic_jsonINSt3__13mapENS4_6vectorENS4_12basic_stringIcNS4_11char_traitsIcEENS4_9allocatorIcEEEEbxydSA_NS0_14adl_serializerENS6_IhNSA_IhEEEEvEEEppEv                                                                                                                                                                                                                                     
a1216221  _ZN9RealTopic11unsubscribeE16ConsumerMetadata                                                                                                                                                                                                                                                                                                                                                                                                  
a120fbe1  _ZN9RealTopic4pollE16ConsumerMetadata                                                                                                                                                                                                                                                                                                                                                                                                          
a121aab1  _ZN9RealTopic4readE16ConsumerMetadata                                                                                                                                                                                                                                                                                                                                                                                                          
a1215071  _ZN9RealTopic7publishE16ProducerMetadata6Record                                                                                                                                                                                                                                                                                                                                                                                                
a12159e1  _ZN9RealTopic9subscribeE16ConsumerMetadata                                                                                                                                                                                                                                                                                                                                                                                                     
a1217511  _ZN9RealTopicC1E13TopicMetadataRK6Logger                                                                                                                                                                                                                                                                                                                                                                                                       
a1217511  _ZN9RealTopicC2E13TopicMetadataRK6Logger                                                                                                                                                                                                                                                                                                                                                                                                       
a1219831  _ZN9RealTopicD0Ev                                                                                                                                                                                                                                                                                                                                                                                                                              
a1219dd1  _ZN9RealTopicD1Ev                                                                                                                                                                                                                                                                                                                                                                                                                              
a1219dd1  _ZN9RealTopicD2Ev                                                                                                                                                                                                                                                                                                                                                                                                                              
a121af30  _ZNK10__cxxabiv116__shim_type_info5noop1Ev                                                                                                                                                                                                                                                                                                                                                                                                     
a121af40  _ZNK10__cxxabiv116__shim_type_info5noop2Ev                                                                                                                                                                                                                                                                                                                                                                                                     
a120e540  _ZNK10__cxxabiv117__class_type_info16search_above_dstEPNS_19__dynamic_cast_infoEPKvS4_ib                                                                                                                                                                                                                                                                                                                                                       
a120c4e0  _ZNK10__cxxabiv117__class_type_info16search_below_dstEPNS_19__dynamic_cast_infoEPKvib                                                                                                                                                                                                                                                                                                                                                          
a12138c0  _ZNK10__cxxabiv117__class_type_info27has_unambiguous_public_baseEPNS_19__dynamic_cast_infoEPvi                                                                                                                                                                                                                                                                                                                                                 
a1208970  _ZNK10__cxxabiv117__class_type_info9can_catchEPKNS_16__shim_type_infoERPv                                                                                                                                                                                                                                                                                                                                                                      
a120de40  _ZNK10__cxxabiv120__si_class_type_info16search_above_dstEPNS_19__dynamic_cast_infoEPKvS4_ib                                                                                                                                                                                                                                                                                                                                                    
a1207530  _ZNK10__cxxabiv120__si_class_type_info16search_below_dstEPNS_19__dynamic_cast_infoEPKvib                                                                                                                                                                                                                                                                                                                                                       
a1212730  _ZNK10__cxxabiv120__si_class_type_info27has_unambiguous_public_baseEPNS_19__dynamic_cast_infoEPvi                                                                                                                                                                                                                                                                                                                                              
a121a1a1  _ZNK11UDPEndpoint24printEndpointInformationERK6Logger                                                                                                                                                                                                                                                                                                                                                                                          
a120a1f1  _ZNK11UDPEndpoint7to_jsonERN8nlohmann16json_abi_v3_11_210basic_jsonINSt3__13mapENS3_6vectorENS3_12basic_stringIcNS3_11char_traitsIcEENS3_9allocatorIcEEEEbxydS9_NS1_14adl_serializerENS5_IhNS9_IhEEEEvEE                                                                                                                                                                                                                                       
a121ac51  _ZNK13SystemManager18getClusterMetadataEv                                                                                                                                                                                                                                                                                                                                                                                                      
a121b0e1  _ZNK13TopicMetadata7getNameEv                                                                                                                                                                                                                                                                                                                                                                                                                  
a121af51  _ZNK14BrokerMetadata11getEndpointEv                                                                                                                                                                                                                                                                                                                                                                                                            
a121ac61  _ZNK14BrokerMetadata17getTopicsMetadataEv                                                                                                                                                                                                                                                                                                                                                                                                      
a121af61  _ZNK14ClientMetadata5getIdEv                                                                                                                                                                                                                                                                                                                                                                                                                   
a121acb1  _ZNK14ProducerRecord16getTopicMetadataEv                                                                                                                                                                                                                                                                                                                                                                                                       
a121ac71  _ZNK14ProducerRecord9getRecordEv                                                                                                                                                                                                                                                                                                                                                                                                               
a12157b1  _ZNK14TI_DebugLogger3logEPKcz                                                                                                                                                                                                                                                                                                                                                                                                                  
a1215821  _ZNK14TI_DebugLogger8logErrorEPKcz                                                                                                                                                                                                                                                                                                                                                                                                             
a121af71  _ZNK16ConsumerMetadata11getEndpointEv                                                                                                                                                                                                                                                                                                                                                                                                          
a121af81  _ZNK16ConsumerMetadata5getIdEv                                                                                                                                                                                                                                                                                                                                                                                                                 
a121ab71  _ZNK16ConsumerMetadataltERKS_                                                                                                                                                                                                                                                                                                                                                                                                                  
a121af91  _ZNK16ProducerMetadata5getIdEv                                                                                                                                                                                                                                                                                                                                                                                                                 
a121afa1  _ZNK17RPMessageEndpoint18getServiceEndpointEv                                                                                                                                                                                                                                                                                                                                                                                                  
a121a1d1  _ZNK17RPMessageEndpoint24printEndpointInformationERK6Logger                                                                                                                                                                                                                                                                                                                                                                                    
a120ac71  _ZNK17RPMessageEndpoint7to_jsonERN8nlohmann16json_abi_v3_11_210basic_jsonINSt3__13mapENS3_6vectorENS3_12basic_stringIcNS3_11char_traitsIcEENS3_9allocatorIcEEEEbxydS9_NS1_14adl_serializerENS5_IhNS9_IhEEEEvEE                                                                                                                                                                                                                                 
a121afb1  _ZNK17RPMessageEndpoint9getCoreIdEv                                                                                                                                                                                                                                                                                                                                                                                                            
a121ac81  _ZNK5Topic16getTopicMetadataEv                                                                                                                                                                                                                                                                                                                                                                                                                 
a121b0f1  _ZNK6Record7getDataEv                                                                                                                                                                                                                                                                                                                                                                                                                          
a1210a31  _ZNK6Record7to_jsonERN8nlohmann16json_abi_v3_11_210basic_jsonINSt3__13mapENS3_6vectorENS3_12basic_stringIcNS3_11char_traitsIcEENS3_9allocatorIcEEEEbxydS9_NS1_14adl_serializerENS5_IhNS9_IhEEEEvEE                                                                                                                                                                                                                                             
a1213aa1  _ZNK8nlohmann16json_abi_v3_11_210basic_jsonINSt3__13mapENS2_6vectorENS2_12basic_stringIcNS2_11char_traitsIcEENS2_9allocatorIcEEEEbxydS8_NS0_14adl_serializerENS4_IhNS8_IhEEEEvE16assert_invariantEb                                                                                                                                                                                                                                            
a121a451  _ZNK8nlohmann16json_abi_v3_11_210basic_jsonINSt3__13mapENS2_6vectorENS2_12basic_stringIcNS2_11char_traitsIcEENS2_9allocatorIcEEEEbxydS8_NS0_14adl_serializerENS4_IhNS8_IhEEEEvE2atIRA16_KcLi0EEERKSE_OT_                                                                                                                                                                                                                                       
a121a471  _ZNK8nlohmann16json_abi_v3_11_210basic_jsonINSt3__13mapENS2_6vectorENS2_12basic_stringIcNS2_11char_traitsIcEENS2_9allocatorIcEEEEbxydS8_NS0_14adl_serializerENS4_IhNS8_IhEEEEvE2atIRA3_KcLi0EEERKSE_OT_                                                                                                                                                                                                                                        
a121a491  _ZNK8nlohmann16json_abi_v3_11_210basic_jsonINSt3__13mapENS2_6vectorENS2_12basic_stringIcNS2_11char_traitsIcEENS2_9allocatorIcEEEEbxydS8_NS0_14adl_serializerENS4_IhNS8_IhEEEEvE2atIRA5_KcLi0EEERKSE_OT_                                                                                                                                                                                                                                        
a121a4b1  _ZNK8nlohmann16json_abi_v3_11_210basic_jsonINSt3__13mapENS2_6vectorENS2_12basic_stringIcNS2_11char_traitsIcEENS2_9allocatorIcEEEEbxydS8_NS0_14adl_serializerENS4_IhNS8_IhEEEEvE2atIRA7_KcLi0EEERKSE_OT_                                                                                                                                                                                                                                        
a121a4d1  _ZNK8nlohmann16json_abi_v3_11_210basic_jsonINSt3__13mapENS2_6vectorENS2_12basic_stringIcNS2_11char_traitsIcEENS2_9allocatorIcEEEEbxydS8_NS0_14adl_serializerENS4_IhNS8_IhEEEEvE2atIRA8_KcLi0EEERKSE_OT_                                                                                                                                                                                                                                        
a121a4f1  _ZNK8nlohmann16json_abi_v3_11_210basic_jsonINSt3__13mapENS2_6vectorENS2_12basic_stringIcNS2_11char_traitsIcEENS2_9allocatorIcEEEEbxydS8_NS0_14adl_serializerENS4_IhNS8_IhEEEEvE2atIRA9_KcLi0EEERKSE_OT_                                                                                                                                                                                                                                        
a1211f01  _ZNK8nlohmann16json_abi_v3_11_210basic_jsonINSt3__13mapENS2_6vectorENS2_12basic_stringIcNS2_11char_traitsIcEENS2_9allocatorIcEEEEbxydS8_NS0_14adl_serializerENS4_IhNS8_IhEEEEvE4dumpEicbNS0_6detail15error_handler_tE                                                                                                                                                                                                                          
a1218af1  _ZNK8nlohmann16json_abi_v3_11_210basic_jsonINSt3__13mapENS2_6vectorENS2_12basic_stringIcNS2_11char_traitsIcEENS2_9allocatorIcEEEEbxydS8_NS0_14adl_serializerENS4_IhNS8_IhEEEEvEixERKSA_                                                                                                                                                                                                                                                        
a1219861  _ZNK8nlohmann16json_abi_v3_11_210basic_jsonINSt3__13mapENS2_6vectorENS2_12basic_stringIcNS2_11char_traitsIcEENS2_9allocatorIcEEEEbxydS8_NS0_14adl_serializerENS4_IhNS8_IhEEEEvEixIKcEERKSE_PT_                                                                                                                                                                                                                                                 
a1219891  _ZNK8nlohmann16json_abi_v3_11_26detail12from_json_fnclINS0_10basic_jsonINSt3__13mapENS5_6vectorENS5_12basic_stringIcNS5_11char_traitsIcEENS5_9allocatorIcEEEEbxydSB_NS0_14adl_serializerENS7_IhNSB_IhEEEEvEERiEEDTcl9from_jsonfp_clsr3stdE7forwardIT0_Efp0_EEERKT_OSJ_                                                                                                                                                                         
a12167c1  _ZNK8nlohmann16json_abi_v3_11_26detail5lexerINS0_10basic_jsonINSt3__13mapENS4_6vectorENS4_12basic_stringIcNS4_11char_traitsIcEENS4_9allocatorIcEEEEbxydSA_NS0_14adl_serializerENS6_IhNSA_IhEEEEvEENS1_22iterator_input_adapterIPcEEE16get_token_stringEv                                                                                                                                                                                       
a1218db1  _ZNK8nlohmann16json_abi_v3_11_26detail8json_refINS0_10basic_jsonINSt3__13mapENS4_6vectorENS4_12basic_stringIcNS4_11char_traitsIcEENS4_9allocatorIcEEEEbxydSA_NS0_14adl_serializerENS6_IhNSA_IhEEEEvEEE15moved_or_copiedEv                                                                                                                                                                                                                      
a121ad71  _ZNK8nlohmann16json_abi_v3_11_26detail9exception4whatEv                                                                                                                                                                                                                                                                                                                                                                                        
a1214201  _ZNK8nlohmann16json_abi_v3_11_26detail9iter_implIKNS0_10basic_jsonINSt3__13mapENS4_6vectorENS4_12basic_stringIcNS4_11char_traitsIcEENS4_9allocatorIcEEEEbxydSA_NS0_14adl_serializerENS6_IhNSA_IhEEEEvEEEdeEv                                                                                                                                                                                                                                   
a1217201  _ZNK8nlohmann16json_abi_v3_11_26detail9iter_implIKNS0_10basic_jsonINSt3__13mapENS4_6vectorENS4_12basic_stringIcNS4_11char_traitsIcEENS4_9allocatorIcEEEEbxydSA_NS0_14adl_serializerENS6_IhNSA_IhEEEEvEEEeqISI_LDn0EEEbRKT_                                                                                                                                                                                                                     
a1214291  _ZNK8nlohmann16json_abi_v3_11_26detail9iter_implINS0_10basic_jsonINSt3__13mapENS4_6vectorENS4_12basic_stringIcNS4_11char_traitsIcEENS4_9allocatorIcEEEEbxydSA_NS0_14adl_serializerENS6_IhNSA_IhEEEEvEEEdeEv                                                                                                                                                                                                                                    
a1217261  _ZNK8nlohmann16json_abi_v3_11_26detail9iter_implINS0_10basic_jsonINSt3__13mapENS4_6vectorENS4_12basic_stringIcNS4_11char_traitsIcEENS4_9allocatorIcEEEEbxydSA_NS0_14adl_serializerENS6_IhNSA_IhEEEEvEEEeqISH_LDn0EEEbRKT_                                                                                                                                                                                                                      
a12144b1  _ZNK8nlohmann16json_abi_v3_11_26detail9iter_implINS0_10basic_jsonINSt3__13mapENS4_6vectorENS4_12basic_stringIcNS4_11char_traitsIcEENS4_9allocatorIcEEEEbxydSA_NS0_14adl_serializerENS6_IhNSA_IhEEEEvEEEptEv                                                                                                                                                                                                                                    
a121a201  _ZNK9RealTopic12getConsumersEv                                                                                                                                                                                                                                                                                                                                                                                                                 
a121acc0  _ZNKSt13runtime_error4whatEv                                                                                                                                                                                                                                                                                                                                                                                                                   
a1213340  _ZNKSt3__112basic_stringIcNS_11char_traitsIcEENS_9allocatorIcEEE7compareEPKc                                                                                                                                                                                                                                                                                                                                                                   
a12123d0  _ZNKSt3__112basic_stringIcNS_11char_traitsIcEENS_9allocatorIcEEE7compareEjjPKcj                                                                                                                                                                                                                                                                                                                                                                
a121acd0  _ZNKSt3__119__shared_weak_count13__get_deleterERKSt9type_info                                                                                                                                                                                                                                                                                                                                                                                  
a1216821  _ZNKSt3__14lessIvEclIRKNS_12basic_stringIcNS_11char_traitsIcEENS_9allocatorIcEEEESA_EEDTltclsr3stdE7forwardIT_Efp_Eclsr3stdE7forwardIT0_Efp0_EEOSB_OSC_                                                                                                                                                                                                                                                                                        
a121a031  _ZNKSt3__18functionIFbiN8nlohmann16json_abi_v3_11_26detail13parse_event_tERNS2_10basic_jsonINS_3mapENS_6vectorENS_12basic_stringIcNS_11char_traitsIcEENS_9allocatorIcEEEEbxydSB_NS2_14adl_serializerENS7_IhNSB_IhEEEEvEEEEclEiS4_SI_                                                                                                                                                                                                           
a1216f10  _ZNSt11range_errorD1Ev                                                                                                                                                                                                                                                                                                                                                                                                                         
a1216f10  _ZNSt11range_errorD2Ev                                                                                                                                                                                                                                                                                                                                                                                                                         
a121aff0  _ZNSt13bad_exceptionD1Ev                                                                                                                                                                                                                                                                                                                                                                                                                       
a121aff0  _ZNSt13bad_exceptionD2Ev                                                                                                                                                                                                                                                                                                                                                                                                                       
a1211fb0  _ZNSt13runtime_errorC1EPKc                                                                                                                                                                                                                                                                                                                                                                                                                     
a1211fb0  _ZNSt13runtime_errorC2EPKc                                                                                                                                                                                                                                                                                                                                                                                                                     
a1216880  _ZNSt13runtime_errorD0Ev                                                                                                                                                                                                                                                                                                                                                                                                                       
a1216f10  _ZNSt13runtime_errorD1Ev                                                                                                                                                                                                                                                                                                                                                                                                                       
a1216f10  _ZNSt13runtime_errorD2Ev                                                                                                                                                                                                                                                                                                                                                                                                                       
a1216f10  _ZNSt14overflow_errorD1Ev                                                                                                                                                                                                                                                                                                                                                                                                                      
a1216f10  _ZNSt14overflow_errorD2Ev                                                                                                                                                                                                                                                                                                                                                                                                                      
a1216f10  _ZNSt15underflow_errorD1Ev                                                                                                                                                                                                                                                                                                                                                                                                                     
a1216f10  _ZNSt15underflow_errorD2Ev                                                                                                                                                                                                                                                                                                                                                                                                                     
a121aff0  _ZNSt20bad_array_new_lengthD1Ev                                                                                                                                                                                                                                                                                                                                                                                                                
a121aff0  _ZNSt20bad_array_new_lengthD2Ev                                                                                                                                                                                                                                                                                                                                                                                                                
a12198c1  _ZNSt3__110__function12__value_funcIFbiN8nlohmann16json_abi_v3_11_26detail13parse_event_tERNS3_10basic_jsonINS_3mapENS_6vectorENS_12basic_stringIcNS_11char_traitsIcEENS_9allocatorIcEEEEbxydSC_NS3_14adl_serializerENS8_IhNSC_IhEEEEvEEEEC2ERKSL_                                                                                                                                                                                             
a121a231  _ZNSt3__110shared_ptrIN8nlohmann16json_abi_v3_11_26detail21output_string_adapterIcNS_12basic_stringIcNS_11char_traitsIcEENS_9allocatorIcEEEEEEED2Ev                                                                                                                                                                                                                                                                                            
a121a261  _ZNSt3__110shared_ptrIN8nlohmann16json_abi_v3_11_26detail23output_adapter_protocolIcEEED2Ev                                                                                                                                                                                                                                                                                                                                                    
a120ebd0  _ZNSt3__112basic_stringIcNS_11char_traitsIcEENS_9allocatorIcEEE5eraseEjj                                                                                                                                                                                                                                                                                                                                                                       
a120afe0  _ZNSt3__112basic_stringIcNS_11char_traitsIcEENS_9allocatorIcEEE6appendEPKc                                                                                                                                                                                                                                                                                                                                                                     
a120b4d0  _ZNSt3__112basic_stringIcNS_11char_traitsIcEENS_9allocatorIcEEE6appendEPKcj                                                                                                                                                                                                                                                                                                                                                                    
a120c380  _ZNSt3__112basic_stringIcNS_11char_traitsIcEENS_9allocatorIcEEE6assignEPKc                                                                                                                                                                                                                                                                                                                                                                     
a120a740  _ZNSt3__112basic_stringIcNS_11char_traitsIcEENS_9allocatorIcEEE6resizeEjc                                                                                                                                                                                                                                                                                                                                                                      
a120bc70  _ZNSt3__112basic_stringIcNS_11char_traitsIcEENS_9allocatorIcEEE7reserveEj                                                                                                                                                                                                                                                                                                                                                                      
a120f900  _ZNSt3__112basic_stringIcNS_11char_traitsIcEENS_9allocatorIcEEE9push_backEc                                                                                                                                                                                                                                                                                                                                                                    
a12133e0  _ZNSt3__112basic_stringIcNS_11char_traitsIcEENS_9allocatorIcEEEC1ERKS5_                                                                                                                                                                                                                                                                                                                                                                        
a1210bd0  _ZNSt3__112basic_stringIcNS_11char_traitsIcEENS_9allocatorIcEEEC1ERKS5_jjRKS4_                                                                                                                                                                                                                                                                                                                                                                 
a12133e0  _ZNSt3__112basic_stringIcNS_11char_traitsIcEENS_9allocatorIcEEEC2ERKS5_                                                                                                                                                                                                                                                                                                                                                                        
a1210bd0  _ZNSt3__112basic_stringIcNS_11char_traitsIcEENS_9allocatorIcEEEC2ERKS5_jjRKS4_                                                                                                                                                                                                                                                                                                                                                                 
a1216c71  _ZNSt3__112basic_stringIcNS_11char_traitsIcEENS_9allocatorIcEEEC2IDnEEPKc                                                                                                                                                                                                                                                                                                                                                                      
a1207950  _ZNSt3__112basic_stringIcNS_11char_traitsIcEENS_9allocatorIcEEEaSERKS5_                                                                                                                                                                                                                                                                                                                                                                        
a1223fdb  _ZNSt3__113__DIGIT_TABLEE                                                                                                                                                                                                                                                                                                                                                                                                                      
a1206611  _ZNSt3__113__tree_removeIPNS_16__tree_node_baseIPvEEEEvT_S5_                                                                                                                                                                                                                                                                                                                                                                                   
a1210531  _ZNSt3__114__copy_alignedINS_6vectorIbNS_9allocatorIbEEEELb0EEENS_14__bit_iteratorIT_Lb0ELi0EEENS5_IS6_XT0_ELi0EEES8_S7_                                                                                                                                                                                                                                                                                                                       
a121afc0  _ZNSt3__114__shared_countD1Ev                                                                                                                                                                                                                                                                                                                                                                                                                  
a121afc0  _ZNSt3__114__shared_countD2Ev                                                                                                                                                                                                                                                                                                                                                                                                                  
