******************************************************************************
            TI ARM Clang Linker Unix v2.1.2                    
******************************************************************************
>> Linked Wed May 17 14:27:32 2023

OUTPUT FILE NAME:   <ipc_rpmsg_echo.release.out>
ENTRY POINT SYMBOL: "_vectors"  address: 00000000


MEMORY CONFIGURATION

         name            origin    length      used     unused   attr    fill
----------------------  --------  ---------  --------  --------  ----  --------
  R5F_VECS              00000000   00000040  00000040  00000000  RWIX
  R5F_TCMA              00000040   00007fc0  00000000  00007fc0  RWIX
  R5F_TCMB0             41010000   00008000  00000000  00008000  RWIX
  FLASH                 60200000   00080000  00000000  00080000  RWIX
  NON_CACHE_MEM         70070000   00008000  00000000  00008000  RWIX
  MSRAM                 70100000   00040000  00015ce0  0002a320  RWIX
  USER_SHM_MEM          701d0000   00000080  00000000  00000080  RWIX
  LOG_SHM_MEM           701d0080   00003f80  00003800  00000780  RWIX
  RTOS_NORTOS_IPC_SHM_M 701d4000   0000c000  000099c0  00002640  RWIX


SEGMENT ALLOCATION MAP

run origin  load origin   length   init length attrs members
----------  ----------- ---------- ----------- ----- -------
00000000    00000000    00000040   00000040    r-x
  00000000    00000000    00000040   00000040    r-x .vectors
70100000    70100000    0000de18   00000000    rw-
  70100000    70100000    00001e18   00000000    rw- .bss
  70101e18    70101e18    00008000   00000000    rw- .sysmem
  70109e18    70109e18    00004000   00000000    rw- .stack
7010de20    7010de20    000068f8   000068f8    r-x
  7010de20    7010de20    00004c80   00004c80    r-x .text
  70112aa0    70112aa0    00000d20   00000d20    r-- .rodata
  701137c0    701137c0    00000790   00000790    r-x .text.hwi
  70113f50    70113f50    00000450   00000450    r-x .text.cache
  701143a0    701143a0    00000240   00000240    r-x .text.mpu
  701145e0    701145e0    00000130   00000130    r-x .text.boot
  70114710    70114710    00000008   00000008    r-x .text:abort
70114718    70114718    000001d0   000001d0    rw-
  70114718    70114718    000001d0   000001d0    rw- .data
701148e8    701148e8    00001400   00000000    r--
  701148e8    701148e8    00000100   00000000    r-- .irqstack
  701149e8    701149e8    00000100   00000000    r-- .fiqstack
  70114ae8    70114ae8    00001000   00000000    r-- .svcstack
  70115ae8    70115ae8    00000100   00000000    r-- .abortstack
  70115be8    70115be8    00000100   00000000    r-- .undefinedstack


SECTION ALLOCATION MAP

 output                                  attributes/
section   page    origin      length       input sections
--------  ----  ----------  ----------   ----------------
.vectors   0    00000000    00000040     
                  00000000    00000040     nortos.am64x.r5f.ti-arm-clang.release.lib : HwiP_armv7r_vectors_nortos_asm.obj (.vectors)

.bss       0    70100000    00001e18     UNINITIALIZED
                  70100000    00001008     (.common:gHwiCtrl)
                  70101008    00000b2c     (.common:gIpcRpmsgCtrl)
                  70101b34    000000c0     ipc_rpmsg_echo.obj (.bss.gRecvMsgObject)
                  70101bf4    000000c0     (.common:gAckReplyMsgObject)
                  70101cb4    000000a8     (.common:gIpcNotifyCtrl)
                  70101d5c    0000007a     nortos.am64x.r5f.ti-arm-clang.release.lib : DebugP_shmLogWriter.obj (.bss.DebugP_shmLogWriterPutChar.lineBuf)
                  70101dd6    00000002     --HOLE--
                  70101dd8    00000038     (.common:gClockCtrl)
                  70101e10    00000004                                               : HwiP_armv7r_vim.obj (.bss.gdummy)
                  70101e14    00000004     --HOLE--

.sysmem    0    70101e18    00008000     UNINITIALIZED
                  70101e18    00000010     libc.a : memory.c.obj (.sysmem)
                  70101e28    00007ff0     --HOLE--

.stack     0    70109e18    00004000     UNINITIALIZED
                  70109e18    00000004     nortos.am64x.r5f.ti-arm-clang.release.lib : boot_armv7r_asm.obj (.stack)
                  70109e1c    00003ffc     --HOLE--

.text      0    7010de20    00004c80     
                  7010de20    00000596     nortos.am64x.r5f.ti-arm-clang.release.lib : printf.obj (.text._vsnprintf)
                  7010e3b6    00000002     --HOLE-- [fill = 0]
                  7010e3b8    000003e4     libc.a : _printfi.c.obj (.text:__TI_printfi_minimal)
                  7010e79c    00000004     libclang_rt.builtins.a : aeabi_memcpy.S.obj (.text)
                  7010e7a0    00000388     nortos.am64x.r5f.ti-arm-clang.release.lib : printf.obj (.text._ftoa)
                  7010eb28    00000008                                               : HwiP_armv7r_asm.obj (.tramp.HwiP_enable.1)
                  7010eb30    0000037e     drivers.am64x.r5f.ti-arm-clang.release.lib : sciclient.obj (.text.Sciclient_service)
                  7010eeae    00000002     --HOLE-- [fill = 0]
                  7010eeb0    00000372                                                : ipc_notify_v0.obj (.text.IpcNotify_init)
                  7010f222    00000002     --HOLE-- [fill = 0]
                  7010f224    00000008     nortos.am64x.r5f.ti-arm-clang.release.lib : PmuP_armv7r_asm.obj (.tramp.PmuP_enableCounters.1)
                  7010f22c    00000004     --HOLE-- [fill = 0]
                  7010f230    00000310                                               : printf.obj (.text._etoa)
                  7010f540    00000290     ipc_rpmsg_echo.obj (.text.ipc_rpmsg_echo_main_core_start)
                  7010f7d0    000001d0     libclang_rt.builtins.a : udivsi3.S.obj (.text)
                  7010f9a0    000001c0     nortos.am64x.r5f.ti-arm-clang.release.lib : TimerP.obj (.text.TimerP_setup)
                  7010fb60    00000136     drivers.am64x.r5f.ti-arm-clang.release.lib : ipc_rpmsg.obj (.text.RPMessage_recv)
                  7010fc96    00000002     --HOLE-- [fill = 0]
                  7010fc98    00000008     nortos.am64x.r5f.ti-arm-clang.release.lib : HwiP_armv7r_asm.obj (.tramp.HwiP_restore.1)
                  7010fca0    00000132                                               : printf.obj (.text._ntoa_format)
                  7010fdd2    0000000e     --HOLE-- [fill = 0]
                  7010fde0    0000012a     drivers.am64x.r5f.ti-arm-clang.release.lib : soc.obj (.text.SOC_moduleSetClockFrequency)
                  7010ff0a    00000002     --HOLE-- [fill = 0]
                  7010ff0c    00000118     libclang_rt.builtins.a : udivmoddi4.S.obj (.text)
                  70110024    0000000c     --HOLE-- [fill = 0]
                  70110030    0000010c     drivers.am64x.r5f.ti-arm-clang.release.lib : ipc_rpmsg.obj (.text.RPMessage_recvHandler)
                  7011013c    00000004     --HOLE-- [fill = 0]
                  70110140    00000104     ti_drivers_config.obj (.text.System_init)
                  70110244    0000000c     --HOLE-- [fill = 0]
                  70110250    00000100     drivers.am64x.r5f.ti-arm-clang.release.lib : ipc_rpmsg.obj (.text.RPMessage_send)
                  70110350    000000fc     nortos.am64x.r5f.ti-arm-clang.release.lib : ClockP_nortos_r5.obj (.text.ClockP_init)
                  7011044c    00000004     --HOLE-- [fill = 0]
                  70110450    000000f6     ipc_rpmsg_echo.obj (.text.ipc_rpmsg_echo_remote_core_start)
                  70110546    0000000a     --HOLE-- [fill = 0]
                  70110550    000000e2     drivers.am64x.r5f.ti-arm-clang.release.lib : ipc_rpmsg.obj (.text.RPMessage_init)
                  70110632    0000000e     --HOLE-- [fill = 0]
                  70110640    000000de                                                : ipc_notify_v0.obj (.text.IpcNotify_deInit)
                  7011071e    00000002     --HOLE-- [fill = 0]
                  70110720    000000c8                                                : ipc_notify_v0.obj (.text.IpcNotify_sendMsg)
                  701107e8    00000008     --HOLE-- [fill = 0]
                  701107f0    000000c6                                                : ipc_notify_v0.obj (.text.IpcNotify_isr)
                  701108b6    0000000a     --HOLE-- [fill = 0]
                  701108c0    000000be                                                : ipc_rpmsg_vring.obj (.text.RPMessage_vringReset)
                  7011097e    00000002     --HOLE-- [fill = 0]
                  70110980    000000bc                                                : pinmux.obj (.text.Pinmux_config)
                  70110a3c    00000004     --HOLE-- [fill = 0]
                  70110a40    000000b0     nortos.am64x.r5f.ti-arm-clang.release.lib : DebugP_shmLogWriter.obj (.text.DebugP_shmLogWriterPutChar)
                  70110af0    000000b0                                               : printf.obj (.text._ntoa_long_long)
                  70110ba0    000000aa     drivers.am64x.r5f.ti-arm-clang.release.lib : ipc_rpmsg_vring.obj (.text.RPMessage_vringGetFullRxBuf)
                  70110c4a    00000006     --HOLE-- [fill = 0]
                  70110c50    000000a6     nortos.am64x.r5f.ti-arm-clang.release.lib : printf.obj (.text._out_rev)
                  70110cf6    0000000a     --HOLE-- [fill = 0]
                  70110d00    000000a4     drivers.am64x.r5f.ti-arm-clang.release.lib : sciclient_pm.obj (.text.Sciclient_pmQueryModuleClkFreq)
                  70110da4    0000000c     --HOLE-- [fill = 0]
                  70110db0    0000009e                                                : ipc_rpmsg_vring.obj (.text.RPMessage_vringPutEmptyRxBuf)
                  70110e4e    00000002     --HOLE-- [fill = 0]
                  70110e50    0000009a                                                : sciclient.obj (.text.Sciclient_init)
                  70110eea    00000006     --HOLE-- [fill = 0]
                  70110ef0    0000009a                                                : sciclient.obj (.text.Sciclient_sendMessage)
                  70110f8a    00000006     --HOLE-- [fill = 0]
                  70110f90    00000098                                                : ipc_rpmsg.obj (.text.RPMessage_coreInit)
                  70111028    00000008     --HOLE-- [fill = 0]
                  70111030    00000096     nortos.am64x.r5f.ti-arm-clang.release.lib : SemaphoreP_nortos.obj (.text.SemaphoreP_pend)
                  701110c6    0000000a     --HOLE-- [fill = 0]
                  701110d0    00000092     drivers.am64x.r5f.ti-arm-clang.release.lib : ipc_rpmsg_vring.obj (.text.RPMessage_vringGetEmptyTxBuf)
                  70111162    0000000e     --HOLE-- [fill = 0]
                  70111170    00000092                                                : sciclient_pm.obj (.text.Sciclient_pmSetModuleClkFreq)
                  70111202    0000000e     --HOLE-- [fill = 0]
                  70111210    0000008c                                                : ipc_rpmsg_vring.obj (.text.RPMessage_vringResetInternal)
                  7011129c    00000004     --HOLE-- [fill = 0]
                  701112a0    0000008c     nortos.am64x.r5f.ti-arm-clang.release.lib : printf.obj (.text._ntoa_long)
                  7011132c    00000004     --HOLE-- [fill = 0]
                  70111330    00000086                                               : DebugP_shmLogWriter.obj (.text.DebugP_shmLogWriterPutLine)
                  701113b6    0000000a     --HOLE-- [fill = 0]
                  701113c0    0000007c     drivers.am64x.r5f.ti-arm-clang.release.lib : ipc_rpmsg.obj (.text.RPMessage_construct)
                  7011143c    00000004     --HOLE-- [fill = 0]
                  70111440    0000007a                                                : sciclient_pm.obj (.text.Sciclient_pmGetModuleClkNumParent)
                  701114ba    00000002     --HOLE-- [fill = 0]
                  701114bc    00000078     libc.a : snprintf.c.obj (.text.snprintf)
                  70111534    0000000c     --HOLE-- [fill = 0]
                  70111540    0000006e     drivers.am64x.r5f.ti-arm-clang.release.lib : soc.obj (.text.SOC_moduleClockEnable)
                  701115ae    00000002     --HOLE-- [fill = 0]
                  701115b0    0000006e                                                : sciclient_pm.obj (.text.Sciclient_pmGetModuleState)
                  7011161e    00000002     --HOLE-- [fill = 0]
                  70111620    0000006c     nortos.am64x.r5f.ti-arm-clang.release.lib : ClockP_nortos.obj (.text.ClockP_timerTickIsr)
                  7011168c    00000004     --HOLE-- [fill = 0]
                  70111690    00000068                                               : AddrTranslateP.obj (.text.AddrTranslateP_getLocalAddr)
                  701116f8    00000008     --HOLE-- [fill = 0]
                  70111700    00000066     drivers.am64x.r5f.ti-arm-clang.release.lib : ipc_rpmsg.obj (.text.RPMessage_getEndPtMsg)
                  70111766    0000000a     --HOLE-- [fill = 0]
                  70111770    00000066                                                : sciclient_pm.obj (.text.Sciclient_pmGetModuleClkFreq)
                  701117d6    0000000a     --HOLE-- [fill = 0]
                  701117e0    00000066                                                : sciclient_pm.obj (.text.Sciclient_pmGetModuleClkParent)
                  70111846    0000000a     --HOLE-- [fill = 0]
                  70111850    00000064                                                : sciclient_pm.obj (.text.Sciclient_pmModuleGetClkStatus)
                  701118b4    0000000c     --HOLE-- [fill = 0]
                  701118c0    00000064     nortos.am64x.r5f.ti-arm-clang.release.lib : PmuP_armv7r.obj (.text.pmu)
                  70111924    0000000c     --HOLE-- [fill = 0]
                  70111930    00000062     drivers.am64x.r5f.ti-arm-clang.release.lib : ipc_notify_v0.obj (.text.IpcNotify_waitSync)
                  70111992    0000000e     --HOLE-- [fill = 0]
                  701119a0    0000005e                                                : ipc_rpmsg_vring.obj (.text.RPMessage_vringPutFullTxBuf)
                  701119fe    00000002     --HOLE-- [fill = 0]
                  70111a00    0000005e                                                : sciclient_pm.obj (.text.Sciclient_pmModuleClkRequest)
                  70111a5e    00000002     --HOLE-- [fill = 0]
                  70111a60    0000005e                                                : sciclient_pm.obj (.text.Sciclient_pmSetModuleClkParent)
                  70111abe    00000002     --HOLE-- [fill = 0]
                  70111ac0    0000005c     nortos.am64x.r5f.ti-arm-clang.release.lib : DebugP_log.obj (.text._DebugP_assert)
                  70111b1c    00000004     --HOLE-- [fill = 0]
                  70111b20    0000005a     drivers.am64x.r5f.ti-arm-clang.release.lib : ipc_notify_v0.obj (.text.IpcNotify_syncAll)
                  70111b7a    00000006     --HOLE-- [fill = 0]
                  70111b80    0000005a                                                : ipc_rpmsg_vring.obj (.text.RPMessage_vringIsFullRxBuf)
                  70111bda    00000002     --HOLE-- [fill = 0]
                  70111bdc    00000058     libc.a : snprintf.c.obj (.text._outs)
                  70111c34    0000000c     --HOLE-- [fill = 0]
                  70111c40    00000054     drivers.am64x.r5f.ti-arm-clang.release.lib : ipc_rpmsg.obj (.text.RPMessage_notifyCallback)
                  70111c94    0000000c     --HOLE-- [fill = 0]
                  70111ca0    00000052                                                : sciclient_pm.obj (.text.Sciclient_pmSetModuleState)
                  70111cf2    0000000e     --HOLE-- [fill = 0]
                  70111d00    00000050     nortos.am64x.r5f.ti-arm-clang.release.lib : ClockP_nortos.obj (.text.ClockP_addToList)
                  70111d50    00000050                                               : ClockP_nortos.obj (.text.ClockP_construct)
                  70111da0    00000050     drivers.am64x.r5f.ti-arm-clang.release.lib : sciclient_soc_priv.obj (.text.Sciclient_getContext)
                  70111df0    00000050     libc.a : autoinit.c.obj (.text:__TI_auto_init_nobinit_nopinit)
                  70111e40    0000004c     nortos.am64x.r5f.ti-arm-clang.release.lib : ClockP_nortos.obj (.text.ClockP_getTimeUsec)
                  70111e8c    00000004     --HOLE-- [fill = 0]
                  70111e90    0000004c     ti_dpl_config.obj (.text.Dpl_init)
                  70111edc    00000004     --HOLE-- [fill = 0]
                  70111ee0    0000004c     drivers.am64x.r5f.ti-arm-clang.release.lib : ipc_rpmsg.obj (.text.RPMessage_allocEndPtMsg)
                  70111f2c    00000048     libc.a : memccpy.c.obj (.text.memccpy)
                  70111f74    0000000c     --HOLE-- [fill = 0]
                  70111f80    00000044     drivers.am64x.r5f.ti-arm-clang.release.lib : sciclient_pm.obj (.text.Sciclient_pmSetModuleRst)
                  70111fc4    0000000c     --HOLE-- [fill = 0]
                  70111fd0    00000040     nortos.am64x.r5f.ti-arm-clang.release.lib : ClockP_nortos.obj (.text.ClockP_stop)
                  70112010    00000040     drivers.am64x.r5f.ti-arm-clang.release.lib : ipc_rpmsg.obj (.text.RPMessage_destruct)
                  70112050    00000040     nortos.am64x.r5f.ti-arm-clang.release.lib : SemaphoreP_nortos.obj (.text.SemaphoreP_constructBinary)
                  70112090    0000003e     drivers.am64x.r5f.ti-arm-clang.release.lib : ipc_notify_v0.obj (.text.IpcNotify_registerClient)
                  701120ce    00000002     --HOLE-- [fill = 0]
                  701120d0    0000003e                                                : soc.obj (.text.SOC_controlModuleUnlockMMR)
                  7011210e    00000002     --HOLE-- [fill = 0]
                  70112110    0000003a     nortos.am64x.r5f.ti-arm-clang.release.lib : ClockP_nortos.obj (.text.ClockP_destruct)
                  7011214a    00000006     --HOLE-- [fill = 0]
                  70112150    00000038     drivers.am64x.r5f.ti-arm-clang.release.lib : ipc_rpmsg_vring.obj (.text.RPMessage_vringCheckEmptyTxBuf)
                  70112188    00000008     --HOLE-- [fill = 0]
                  70112190    00000038                                                : sciclient.obj (.text.Sciclient_getCurrentContext)
                  701121c8    00000008     --HOLE-- [fill = 0]
                  701121d0    00000038     nortos.am64x.r5f.ti-arm-clang.release.lib : DebugP_nortos.obj (.text._DebugP_logZone)
                  70112208    00000008     --HOLE-- [fill = 0]
                  70112210    00000036     ti_power_clock_config.obj (.text.Module_clockSetFrequency)
                  70112246    0000000a     --HOLE-- [fill = 0]
                  70112250    00000036     drivers.am64x.r5f.ti-arm-clang.release.lib : ipc_rpmsg.obj (.text.RPMessage_deInit)
                  70112286    0000000a     --HOLE-- [fill = 0]
                  70112290    00000034     nortos.am64x.r5f.ti-arm-clang.release.lib : ClockP_nortos.obj (.text.ClockP_start)
                  701122c4    0000000c     --HOLE-- [fill = 0]
                  701122d0    00000032                                               : ClockP_nortos.obj (.text.ClockP_usleep)
                  70112302    0000000e     --HOLE-- [fill = 0]
                  70112310    00000032                                               : SemaphoreP_nortos.obj (.text.SemaphoreP_post)
                  70112342    0000000e     --HOLE-- [fill = 0]
                  70112350    00000032                                               : printf.obj (.text.snprintf_)
                  70112382    0000000e     --HOLE-- [fill = 0]
                  70112390    00000030                                               : DebugP_shmLogWriter.obj (.text.DebugP_shmLogWriterInit)
                  701123c0    00000030     libc.a : snprintf.c.obj (.text._outc)
                  701123f0    00000030     nortos.am64x.r5f.ti-arm-clang.release.lib : PmuP_armv7r_asm.obj (.text.pmu)
                  70112420    0000002e     ti_power_clock_config.obj (.text.Module_clockDisable)
                  7011244e    00000002     --HOLE-- [fill = 0]
                  70112450    0000002e     ti_power_clock_config.obj (.text.Module_clockEnable)
                  7011247e    00000002     --HOLE-- [fill = 0]
                  70112480    0000002c     drivers.am64x.r5f.ti-arm-clang.release.lib : ipc_rpmsg.obj (.text.RPMessage_controlEndPtHandler)
                  701124ac    00000004     --HOLE-- [fill = 0]
                  701124b0    0000002c     ipc_rpmsg_echo.obj (.text.ipc_rpmsg_echo_main)
                  701124dc    00000004     --HOLE-- [fill = 0]
                  701124e0    0000002a     drivers.am64x.r5f.ti-arm-clang.release.lib : soc.obj (.text.SOC_controlModuleLockMMR)
                  7011250a    00000006     --HOLE-- [fill = 0]
                  70112510    00000028     nortos.am64x.r5f.ti-arm-clang.release.lib : ClockP_nortos.obj (.text.ClockP_sleepTicks)
                  70112538    00000008     --HOLE-- [fill = 0]
                  70112540    00000028     drivers.am64x.r5f.ti-arm-clang.release.lib : ipc_rpmsg.obj (.text.RPMessage_Params_init)
                  70112568    00000008     --HOLE-- [fill = 0]
                  70112570    00000026                                                : ipc_notify_v0.obj (.text.IpcNotify_unregisterClient)
                  70112596    0000000a     --HOLE-- [fill = 0]
                  701125a0    00000026                                                : ipc_rpmsg.obj (.text.RPMessage_isLinuxCore)
                  701125c6    0000000a     --HOLE-- [fill = 0]
                  701125d0    00000024     ti_drivers_config.obj (.text.System_deinit)
                  701125f4    0000000c     --HOLE-- [fill = 0]
                  70112600    00000024     nortos.am64x.r5f.ti-arm-clang.release.lib : printf.obj (.text.vprintf_)
                  70112624    00000024     libclang_rt.builtins.a : aeabi_uldivmod.S.obj (.text)
                  70112648    00000008     --HOLE-- [fill = 0]
                  70112650    00000022     ti_pinmux_config.obj (.text.Pinmux_init)
                  70112672    0000000e     --HOLE-- [fill = 0]
                  70112680    00000020     nortos.am64x.r5f.ti-arm-clang.release.lib : DebugP_log.obj (.text.DebugP_logZoneEnable)
                  701126a0    00000020     drivers.am64x.r5f.ti-arm-clang.release.lib : soc.obj (.text.SOC_getSelfCpuClk)
                  701126c0    00000020     nortos.am64x.r5f.ti-arm-clang.release.lib : TimerP.obj (.text.TimerP_Params_init)
                  701126e0    0000001e     drivers.am64x.r5f.ti-arm-clang.release.lib : ipc_notify_v0.obj (.text.IpcNotify_syncCallback)
                  701126fe    00000002     --HOLE-- [fill = 0]
                  70112700    0000001c                                                : ipc_rpmsg_vring.obj (.text.RPMessage_vringGetTxBufLen)
                  7011271c    00000004     --HOLE-- [fill = 0]
                  70112720    0000001c                                                : soc.obj (.text.SOC_getCoreName)
                  7011273c    00000004     --HOLE-- [fill = 0]
                  70112740    0000001c     nortos.am64x.r5f.ti-arm-clang.release.lib : boot_armv7r.obj (.text._system_pre_init)
                  7011275c    00000004     --HOLE-- [fill = 0]
                  70112760    0000001c     main.obj (.text.main)
                  7011277c    0000001c     libc.a : _printfi.c.obj (.text.strlen)
                  70112798    0000001c     libsysbm.a : memcpy32.S.obj (.text:TI_memcpy_small)
                  701127b4    0000001c     libclang_rt.builtins.a : aeabi_memset.S.obj (.text)
                  701127d0    0000001a     drivers.am64x.r5f.ti-arm-clang.release.lib : ipc_notify_v0.obj (.text.IpcNotify_Params_init)
                  701127ea    00000006     --HOLE-- [fill = 0]
                  701127f0    0000001a                                                : ipc_rpmsg_vring.obj (.text.RPMessage_vringGetRxBufAddr)
                  7011280a    00000006     --HOLE-- [fill = 0]
                  70112810    0000001a                                                : ipc_rpmsg_vring.obj (.text.RPMessage_vringGetTxBufAddr)
                  7011282a    00000006     --HOLE-- [fill = 0]
                  70112830    00000018     ti_drivers_config.obj (.text.IpcNotify_getConfig)
                  70112848    00000008     --HOLE-- [fill = 0]
                  70112850    00000018     drivers.am64x.r5f.ti-arm-clang.release.lib : ipc_notify_v0.obj (.text.IpcNotify_isCoreEnabled)
                  70112868    00000008     --HOLE-- [fill = 0]
                  70112870    00000018                                                : sciclient_soc_priv.obj (.text.Sciclient_getDevId)
                  70112888    00000018     libsysbm.a : memset32.S.obj (.text:TI_memset_small)
                  701128a0    00000012     nortos.am64x.r5f.ti-arm-clang.release.lib : TimerP.obj (.text.TimerP_clearOverflowInt)
                  701128b2    0000000e     --HOLE-- [fill = 0]
                  701128c0    00000010                                               : ClockP_nortos.obj (.text.ClockP_ticksToUsec)
                  701128d0    00000010     drivers.am64x.r5f.ti-arm-clang.release.lib : ipc_rpmsg.obj (.text.RPMessage_CreateParams_init)
                  701128e0    0000000e     ti_power_clock_config.obj (.text.PowerClock_init)
                  701128ee    00000002     --HOLE-- [fill = 0]
                  701128f0    0000000c     nortos.am64x.r5f.ti-arm-clang.release.lib : ClockP_nortos.obj (.text.ClockP_getTicks)
                  701128fc    00000004     --HOLE-- [fill = 0]
                  70112900    0000000c     drivers.am64x.r5f.ti-arm-clang.release.lib : ipc_notify_v0.obj (.text.IpcNotify_getSelfCoreId)
                  7011290c    00000004     --HOLE-- [fill = 0]
                  70112910    0000000c                                                : sciclient.obj (.text.Sciclient_getSelfDevIdCore)
                  7011291c    00000004     --HOLE-- [fill = 0]
                  70112920    0000000a                                                : csl_sec_proxy.obj (.text.CSL_secProxyGetDataAddr)
                  7011292a    00000006     --HOLE-- [fill = 0]
                  70112930    0000000a     nortos.am64x.r5f.ti-arm-clang.release.lib : ClockP_nortos.obj (.text.ClockP_Params_init)
                  7011293a    00000006     --HOLE-- [fill = 0]
                  70112940    0000000a                                               : ClockP_nortos.obj (.text.ClockP_isActive)
                  7011294a    00000006     --HOLE-- [fill = 0]
                  70112950    0000000a                                               : TimerP.obj (.text.TimerP_start)
                  7011295a    00000006     --HOLE-- [fill = 0]
                  70112960    0000000a                                               : printf.obj (.text._out_buffer)
                  7011296a    00000006     --HOLE-- [fill = 0]
                  70112970    00000008                                               : printf.obj (.text._out_char)
                  70112978    00000008     --HOLE-- [fill = 0]
                  70112980    00000004     ti_board_open_close.obj (.text.Board_driversOpen)
                  70112984    0000000c     --HOLE-- [fill = 0]
                  70112990    00000004     nortos.am64x.r5f.ti-arm-clang.release.lib : ClockP_nortos_r5.obj (.text.ClockP_getTimerCount)
                  70112994    0000000c     --HOLE-- [fill = 0]
                  701129a0    00000004                                               : ClockP_nortos_r5.obj (.text.ClockP_timerClearOverflowInt)
                  701129a4    0000000c     --HOLE-- [fill = 0]
                  701129b0    00000004     ti_power_clock_config.obj (.text.PowerClock_deinit)
                  701129b4    0000000c     --HOLE-- [fill = 0]
                  701129c0    00000004     drivers.am64x.r5f.ti-arm-clang.release.lib : ipc_rpmsg.obj (.text.RPMessage_getLocalEndPt)
                  701129c4    0000000c     --HOLE-- [fill = 0]
                  701129d0    00000004                                                : sciclient.obj (.text.Sciclient_deinit)
                  701129d4    0000000c     --HOLE-- [fill = 0]
                  701129e0    00000004     nortos.am64x.r5f.ti-arm-clang.release.lib : TimerP.obj (.text.TimerP_getCount)
                  701129e4    0000000c     --HOLE-- [fill = 0]
                  701129f0    00000004                                               : TimerP.obj (.text.TimerP_getReloadCount)
                  701129f4    0000000c     --HOLE-- [fill = 0]
                  70112a00    00000004     libclang_rt.builtins.a : aeabi_div0.c.obj (.text.__aeabi_idiv0)
                  70112a04    0000000c     --HOLE-- [fill = 0]
                  70112a10    00000004                            : aeabi_div0.c.obj (.text.__aeabi_ldiv0)
                  70112a14    0000000c     --HOLE-- [fill = 0]
                  70112a20    00000004     ti_dpl_config.obj (.text.putchar_)
                  70112a24    0000000c     --HOLE-- [fill = 0]
                  70112a30    00000002     ti_board_config.obj (.text.Board_deinit)
                  70112a32    0000000e     --HOLE-- [fill = 0]
                  70112a40    00000002     ti_board_open_close.obj (.text.Board_driversClose)
                  70112a42    0000000e     --HOLE-- [fill = 0]
                  70112a50    00000002     ti_board_config.obj (.text.Board_init)
                  70112a52    0000000e     --HOLE-- [fill = 0]
                  70112a60    00000002     ti_dpl_config.obj (.text.Dpl_deinit)
                  70112a62    0000000e     --HOLE-- [fill = 0]
                  70112a70    00000002     ti_drivers_open_close.obj (.text.Drivers_open)
                  70112a72    0000000e     --HOLE-- [fill = 0]
                  70112a80    00000002     nortos.am64x.r5f.ti-arm-clang.release.lib : SemaphoreP_nortos.obj (.text.SemaphoreP_destruct)
                  70112a82    0000000e     --HOLE-- [fill = 0]
                  70112a90    00000002                                               : printf.obj (.text._out_null)
                  70112a92    0000000e     --HOLE-- [fill = 0]

.rodata    0    70112aa0    00000d20     
                  70112aa0    0000031a     drivers.am64x.r5f.ti-arm-clang.release.lib : ipc_rpmsg.obj (.rodata.str1.1)
                  70112dba    0000023b     ipc_rpmsg_echo.obj (.rodata.str1.1)
                  70112ff5    0000017d     drivers.am64x.r5f.ti-arm-clang.release.lib : ipc_notify_v0.obj (.rodata.str1.1)
                  70113172    00000002     --HOLE-- [fill = 0]
                  70113174    0000012c                                                : sciclient_fmwSecureProxyMap.obj (.rodata.gSciclientMap)
                  701132a0    00000103     nortos.am64x.r5f.ti-arm-clang.release.lib : TimerP.obj (.rodata.str1.1)
                  701133a3    000000ac                                               : ClockP_nortos_r5.obj (.rodata.str1.1)
                  7011344f    0000007b     drivers.am64x.r5f.ti-arm-clang.release.lib : soc.obj (.rodata.str1.1)
                  701134ca    00000002     --HOLE-- [fill = 0]
                  701134cc    00000070     ti_dpl_config.obj (.rodata.gMpuRegionConfig)
                  7011353c    0000006b     nortos.am64x.r5f.ti-arm-clang.release.lib : SemaphoreP_nortos.obj (.rodata.str1.1)
                  701135a7    0000005a                                               : ClockP_nortos.obj (.rodata.str1.1)
                  70113601    00000003     --HOLE-- [fill = 0]
                  70113604    00000004                                               : CacheP_armv7r.obj (.rodata.gCacheL1dCacheLineSize)
                  70113608    00000050                                               : printf.obj (.rodata._ftoa.pow10)
                  70113658    00000050     drivers.am64x.r5f.ti-arm-clang.release.lib : ipc_rpmsg_vring.obj (.rodata.str1.1)
                  701136a8    00000042     ti_drivers_config.obj (.rodata.str1.1)
                  701136ea    0000002d     nortos.am64x.r5f.ti-arm-clang.release.lib : DebugP_log.obj (.rodata.str1.1)
                  70113717    00000022     libc.a : _printfi.c.obj (.rodata.str1.1)
                  70113739    00000003     --HOLE-- [fill = 0]
                  7011373c    00000020     drivers.am64x.r5f.ti-arm-clang.release.lib : soc.obj (.rodata.SOC_getCoreName.coreIdNames)
                  7011375c    0000001b     nortos.am64x.r5f.ti-arm-clang.release.lib : DebugP_shmLogWriter.obj (.rodata.str1.1)
                  70113777    00000001     --HOLE-- [fill = 0]
                  70113778    00000018     drivers.am64x.r5f.ti-arm-clang.release.lib : sciclient_soc_priv.obj (.rodata..Lswitch.table.Sciclient_getDevId)
                  70113790    00000012     nortos.am64x.r5f.ti-arm-clang.release.lib : printf.obj (.rodata.str1.1)
                  701137a2    00000002     --HOLE-- [fill = 0]
                  701137a4    0000000c     ti_dpl_config.obj (.rodata.gMpuConfig)
                  701137b0    00000008     ti_dpl_config.obj (.rodata.gCacheConfig)
                  701137b8    00000004     nortos.am64x.r5f.ti-arm-clang.release.lib : CacheP_armv7r.obj (.rodata.gCacheL1pCacheLineSize)
                  701137bc    00000004     --HOLE-- [fill = 0]

.text.hwi 
*          0    701137c0    00000790     
                  701137c0    00000452     nortos.am64x.r5f.ti-arm-clang.release.lib : HwiP_armv7r_vim.obj (.text.hwi)
                  70113c12    00000002     --HOLE-- [fill = 0]
                  70113c14    00000008                                               : HwiP_armv7r_asm.obj (.tramp.HwiP_enableFIQ.1)
                  70113c1c    00000004     --HOLE-- [fill = 0]
                  70113c20    0000023e                                               : HwiP_armv7r_handlers_nortos.obj (.text.hwi)
                  70113e5e    00000002     --HOLE-- [fill = 0]
                  70113e60    00000078                                               : HwiP_armv7r_handlers_nortos_asm.obj (.text.hwi)
                  70113ed8    00000070                                               : HwiP_armv7r_asm.obj (.text.hwi)
                  70113f48    00000008     --HOLE-- [fill = 0]

.text.cache 
*          0    70113f50    00000450     
                  70113f50    00000340     nortos.am64x.r5f.ti-arm-clang.release.lib : CacheP_armv7r_asm.obj (.text.cache)
                  70114290    000000f6                                               : CacheP_armv7r.obj (.text.cache)
                  70114386    00000002     --HOLE-- [fill = 0]
                  70114388    00000008                                               : CacheP_armv7r_asm.obj (.tramp.CacheP_invL1d.1)
                  70114390    00000008                                               : HwiP_armv7r_asm.obj (.tramp.HwiP_restore.2)
                  70114398    00000008                                               : CacheP_armv7r_asm.obj (.tramp.CacheP_enableL1p.1)

.text.mpu 
*          0    701143a0    00000240     
                  701143a0    000001b4     nortos.am64x.r5f.ti-arm-clang.release.lib : MpuP_armv7r.obj (.text.mpu)
                  70114554    00000078                                               : MpuP_armv7r_asm.obj (.text.mpu)
                  701145cc    00000008                                               : MpuP_armv7r_asm.obj (.tramp.MpuP_isEnableAsm.1)
                  701145d4    00000008                                               : HwiP_armv7r_asm.obj (.tramp.HwiP_restore.3)
                  701145dc    00000004     --HOLE-- [fill = 0]

.text.boot 
*          0    701145e0    00000130     
                  701145e0    000000fc     nortos.am64x.r5f.ti-arm-clang.release.lib : boot_armv7r_asm.obj (.text.boot)
                  701146dc    00000004     --HOLE-- [fill = 0]
                  701146e0    0000001e                                               : DebugP_log.obj (.text.boot)
                  701146fe    00000002     --HOLE-- [fill = 0]
                  70114700    0000000e     ti_dpl_config.obj (.text.boot)
                  7011470e    00000002     --HOLE-- [fill = 0]

.text:abort 
*          0    70114710    00000008     
                  70114710    00000008     libc.a : exit.c.obj (.text:abort)

.data      0    70114718    000001d0     
                  70114718    00000093     drivers.am64x.r5f.ti-arm-clang.release.lib : ipc_notify_v0_cfg.obj (.data.gIpcNotifyMailboxConfig)
                  701147ab    00000001                                                : sciclient.obj (.data.gSecHeaderSizeWords)
                  701147ac    00000060                                                : ipc_notify_v0_cfg.obj (.data.gIpcNotifyInterruptConfig_r5fss1_0)
                  7011480c    00000024                                                : ipc_notify_v0_cfg.obj (.data.gIpcNotifyMailboxBaseAddr)
                  70114830    00000020                                                : sciclient_soc_priv.obj (.data.gSciclientSecProxyCfg)
                  70114850    00000018     ipc_rpmsg_echo.obj (.data.gRemoteCoreId)
                  70114868    00000014     ti_dpl_config.obj (.data.gClockConfig)
                  7011487c    00000004     nortos.am64x.r5f.ti-arm-clang.release.lib : DebugP_shmLogWriter.obj (.data.DebugP_shmLogWriterPutChar.lineBufIndex)
                  70114880    0000000c                                               : AddrTranslateP.obj (.data.gAddrTranslateConfig)
                  7011488c    0000000c     ti_power_clock_config.obj (.data.gSocModulesClockFrequency)
                  70114898    00000008     ti_pinmux_config.obj (.data.gPinMuxMainDomainCfg)
                  701148a0    00000008     ti_pinmux_config.obj (.data.gPinMuxMcuDomainCfg)
                  701148a8    00000008     nortos.am64x.r5f.ti-arm-clang.release.lib : PmuP_armv7r.obj (.data.pmu)
                  701148b0    00000004                                               : DebugP_log.obj (.data.gDebugLogZone)
                  701148b4    00000004                                               : DebugP_shmLogWriter.obj (.data.gDebugShmLogWriter)
                  701148b8    00000004                                               : DebugP_shmLogWriter.obj (.data.gDebugShmLogWriterSelfCoreName)
                  701148bc    00000004     ti_dpl_config.obj (.data.gHwiConfig)
                  701148c0    00000004     drivers.am64x.r5f.ti-arm-clang.release.lib : ipc_notify_v0_cfg.obj (.data.gIpcNotifyInterruptConfigNum_r5fss1_0)
                  701148c4    00000004     ipc_rpmsg_echo.obj (.data.gMainCoreId)
                  701148c8    00000004     ipc_rpmsg_echo.obj (.data.gMsgEchoCount)
                  701148cc    00000004     drivers.am64x.r5f.ti-arm-clang.release.lib : sciclient.obj (.data.gSciclientHandle.0)
                  701148d0    00000004                                                : sciclient.obj (.data.gSciclientHandle.2)
                  701148d4    00000004                                                : sciclient.obj (.data.gSciclientHandle.3)
                  701148d8    00000004                                                : sciclient.obj (.data.gSciclientHandle.4)
                  701148dc    00000004                                                : sciclient.obj (.data.gSciclientHandle.5)
                  701148e0    00000004     ti_power_clock_config.obj (.data.gSocModules)
                  701148e4    00000002     ipc_rpmsg_echo.obj (.data.gRemoteServiceEndPt)
                  701148e6    00000002     --HOLE-- [fill = 0]

.irqstack 
*          0    701148e8    00000100     UNINITIALIZED
                  701148e8    00000100     --HOLE--

.fiqstack 
*          0    701149e8    00000100     UNINITIALIZED
                  701149e8    00000100     --HOLE--

.svcstack 
*          0    70114ae8    00001000     UNINITIALIZED
                  70114ae8    00001000     --HOLE--

.abortstack 
*          0    70115ae8    00000100     UNINITIALIZED
                  70115ae8    00000100     --HOLE--

.undefinedstack 
*          0    70115be8    00000100     UNINITIALIZED
                  70115be8    00000100     --HOLE--

.init_array 
*          0    70100000    00000000     UNINITIALIZED

.bss.log_shared_mem 
*          0    701d0080    00003800     NOLOAD SECTION
                  701d0080    00003800     ti_dpl_config.obj (.bss.log_shared_mem)

.bss.ipc_vring_mem 
*          0    701d4000    000099c0     NOLOAD SECTION
                  701d4000    000099c0     ti_drivers_config.obj (.bss.ipc_vring_mem)

MODULE SUMMARY

       Module                                code    ro data   rw data
       ------                                ----    -------   -------
    obj/release/
       ti_drivers_config.obj                 320     66        39360  
       ti_dpl_config.obj                     96      132       14360  
       ipc_rpmsg_echo.obj                    946     571       418    
       ti_power_clock_config.obj             164     0         16     
       ti_pinmux_config.obj                  34      0         16     
       main.obj                              28      0         0      
       ti_board_open_close.obj               6       0         0      
       ti_board_config.obj                   4       0         0      
       ti_drivers_open_close.obj             2       0         0      
    +--+-------------------------------------+-------+---------+---------+
       Total:                                1600    769       54170  
                                                                      
    /home/thomas/ti/mcu_plus_sdk_am64x_08_05_00_24/source/drivers/lib/drivers.am64x.r5f.ti-arm-clang.release.lib
       ipc_rpmsg.obj                         1858    794       2860   
       ipc_notify_v0.obj                     1882    381       168    
       sciclient.obj                         1274    0         21     
       ipc_rpmsg_vring.obj                   1124    80        0      
       sciclient_pm.obj                      1184    0         0      
       soc.obj                               572     155       0      
       sciclient_fmwSecureProxyMap.obj       0       300       0      
       ipc_notify_v0_cfg.obj                 0       0         283    
       pinmux.obj                            188     0         0      
       sciclient_soc_priv.obj                104     24        32     
       csl_sec_proxy.obj                     10      0         0      
    +--+-------------------------------------+-------+---------+---------+
       Total:                                8196    1734      3364   
                                                                      
    /home/thomas/ti/mcu_plus_sdk_am64x_08_05_00_24/source/kernel/nortos/lib/nortos.am64x.r5f.ti-arm-clang.release.lib
       HwiP_armv7r_vim.obj                   1106    0         4108   
       printf.obj                            4012    98        0      
       CacheP_armv7r_asm.obj                 848     0         0      
       ClockP_nortos.obj                     656     90        56     
       TimerP.obj                            516     259       0      
       HwiP_armv7r_handlers_nortos.obj       574     0         0      
       DebugP_shmLogWriter.obj               358     27        134    
       MpuP_armv7r.obj                       436     0         0      
       ClockP_nortos_r5.obj                  260     172       0      
       SemaphoreP_nortos.obj                 266     107       0      
       CacheP_armv7r.obj                     246     8         0      
       boot_armv7r_asm.obj                   252     0         0      
       DebugP_log.obj                        154     45        4      
       HwiP_armv7r_asm.obj                   152     0         0      
       MpuP_armv7r_asm.obj                   128     0         0      
       HwiP_armv7r_handlers_nortos_asm.obj   120     0         0      
       AddrTranslateP.obj                    104     0         12     
       PmuP_armv7r.obj                       100     0         8      
       HwiP_armv7r_vectors_nortos_asm.obj    64      0         0      
       DebugP_nortos.obj                     56      0         0      
       PmuP_armv7r_asm.obj                   56      0         0      
       boot_armv7r.obj                       28      0         0      
    +--+-------------------------------------+-------+---------+---------+
       Total:                                10492   806       4322   
                                                                      
    /home/thomas/ti/ti-cgt-armllvm_2.1.2.LTS/lib/armv7r-ti-none-eabihf/c/libc.a
       _printfi.c.obj                        1024    34        0      
       snprintf.c.obj                        256     0         0      
       autoinit.c.obj                        80      0         0      
       memccpy.c.obj                         72      0         0      
       exit.c.obj                            8       0         0      
    +--+-------------------------------------+-------+---------+---------+
       Total:                                1440    34        0      
                                                                      
    /home/thomas/ti/ti-cgt-armllvm_2.1.2.LTS/lib/armv7r-ti-none-eabihf/c/libsysbm.a
       memcpy32.S.obj                        28      0         0      
       memset32.S.obj                        24      0         0      
    +--+-------------------------------------+-------+---------+---------+
       Total:                                52      0         0      
                                                                      
    /home/thomas/ti/ti-cgt-armllvm_2.1.2.LTS/lib/clang/14.0.6/lib/armv7r-ti-none-eabihf/libclang_rt.builtins.a
       udivsi3.S.obj                         464     0         0      
       udivmoddi4.S.obj                      280     0         0      
       aeabi_uldivmod.S.obj                  36      0         0      
       aeabi_memset.S.obj                    28      0         0      
       aeabi_div0.c.obj                      8       0         0      
       aeabi_memcpy.S.obj                    4       0         0      
    +--+-------------------------------------+-------+---------+---------+
       Total:                                820     0         0      
                                                                      
       Heap:                                 0       0         32768  
       Stack:                                0       0         16384  
    +--+-------------------------------------+-------+---------+---------+
       Grand Total:                          22600   3343      111008 

VENEERS

callee name               veneer name
   callee addr  veneer addr  call addr  call info
--------------  -----------  ---------  ----------------
HwiP_enableFIQ            $Ven$TA$L$PI$$HwiP_enableFIQ
   70113f08     70113c14     70113bfc   nortos.am64x.r5f.ti-arm-clang.release.lib : HwiP_armv7r_vim.obj (.text.hwi)
CacheP_invL1d             $Ven$TA$L$PI$$CacheP_invL1d
   70113fc0     70114388     70114382   nortos.am64x.r5f.ti-arm-clang.release.lib : CacheP_armv7r.obj (.text.cache)
HwiP_restore              $Ven$TA$L$PI$$HwiP_restore
   70113f18     70114390     70114336   nortos.am64x.r5f.ti-arm-clang.release.lib : CacheP_armv7r.obj (.text.cache)
CacheP_enableL1p          $Ven$TA$L$PI$$CacheP_enableL1p
   70113fa8     70114398     701142fc   nortos.am64x.r5f.ti-arm-clang.release.lib : CacheP_armv7r.obj (.text.cache)
                             7011435c                                             : CacheP_armv7r.obj (.text.cache)
MpuP_isEnableAsm          $Ven$TA$L$PI$$MpuP_isEnableAsm
   701145a4     701145cc     701144e0   nortos.am64x.r5f.ti-arm-clang.release.lib : MpuP_armv7r.obj (.text.mpu)
HwiP_restore              $Ven$TA$L$PI$$HwiP_restore
   70113f18     701145d4     70114494   nortos.am64x.r5f.ti-arm-clang.release.lib : MpuP_armv7r.obj (.text.mpu)
                             701144cc                                             : MpuP_armv7r.obj (.text.mpu)
HwiP_enable               $Ven$TA$L$PI$$HwiP_enable
   70113ef8     7010eb28     70111ed8   ti_dpl_config.obj (.text.Dpl_init)
PmuP_enableCounters       $Ven$TA$L$PI$$PmuP_enableCounters
   70112400     7010f224     70111920   nortos.am64x.r5f.ti-arm-clang.release.lib : PmuP_armv7r.obj (.text.pmu)
HwiP_restore              $Ven$TA$L$PI$$HwiP_restore
   70113f18     7010fc98     7011071a   drivers.am64x.r5f.ti-arm-clang.release.lib : ipc_notify_v0.obj (.text.IpcNotify_deInit)
                             7011200c   nortos.am64x.r5f.ti-arm-clang.release.lib : ClockP_nortos.obj (.text.ClockP_stop)
                             70112146                                             : ClockP_nortos.obj (.text.ClockP_destruct)
                             701122c0                                             : ClockP_nortos.obj (.text.ClockP_start)
                             7011233e                                             : SemaphoreP_nortos.obj (.text.SemaphoreP_post)

[9 trampolines]
[15 trampoline calls]


GLOBAL SYMBOLS: SORTED ALPHABETICALLY BY Name 

address   name                                 
-------   ----                                 
70111691  AddrTranslateP_getLocalAddr          
70112a31  Board_deinit                         
70112a41  Board_driversClose                   
70112981  Board_driversOpen                    
70112a51  Board_init                           
70114710  C$$EXIT                              
70112921  CSL_secProxyGetDataAddr              
70114260  CacheP_configForceWrThru             
70114301  CacheP_disable                       
70113f50  CacheP_disableL1d                    
70113f78  CacheP_disableL1p                    
70114341  CacheP_enable                        
70113f90  CacheP_enableL1d                     
70113fa8  CacheP_enableL1p                     
70114254  CacheP_getCacheLevelInfo             
7011421c  CacheP_getEnabled                    
70114291  CacheP_init                          
70114361  CacheP_inv                           
70113fc0  CacheP_invL1d                        
70114034  CacheP_invL1dAll                     
70113ff8  CacheP_invL1p                        
7011403c  CacheP_invL1pAll                     
70114280  CacheP_setDLFO                       
70114044  CacheP_wb                            
701140bc  CacheP_wbAll                         
70114080  CacheP_wbInv                         
70114164  CacheP_wbInvAll                      
7011417c  CacheP_wbInvAllAsm                   
70112931  ClockP_Params_init                   
70111d51  ClockP_construct                     
70112111  ClockP_destruct                      
701128f1  ClockP_getTicks                      
70111e41  ClockP_getTimeUsec                   
70112991  ClockP_getTimerCount                 
70110351  ClockP_init                          
70112941  ClockP_isActive                      
70112291  ClockP_start                         
70111fd1  ClockP_stop                          
701128c1  ClockP_ticksToUsec                   
701129a1  ClockP_timerClearOverflowInt         
70111621  ClockP_timerTickIsr                  
701122d1  ClockP_usleep                        
701123f0  CycleCounterP_getCount32             
701118c1  CycleCounterP_init                   
701118d1  CycleCounterP_nsToTicks              
70111901  CycleCounterP_reset                  
70112681  DebugP_logZoneEnable                 
70112391  DebugP_shmLogWriterInit              
70110a41  DebugP_shmLogWriterPutChar           
70111331  DebugP_shmLogWriterPutLine           
70112a61  Dpl_deinit                           
70111e91  Dpl_init                             
70112a71  Drivers_open                         
701138e1  HwiP_Params_init                     
70113891  HwiP_clearInt                        
70113901  HwiP_construct                       
70113e31  HwiP_data_abort_handler              
70113a51  HwiP_destruct                        
70113ed8  HwiP_disable                         
70113ee8  HwiP_disableFIQ                      
701137f1  HwiP_disableInt                      
70113f30  HwiP_disableVIC                      
70113ef8  HwiP_enable                          
70113f08  HwiP_enableFIQ                       
701137c1  HwiP_enableInt                       
70113f20  HwiP_enableVIC                       
70113cb1  HwiP_fiq_handler                     
70113f40  HwiP_getCPSR                         
70113c01  HwiP_inISR                           
70113b31  HwiP_init                            
70113e60  HwiP_irq_handler                     
70113c21  HwiP_irq_handler_c                   
701138b1  HwiP_post                            
70113e01  HwiP_prefetch_abort_handler          
70113d71  HwiP_reserved_handler                
70113f18  HwiP_restore                         
70113831  HwiP_restoreInt                      
70113dd1  HwiP_svc_handler                     
70113da1  HwiP_undefined_handler               
701127d1  IpcNotify_Params_init                
70110641  IpcNotify_deInit                     
70112831  IpcNotify_getConfig                  
70112901  IpcNotify_getSelfCoreId              
7010eeb1  IpcNotify_init                       
70112851  IpcNotify_isCoreEnabled              
701107f1  IpcNotify_isr                        
70112091  IpcNotify_registerClient             
70110721  IpcNotify_sendMsg                    
70111b21  IpcNotify_syncAll                    
701126e1  IpcNotify_syncCallback               
70112571  IpcNotify_unregisterClient           
70111931  IpcNotify_waitSync                   
70112421  Module_clockDisable                  
70112451  Module_clockEnable                   
70112211  Module_clockSetFrequency             
701143a1  MpuP_RegionAttrs_init                
701144a1  MpuP_disable                         
70114554  MpuP_disableAsm                      
7011456c  MpuP_disableBRAsm                    
70114461  MpuP_enable                          
7011457c  MpuP_enableAsm                       
70114594  MpuP_enableBRAsm                     
701144f1  MpuP_init                            
701144e1  MpuP_isEnable                        
701145a4  MpuP_isEnableAsm                     
701143b1  MpuP_setRegion                       
701145b8  MpuP_setRegionAsm                    
70110981  Pinmux_config                        
70112651  Pinmux_init                          
70112418  PmuP_clearOverflowStatus             
70112408  PmuP_disableCounters                 
70112400  PmuP_enableCounters                  
70112410  PmuP_getOverflowStatus               
701123f8  PmuP_setup                           
701129b1  PowerClock_deinit                    
701128e1  PowerClock_init                      
701128d1  RPMessage_CreateParams_init          
70112541  RPMessage_Params_init                
70111ee1  RPMessage_allocEndPtMsg              
701113c1  RPMessage_construct                  
70112481  RPMessage_controlEndPtHandler        
70110f91  RPMessage_coreInit                   
70112251  RPMessage_deInit                     
70112011  RPMessage_destruct                   
70111701  RPMessage_getEndPtMsg                
701129c1  RPMessage_getLocalEndPt              
70110551  RPMessage_init                       
701125a1  RPMessage_isLinuxCore                
70111c41  RPMessage_notifyCallback             
7010fb61  RPMessage_recv                       
70110031  RPMessage_recvHandler                
70110251  RPMessage_send                       
70112151  RPMessage_vringCheckEmptyTxBuf       
701110d1  RPMessage_vringGetEmptyTxBuf         
70110ba1  RPMessage_vringGetFullRxBuf          
701127f1  RPMessage_vringGetRxBufAddr          
70112811  RPMessage_vringGetTxBufAddr          
70112701  RPMessage_vringGetTxBufLen           
70111b81  RPMessage_vringIsFullRxBuf           
70110db1  RPMessage_vringPutEmptyRxBuf         
701119a1  RPMessage_vringPutFullTxBuf          
701108c1  RPMessage_vringReset                 
70111211  RPMessage_vringResetInternal         
701124e1  SOC_controlModuleLockMMR             
701120d1  SOC_controlModuleUnlockMMR           
70112721  SOC_getCoreName                      
701126a1  SOC_getSelfCpuClk                    
70111541  SOC_moduleClockEnable                
7010fde1  SOC_moduleSetClockFrequency          
701129d1  Sciclient_deinit                     
70111da1  Sciclient_getContext                 
70112191  Sciclient_getCurrentContext          
70112871  Sciclient_getDevId                   
70112911  Sciclient_getSelfDevIdCore           
70110e51  Sciclient_init                       
70111771  Sciclient_pmGetModuleClkFreq         
70111441  Sciclient_pmGetModuleClkNumParent    
701117e1  Sciclient_pmGetModuleClkParent       
701115b1  Sciclient_pmGetModuleState           
70111a01  Sciclient_pmModuleClkRequest         
70111851  Sciclient_pmModuleGetClkStatus       
70110d01  Sciclient_pmQueryModuleClkFreq       
70111171  Sciclient_pmSetModuleClkFreq         
70111a61  Sciclient_pmSetModuleClkParent       
70111f81  Sciclient_pmSetModuleRst             
70111ca1  Sciclient_pmSetModuleState           
7010eb31  Sciclient_service                    
70112051  SemaphoreP_constructBinary           
70112a81  SemaphoreP_destruct                  
70111031  SemaphoreP_pend                      
70112311  SemaphoreP_post                      
701125d1  System_deinit                        
70110141  System_init                          
70112798  TI_memcpy_small                      
70112888  TI_memset_small                      
701126c1  TimerP_Params_init                   
701128a1  TimerP_clearOverflowInt              
701129e1  TimerP_getCount                      
701129f1  TimerP_getReloadCount                
7010f9a1  TimerP_setup                         
70112951  TimerP_start                         
70111ac1  _DebugP_assert                       
701146e1  _DebugP_assertNoLog                  
701121d1  _DebugP_logZone                      
70115be8  __ABORT_STACK_END                    
00000100  __ABORT_STACK_SIZE                   
70115ae8  __ABORT_STACK_START                  
70101e18  __BSS_END                            
70100000  __BSS_START                          
70114ae8  __FIQ_STACK_END                      
00000100  __FIQ_STACK_SIZE                     
701149e8  __FIQ_STACK_START                    
701149e8  __IRQ_STACK_END                      
00000100  __IRQ_STACK_SIZE                     
701148e8  __IRQ_STACK_START                    
7010de18  __STACK_END                          
00004000  __STACK_SIZE                         
70115ae8  __SVC_STACK_END                      
00001000  __SVC_STACK_SIZE                     
70114ae8  __SVC_STACK_START                    
00008000  __SYSMEM_SIZE                        
UNDEFED   __TI_CINIT_Base                      
UNDEFED   __TI_CINIT_Limit                     
UNDEFED   __TI_Handler_Table_Base              
UNDEFED   __TI_Handler_Table_Limit             
70111df0  __TI_auto_init_nobinit_nopinit       
ffffffff  __TI_pprof_out_hndl                  
7010e3b8  __TI_printfi_minimal                 
ffffffff  __TI_prof_data_size                  
ffffffff  __TI_prof_data_start                 
00000000  __TI_static_base__                   
70115ce8  __UNDEFINED_STACK_END                
00000100  __UNDEFINED_STACK_SIZE               
70115be8  __UNDEFINED_STACK_START              
70112a00  __aeabi_idiv0                        
70112a10  __aeabi_ldiv0                        
701127c4  __aeabi_memclr                       
701127c4  __aeabi_memclr4                      
701127c4  __aeabi_memclr8                      
7010e79c  __aeabi_memcpy                       
7010e79c  __aeabi_memcpy4                      
7010e79c  __aeabi_memcpy8                      
701127b4  __aeabi_memset                       
701127b4  __aeabi_memset4                      
701127b4  __aeabi_memset8                      
7010f7d0  __aeabi_uidiv                        
70112624  __aeabi_uldivmod                     
ffffffff  __binit__                            
70114701  __mpu_init                           
70109e18  __stack                              
7010ff0c  __udivmoddi4                         
7010f7d0  __udivsi3                            
70114604  _c_int00                             
701145e0  _c_int00_sbl                         
70101e18  _sys_memory                          
UNDEFED   _system_post_cinit                   
70112741  _system_pre_init                     
00000000  _vectors                             
70114710  abort                                
ffffffff  binit                                
70101bf4  gAckReplyMsgObject                   
70114880  gAddrTranslateConfig                 
701137b0  gCacheConfig                         
70113604  gCacheL1dCacheLineSize               
701137b8  gCacheL1pCacheLineSize               
70114868  gClockConfig                         
70101dd8  gClockCtrl                           
701148b0  gDebugLogZone                        
701d0080  gDebugShmLog                         
701148bc  gHwiConfig                           
70100000  gHwiCtrl                             
70101cb4  gIpcNotifyCtrl                       
701148c0  gIpcNotifyInterruptConfigNum_r5fss1_0
701147ac  gIpcNotifyInterruptConfig_r5fss1_0   
7011480c  gIpcNotifyMailboxBaseAddr            
70114718  gIpcNotifyMailboxConfig              
70101008  gIpcRpmsgCtrl                        
701148c4  gMainCoreId                          
701137a4  gMpuConfig                           
701134cc  gMpuRegionConfig                     
701148c8  gMsgEchoCount                        
701d4000  gRPMessageVringMem                   
70114850  gRemoteCoreId                        
701148e4  gRemoteServiceEndPt                  
70113174  gSciclientMap                        
70114830  gSciclientSecProxyCfg                
701148e0  gSocModules                          
7011488c  gSocModulesClockFrequency            
701124b1  ipc_rpmsg_echo_main                  
7010f541  ipc_rpmsg_echo_main_core_start       
70110451  ipc_rpmsg_echo_remote_core_start     
70112761  main                                 
70111f2c  memccpy                              
70112a21  putchar_                             
701114bc  snprintf                             
70112351  snprintf_                            
70112601  vprintf_                             


GLOBAL SYMBOLS: SORTED BY Symbol Address 

address   name                                 
-------   ----                                 
00000000  __TI_static_base__                   
00000000  _vectors                             
00000100  __ABORT_STACK_SIZE                   
00000100  __FIQ_STACK_SIZE                     
00000100  __IRQ_STACK_SIZE                     
00000100  __UNDEFINED_STACK_SIZE               
00001000  __SVC_STACK_SIZE                     
00004000  __STACK_SIZE                         
00008000  __SYSMEM_SIZE                        
70100000  __BSS_START                          
70100000  gHwiCtrl                             
70101008  gIpcRpmsgCtrl                        
70101bf4  gAckReplyMsgObject                   
70101cb4  gIpcNotifyCtrl                       
70101dd8  gClockCtrl                           
70101e18  __BSS_END                            
70101e18  _sys_memory                          
70109e18  __stack                              
7010de18  __STACK_END                          
7010e3b8  __TI_printfi_minimal                 
7010e79c  __aeabi_memcpy                       
7010e79c  __aeabi_memcpy4                      
7010e79c  __aeabi_memcpy8                      
7010eb31  Sciclient_service                    
7010eeb1  IpcNotify_init                       
7010f541  ipc_rpmsg_echo_main_core_start       
7010f7d0  __aeabi_uidiv                        
7010f7d0  __udivsi3                            
7010f9a1  TimerP_setup                         
7010fb61  RPMessage_recv                       
7010fde1  SOC_moduleSetClockFrequency          
7010ff0c  __udivmoddi4                         
70110031  RPMessage_recvHandler                
70110141  System_init                          
70110251  RPMessage_send                       
70110351  ClockP_init                          
70110451  ipc_rpmsg_echo_remote_core_start     
70110551  RPMessage_init                       
70110641  IpcNotify_deInit                     
70110721  IpcNotify_sendMsg                    
701107f1  IpcNotify_isr                        
701108c1  RPMessage_vringReset                 
70110981  Pinmux_config                        
70110a41  DebugP_shmLogWriterPutChar           
70110ba1  RPMessage_vringGetFullRxBuf          
70110d01  Sciclient_pmQueryModuleClkFreq       
70110db1  RPMessage_vringPutEmptyRxBuf         
70110e51  Sciclient_init                       
70110f91  RPMessage_coreInit                   
70111031  SemaphoreP_pend                      
701110d1  RPMessage_vringGetEmptyTxBuf         
70111171  Sciclient_pmSetModuleClkFreq         
70111211  RPMessage_vringResetInternal         
70111331  DebugP_shmLogWriterPutLine           
701113c1  RPMessage_construct                  
70111441  Sciclient_pmGetModuleClkNumParent    
701114bc  snprintf                             
70111541  SOC_moduleClockEnable                
701115b1  Sciclient_pmGetModuleState           
70111621  ClockP_timerTickIsr                  
70111691  AddrTranslateP_getLocalAddr          
70111701  RPMessage_getEndPtMsg                
70111771  Sciclient_pmGetModuleClkFreq         
701117e1  Sciclient_pmGetModuleClkParent       
70111851  Sciclient_pmModuleGetClkStatus       
701118c1  CycleCounterP_init                   
701118d1  CycleCounterP_nsToTicks              
70111901  CycleCounterP_reset                  
70111931  IpcNotify_waitSync                   
701119a1  RPMessage_vringPutFullTxBuf          
70111a01  Sciclient_pmModuleClkRequest         
70111a61  Sciclient_pmSetModuleClkParent       
70111ac1  _DebugP_assert                       
70111b21  IpcNotify_syncAll                    
70111b81  RPMessage_vringIsFullRxBuf           
70111c41  RPMessage_notifyCallback             
70111ca1  Sciclient_pmSetModuleState           
70111d51  ClockP_construct                     
70111da1  Sciclient_getContext                 
70111df0  __TI_auto_init_nobinit_nopinit       
70111e41  ClockP_getTimeUsec                   
70111e91  Dpl_init                             
70111ee1  RPMessage_allocEndPtMsg              
70111f2c  memccpy                              
70111f81  Sciclient_pmSetModuleRst             
70111fd1  ClockP_stop                          
70112011  RPMessage_destruct                   
70112051  SemaphoreP_constructBinary           
70112091  IpcNotify_registerClient             
701120d1  SOC_controlModuleUnlockMMR           
70112111  ClockP_destruct                      
70112151  RPMessage_vringCheckEmptyTxBuf       
70112191  Sciclient_getCurrentContext          
701121d1  _DebugP_logZone                      
70112211  Module_clockSetFrequency             
70112251  RPMessage_deInit                     
70112291  ClockP_start                         
701122d1  ClockP_usleep                        
70112311  SemaphoreP_post                      
70112351  snprintf_                            
70112391  DebugP_shmLogWriterInit              
701123f0  CycleCounterP_getCount32             
701123f8  PmuP_setup                           
70112400  PmuP_enableCounters                  
70112408  PmuP_disableCounters                 
70112410  PmuP_getOverflowStatus               
70112418  PmuP_clearOverflowStatus             
70112421  Module_clockDisable                  
70112451  Module_clockEnable                   
70112481  RPMessage_controlEndPtHandler        
701124b1  ipc_rpmsg_echo_main                  
701124e1  SOC_controlModuleLockMMR             
70112541  RPMessage_Params_init                
70112571  IpcNotify_unregisterClient           
701125a1  RPMessage_isLinuxCore                
701125d1  System_deinit                        
70112601  vprintf_                             
70112624  __aeabi_uldivmod                     
70112651  Pinmux_init                          
70112681  DebugP_logZoneEnable                 
701126a1  SOC_getSelfCpuClk                    
701126c1  TimerP_Params_init                   
701126e1  IpcNotify_syncCallback               
70112701  RPMessage_vringGetTxBufLen           
70112721  SOC_getCoreName                      
70112741  _system_pre_init                     
70112761  main                                 
70112798  TI_memcpy_small                      
701127b4  __aeabi_memset                       
701127b4  __aeabi_memset4                      
701127b4  __aeabi_memset8                      
701127c4  __aeabi_memclr                       
701127c4  __aeabi_memclr4                      
701127c4  __aeabi_memclr8                      
701127d1  IpcNotify_Params_init                
701127f1  RPMessage_vringGetRxBufAddr          
70112811  RPMessage_vringGetTxBufAddr          
70112831  IpcNotify_getConfig                  
70112851  IpcNotify_isCoreEnabled              
70112871  Sciclient_getDevId                   
70112888  TI_memset_small                      
701128a1  TimerP_clearOverflowInt              
701128c1  ClockP_ticksToUsec                   
701128d1  RPMessage_CreateParams_init          
701128e1  PowerClock_init                      
701128f1  ClockP_getTicks                      
70112901  IpcNotify_getSelfCoreId              
70112911  Sciclient_getSelfDevIdCore           
70112921  CSL_secProxyGetDataAddr              
70112931  ClockP_Params_init                   
70112941  ClockP_isActive                      
70112951  TimerP_start                         
70112981  Board_driversOpen                    
70112991  ClockP_getTimerCount                 
701129a1  ClockP_timerClearOverflowInt         
701129b1  PowerClock_deinit                    
701129c1  RPMessage_getLocalEndPt              
701129d1  Sciclient_deinit                     
701129e1  TimerP_getCount                      
701129f1  TimerP_getReloadCount                
70112a00  __aeabi_idiv0                        
70112a10  __aeabi_ldiv0                        
70112a21  putchar_                             
70112a31  Board_deinit                         
70112a41  Board_driversClose                   
70112a51  Board_init                           
70112a61  Dpl_deinit                           
70112a71  Drivers_open                         
70112a81  SemaphoreP_destruct                  
70113174  gSciclientMap                        
701134cc  gMpuRegionConfig                     
70113604  gCacheL1dCacheLineSize               
701137a4  gMpuConfig                           
701137b0  gCacheConfig                         
701137b8  gCacheL1pCacheLineSize               
701137c1  HwiP_enableInt                       
701137f1  HwiP_disableInt                      
70113831  HwiP_restoreInt                      
70113891  HwiP_clearInt                        
701138b1  HwiP_post                            
701138e1  HwiP_Params_init                     
70113901  HwiP_construct                       
70113a51  HwiP_destruct                        
70113b31  HwiP_init                            
70113c01  HwiP_inISR                           
70113c21  HwiP_irq_handler_c                   
70113cb1  HwiP_fiq_handler                     
70113d71  HwiP_reserved_handler                
70113da1  HwiP_undefined_handler               
70113dd1  HwiP_svc_handler                     
70113e01  HwiP_prefetch_abort_handler          
70113e31  HwiP_data_abort_handler              
70113e60  HwiP_irq_handler                     
70113ed8  HwiP_disable                         
70113ee8  HwiP_disableFIQ                      
70113ef8  HwiP_enable                          
70113f08  HwiP_enableFIQ                       
70113f18  HwiP_restore                         
70113f20  HwiP_enableVIC                       
70113f30  HwiP_disableVIC                      
70113f40  HwiP_getCPSR                         
70113f50  CacheP_disableL1d                    
70113f78  CacheP_disableL1p                    
70113f90  CacheP_enableL1d                     
70113fa8  CacheP_enableL1p                     
70113fc0  CacheP_invL1d                        
70113ff8  CacheP_invL1p                        
70114034  CacheP_invL1dAll                     
7011403c  CacheP_invL1pAll                     
70114044  CacheP_wb                            
70114080  CacheP_wbInv                         
701140bc  CacheP_wbAll                         
70114164  CacheP_wbInvAll                      
7011417c  CacheP_wbInvAllAsm                   
7011421c  CacheP_getEnabled                    
70114254  CacheP_getCacheLevelInfo             
70114260  CacheP_configForceWrThru             
70114280  CacheP_setDLFO                       
70114291  CacheP_init                          
70114301  CacheP_disable                       
70114341  CacheP_enable                        
70114361  CacheP_inv                           
701143a1  MpuP_RegionAttrs_init                
701143b1  MpuP_setRegion                       
70114461  MpuP_enable                          
701144a1  MpuP_disable                         
701144e1  MpuP_isEnable                        
701144f1  MpuP_init                            
70114554  MpuP_disableAsm                      
7011456c  MpuP_disableBRAsm                    
7011457c  MpuP_enableAsm                       
70114594  MpuP_enableBRAsm                     
701145a4  MpuP_isEnableAsm                     
701145b8  MpuP_setRegionAsm                    
701145e0  _c_int00_sbl                         
70114604  _c_int00                             
701146e1  _DebugP_assertNoLog                  
70114701  __mpu_init                           
70114710  C$$EXIT                              
70114710  abort                                
70114718  gIpcNotifyMailboxConfig              
701147ac  gIpcNotifyInterruptConfig_r5fss1_0   
7011480c  gIpcNotifyMailboxBaseAddr            
70114830  gSciclientSecProxyCfg                
70114850  gRemoteCoreId                        
70114868  gClockConfig                         
70114880  gAddrTranslateConfig                 
7011488c  gSocModulesClockFrequency            
701148b0  gDebugLogZone                        
701148bc  gHwiConfig                           
701148c0  gIpcNotifyInterruptConfigNum_r5fss1_0
701148c4  gMainCoreId                          
701148c8  gMsgEchoCount                        
701148e0  gSocModules                          
701148e4  gRemoteServiceEndPt                  
701148e8  __IRQ_STACK_START                    
701149e8  __FIQ_STACK_START                    
701149e8  __IRQ_STACK_END                      
70114ae8  __FIQ_STACK_END                      
70114ae8  __SVC_STACK_START                    
70115ae8  __ABORT_STACK_START                  
70115ae8  __SVC_STACK_END                      
70115be8  __ABORT_STACK_END                    
70115be8  __UNDEFINED_STACK_START              
70115ce8  __UNDEFINED_STACK_END                
701d0080  gDebugShmLog                         
701d4000  gRPMessageVringMem                   
ffffffff  __TI_pprof_out_hndl                  
ffffffff  __TI_prof_data_size                  
ffffffff  __TI_prof_data_start                 
ffffffff  __binit__                            
ffffffff  binit                                
UNDEFED   __TI_CINIT_Base                      
UNDEFED   __TI_CINIT_Limit                     
UNDEFED   __TI_Handler_Table_Base              
UNDEFED   __TI_Handler_Table_Limit             
UNDEFED   _system_post_cinit                   

[277 symbols]
