******************************************************************************
            TI ARM Clang Linker Unix v2.1.2                    
******************************************************************************
>> Linked Wed May 24 11:40:08 2023

OUTPUT FILE NAME:   <enet_loopback.release.out>
ENTRY POINT SYMBOL: "_vectors"  address: 00000000


MEMORY CONFIGURATION

         name            origin    length      used     unused   attr    fill
----------------------  --------  ---------  --------  --------  ----  --------
  R5F_VECS              00000000   00000040  00000040  00000000  RWIX
  R5F_TCMA              00000040   00007fc0  00000000  00007fc0  RWIX
  R5F_TCMB0             41010000   00008000  00000000  00008000  RWIX
  FLASH                 60100000   00080000  00000000  00080000  RWIX
  MSRAM                 70080000   00110000  00057d78  000b8288  RWIX


SEGMENT ALLOCATION MAP

run origin  load origin   length   init length attrs members
----------  ----------- ---------- ----------- ----- -------
00000000    00000000    00000040   00000040    r-x
  00000000    00000000    00000040   00000040    r-x .vectors
70080000    70080000    00029220   00029220    r-x
  70080000    70080000    000219d0   000219d0    r-x .text
  700a19d0    700a19d0    00007850   00007850    r-- .rodata
700c0d80    700c0d80    00011f80   00000000    rw-
  700c0d80    700c0d80    0000fb80   00000000    rw- .bss
  700d0900    700d0900    00000400   00000000    rw- .sysmem
  700d0d00    700d0d00    00002000   00000000    rw- .stack
700d2d00    700d2d00    00002ca0   00002ca0    rw-
  700d2d00    700d2d00    00002ca0   00002ca0    rw- .data
700d59a0    700d59a0    00002498   00001098    r-x
  700d59a0    700d59a0    000008d0   000008d0    r-x .text.hwi
  700d6270    700d6270    00000450   00000450    r-x .text.cache
  700d66c0    700d66c0    00000240   00000240    r-x .text.mpu
  700d6900    700d6900    00000130   00000130    r-x .text.boot
  700d6a30    700d6a30    00000008   00000008    r-x .text:abort
  700d6a38    700d6a38    00000100   00000000    r-- .irqstack
  700d6b38    700d6b38    00000100   00000000    r-- .fiqstack
  700d6c38    700d6c38    00001000   00000000    r-- .svcstack
  700d7c38    700d7c38    00000100   00000000    r-- .abortstack
  700d7d38    700d7d38    00000100   00000000    r-- .undefinedstack


SECTION ALLOCATION MAP

 output                                  attributes/
section   page    origin      length       input sections
--------  ----  ----------  ----------   ----------------
.vectors   0    00000000    00000040     
                  00000000    00000040     freertos.am64x.r5f.ti-arm-clang.release.lib : HwiP_armv7r_vectors_freertos_asm.obj (.vectors)

.text      0    70080000    000219d0     
                  70080000    00001f54     ti_enet_open_close.obj (.text.EnetApp_driverOpen)
                  70081f54    00001818     loopback_test.obj (.text.EnetApp_loopbackTest)
                  7008376c    0000115c     ltoQZamxA (.text.__TI_scanfi)
                  700848c8    00000eb8     enet-cpsw.am64x.r5f.ti-arm-clang.release.lib : cpsw.obj (.text.Cpsw_open)
                  70085780    00000aec     ltoQZamxA (.text:__TI_printfi_nofloat)
                  7008626c    000008b8     enet-cpsw.am64x.r5f.ti-arm-clang.release.lib : cpsw.obj (.text.Cpsw_periodicTick)
                  70086b24    00000734                                                  : cpsw_ale.obj (.text.CpswAle_open)
                  70087258    00000008                                                  : enet_rm_ioctl.obj (.text.EnetRm_ioctl_handler_ENET_RM_IOCTL_DETACH)
                  70087260    00000624     drivers.am64x.r5f.ti-arm-clang.release.lib : sciclient_rm_irq.obj (.text.Sciclient_rmIrqFindRoute)
                  70087884    0000000c     enet-cpsw.am64x.r5f.ti-arm-clang.release.lib : cpsw_cpts.obj (.text.CpswCpts_close)
                  70087890    00000596     freertos.am64x.r5f.ti-arm-clang.release.lib : printf.obj (.text._vsnprintf)
                  70087e26    00000002     enet-cpsw.am64x.r5f.ti-arm-clang.release.lib : cpsw_stats.obj (.text.CpswStats_close)
                  70087e28    00000528                                                  : cpsw_ioctl.obj (.text.Cpsw_internalIoctl_handler_ENET_PER_IOCTL_OPEN_PORT_LINK)
                  70088350    00000522     drivers.am64x.r5f.ti-arm-clang.release.lib : udma_ch.obj (.text.Udma_chDisable)
                  70088872    0000000e     enet-cpsw.am64x.r5f.ti-arm-clang.release.lib : cpsw_ioctl.obj (.text.Cpsw_internalIoctl_handler_ENET_PER_IOCTL_CLOSE_PORT_LINK)
                  70088880    000004e8     drivers.am64x.r5f.ti-arm-clang.release.lib : uart_v0.obj (.text.UART_open)
                  70088d68    00000008     ltoQZamxA (.text.OUTLINED_FUNCTION_101)
                  70088d70    0000049c     drivers.am64x.r5f.ti-arm-clang.release.lib : i2c_v0.obj (.text.I2C_primeTransfer)
                  7008920c    00000004     ltoQZamxA (.text.CpswAle_ioctl_handler_default)
                  70089210    00000478     libc.a : strtod.c.obj (.text.strtod)
                  70089688    00000008     ltoQZamxA (.text.OUTLINED_FUNCTION_102)
                  70089690    0000046a     drivers.am64x.r5f.ti-arm-clang.release.lib : udma_event.obj (.text.Udma_eventRegister)
                  70089afa    00000002     ltoQZamxA (.text.EnetApp_rxPktNotifyCb)
                  70089afc    00000448     enet-cpsw.am64x.r5f.ti-arm-clang.release.lib : cpsw_macport.obj (.text.CpswMacPort_open)
                  70089f44    0000000c                                                  : cpsw_cpts_ioctl.obj (.text.CpswCpts_ioctl_handler_CPSW_CPTS_IOCTL_DISABLE_INTR)
                  70089f50    0000039c     drivers.am64x.r5f.ti-arm-clang.release.lib : udma_ch.obj (.text.Udma_chOpen)
                  7008a2ec    0000038c     enet-cpsw.am64x.r5f.ti-arm-clang.release.lib : cpsw.obj (.text.Cpsw_ioctl)
                  7008a678    00000008     ltoQZamxA (.text.OUTLINED_FUNCTION_105)
                  7008a680    00000388     freertos.am64x.r5f.ti-arm-clang.release.lib : printf.obj (.text._ftoa)
                  7008aa08    00000008     ltoQZamxA (.text.OUTLINED_FUNCTION_11)
                  7008aa10    0000037e     drivers.am64x.r5f.ti-arm-clang.release.lib : sciclient.obj (.text.Sciclient_service)
                  7008ad8e    00000002     ltoQZamxA (.text.EnetApp_txPktNotifyCb)
                  7008ad90    00000370     enet-cpsw.am64x.r5f.ti-arm-clang.release.lib : enet_udma_priv.obj (.text.EnetUdma_submitPkts)
                  7008b100    0000036c                                                  : enet_rm.obj (.text.EnetRm_open)
                  7008b46c    00000004                                                  : cpsw_ale.obj (.text.CpswAle_rejoin)
                  7008b470    00000366     drivers.am64x.r5f.ti-arm-clang.release.lib : udma_rm.obj (.text.Udma_rmInit)
                  7008b7d6    00000002     --HOLE-- [fill = 0]
                  7008b7d8    00000334     enet-cpsw.am64x.r5f.ti-arm-clang.release.lib : enet_rm.obj (.text.EnetRm_detachCore)
                  7008bb0c    00000004     ltoQZamxA (.text.CpswCpts_ioctl_handler_default)
                  7008bb10    00000310     freertos.am64x.r5f.ti-arm-clang.release.lib : printf.obj (.text._etoa)
                  7008be20    00000300     ltoQZamxA (.text.Cpsw_closeInternal)
                  7008c120    000002f0     libc.a : _printfi.c.obj (.text:__TI_printfi_nofloat)
                  7008c410    000002b8     ltoQZamxA (.text.Dp83867_printRegs)
                  7008c6c8    000002b8     ltoQZamxA (.text.Dp83869_printRegs)
                  7008c980    00000292     drivers.am64x.r5f.ti-arm-clang.release.lib : udma_rmcfg_common.obj (.text.UdmaRmInitPrms_init)
                  7008cc12    0000000e     ltoQZamxA (.text.OUTLINED_FUNCTION_110)
                  7008cc20    00000290     drivers.am64x.r5f.ti-arm-clang.release.lib : uart_v0.obj (.text.UART_read)
                  7008ceb0    0000028c                                                : sciclient_rm_irq.obj (.text.Sciclient_rmIrqGetRoute)
                  7008d13c    00000004     enet-cpsw.am64x.r5f.ti-arm-clang.release.lib : cpsw_cpts.obj (.text.CpswCpts_rejoin)
                  7008d140    0000028a     drivers.am64x.r5f.ti-arm-clang.release.lib : i2c_v0.obj (.text.I2C_open)
                  7008d3ca    00000006     ltoQZamxA (.text.Dp83867_reset)
                  7008d3d0    00000288     drivers.am64x.r5f.ti-arm-clang.release.lib : udma_soc.obj (.text.Udma_initDrvHandle)
                  7008d658    0000027c     ltoQZamxA (.text.fputs)
                  7008d8d4    0000000c     enet-cpsw.am64x.r5f.ti-arm-clang.release.lib : cpsw_cpts_ioctl.obj (.text.CpswCpts_ioctl_handler_CPSW_CPTS_IOCTL_ENABLE_INTR)
                  7008d8e0    0000023e     drivers.am64x.r5f.ti-arm-clang.release.lib : i2c_v0.obj (.text.I2C_hwiFxnMaster)
                  7008db1e    00000002     --HOLE-- [fill = 0]
                  7008db20    00000228     enet-cpsw.am64x.r5f.ti-arm-clang.release.lib : mdio.obj (.text.Mdio_open)
                  7008dd48    00000008     ltoQZamxA (.text.OUTLINED_FUNCTION_19)
                  7008dd50    0000021e     freertos.am64x.r5f.ti-arm-clang.release.lib : timers.obj (.text.prvTimerTask)
                  7008df6e    00000002     --HOLE-- [fill = 0]
                  7008df70    0000021a     drivers.am64x.r5f.ti-arm-clang.release.lib : uart_v0.obj (.text.UART_masterIsr)
                  7008e18a    00000002     --HOLE-- [fill = 0]
                  7008e18c    00000210     enet-cpsw.am64x.r5f.ti-arm-clang.release.lib : enet_udma_priv.obj (.text.EnetUdma_allocRing)
                  7008e39c    00000004     ltoQZamxA (.text.CpswEst_ioctl_handler_default)
                  7008e3a0    0000020a     drivers.am64x.r5f.ti-arm-clang.release.lib : udma_event.obj (.text.Udma_eventUnRegister)
                  7008e5aa    00000006     ltoQZamxA (.text.Dp83869_reset)
                  7008e5b0    00000202     drivers.am64x.r5f.ti-arm-clang.release.lib : sciclient_rm_irq.obj (.text.Sciclient_rmProgramInterruptRoute)
                  7008e7b2    0000000e     ltoQZamxA (.text.OUTLINED_FUNCTION_118)
                  7008e7c0    000001fe     drivers.am64x.r5f.ti-arm-clang.release.lib : uart_v0.obj (.text.UART_write)
                  7008e9be    00000002     --HOLE-- [fill = 0]
                  7008e9c0    000001fc     ltoQZamxA (.text.EnetApp_rxTask)
                  7008ebbc    000001f0     enet-cpsw.am64x.r5f.ti-arm-clang.release.lib : enet_rm.obj (.text.EnetRm_close)
                  7008edac    000001e4     ltoQZamxA (.text.strtoll)
                  7008ef90    000001e0     enet-cpsw.am64x.r5f.ti-arm-clang.release.lib : mdio_ioctl.obj (.text.Mdio_ioctl_handler_ENET_MDIO_IOCTL_C45_READ)
                  7008f170    000001e0     ltoQZamxA (.text.__TI_closefile)
                  7008f350    000001d8     enet-cpsw.am64x.r5f.ti-arm-clang.release.lib : cpsw_cpts_ioctl.obj (.text.CpswCpts_ioctl_handler_CPSW_CPTS_IOCTL_HANDLE_INTR)
                  7008f528    000001d8     ltoQZamxA (.text.EnetApp_txTask)
                  7008f700    000001d4     enet-cpsw.am64x.r5f.ti-arm-clang.release.lib : cpsw.obj (.text.Cpsw_handleLinkDown)
                  7008f8d4    000001d0     libclang_rt.builtins.a : udivsi3.S.obj (.text)
                  7008faa4    0000000c     enet-cpsw.am64x.r5f.ti-arm-clang.release.lib : cpsw_hostport_ioctl.obj (.text.CpswHostPort_ioctl_handler_ENET_HOSTPORT_IOCTL_DISABLE)
                  7008fab0    000001cc     freertos.am64x.r5f.ti-arm-clang.release.lib : queue.obj (.text.xQueueSemaphoreTake)
                  7008fc7c    00000004     ltoQZamxA (.text.CpswHostPort_ioctl_handler_default)
                  7008fc80    000001ca     drivers.am64x.r5f.ti-arm-clang.release.lib : csl_bcdma.obj (.text.CSL_bcdmaChanOp)
                  7008fe4a    00000006     ltoQZamxA (.text.EnetApp_timerCb)
                  7008fe50    000001c0     freertos.am64x.r5f.ti-arm-clang.release.lib : TimerP.obj (.text.TimerP_setup)
                  70090010    000001bc     enet-cpsw.am64x.r5f.ti-arm-clang.release.lib : cpsw_stats.obj (.text.CpswStats_open)
                  700901cc    00000004     ltoQZamxA (.text.CpswMacPortEst_ioctl_handler_default)
                  700901d0    000001ba     drivers.am64x.r5f.ti-arm-clang.release.lib : soc.obj (.text.SOC_phyToVirt)
                  7009038a    00000002     --HOLE-- [fill = 0]
                  7009038c    000001b8     ltoQZamxA (.text.Cpsw_internalIoctl_handler_ENET_PER_IOCTL_REGISTER_IOCTL_HANDLER)
                  70090544    0000000c     enet-cpsw.am64x.r5f.ti-arm-clang.release.lib : cpsw_hostport_ioctl.obj (.text.CpswHostPort_ioctl_handler_ENET_HOSTPORT_IOCTL_ENABLE)
                  70090550    000001b2     drivers.am64x.r5f.ti-arm-clang.release.lib : soc.obj (.text.SOC_virtToPhy)
                  70090702    0000000e     ltoQZamxA (.text.OUTLINED_FUNCTION_16)
                  70090710    000001b0     drivers.am64x.r5f.ti-arm-clang.release.lib : sciclient_rm_irq.obj (.text.Sciclient_rmClearInterruptRoute)
                  700908c0    000001ae     freertos.am64x.r5f.ti-arm-clang.release.lib : queue.obj (.text.xQueueGenericSend)
                  70090a6e    00000002     --HOLE-- [fill = 0]
                  70090a70    000001ac     main.obj (.text.freertos_main)
                  70090c1c    000001a0     enet-cpsw.am64x.r5f.ti-arm-clang.release.lib : cpsw_ale_ioctl.obj (.text.CpswAle_ioctl_handler_CPSW_ALE_IOCTL_REMOVE_LEARNED_ENTRIES)
                  70090dbc    00000004     ltoQZamxA (.text.CpswMacPort_ioctl_handler_default)
                  70090dc0    0000019c     drivers.am64x.r5f.ti-arm-clang.release.lib : udma_ring_common.obj (.text.Udma_ringAlloc)
                  70090f5c    00000004     ltoQZamxA (.text.CpswStats_ioctl_handler_default)
                  70090f60    00000184     freertos.am64x.r5f.ti-arm-clang.release.lib : queue.obj (.text.xQueueReceive)
                  700910e4    00000180     enet-cpsw.am64x.r5f.ti-arm-clang.release.lib : cpsw_cpts.obj (.text.CpswCpts_open)
                  70091264    00000180     libc.a : memory.c.obj (.text.aligned_alloc)
                  700913e4    00000180            : memory.c.obj (.text.free)
                  70091564    00000180     libsysbm.a : memcpy32.S.obj (.text:memcpy)
                  700916e4    0000017c     ltoQZamxA (.text.Dp83869_config)
                  70091860    0000017c     freertos.am64x.r5f.ti-arm-clang.release.lib : TaskP_freertos.obj (.text.TaskP_construct)
                  700919dc    00000174     enet-cpsw.am64x.r5f.ti-arm-clang.release.lib : cpsw_hostport.obj (.text.CpswHostPort_open)
                  70091b50    00000170     ltoQZamxA (.text.strtol)
                  70091cc0    0000016c     ltoQZamxA (.text.Dp83867_config)
                  70091e2c    00000004     ltoQZamxA (.text.Cpsw_internalIoctl_handler_default)
                  70091e30    0000015e     freertos.am64x.r5f.ti-arm-clang.release.lib : tasks.obj (.text.xTaskIncrementTick)
                  70091f8e    00000002     --HOLE-- [fill = 0]
                  70091f90    00000152     drivers.am64x.r5f.ti-arm-clang.release.lib : i2c_v0.obj (.text.I2C_hwiFxnSlave)
                  700920e2    00000002     --HOLE-- [fill = 0]
                  700920e4    00000150     enet-cpsw.am64x.r5f.ti-arm-clang.release.lib : cpsw_macport_ioctl.obj (.text.CpswMacPort_ioctl_handler_CPSW_MACPORT_IOCTL_ENABLE)
                  70092234    0000000c                                                  : cpsw_hostport.obj (.text.CpswHostPort_rejoin)
                  70092240    00000148     drivers.am64x.r5f.ti-arm-clang.release.lib : csl_bcdma.obj (.text.CSL_bcdmaChanOpCfgChan)
                  70092388    00000008     ltoQZamxA (.text.OUTLINED_FUNCTION_2)
                  70092390    00000146     drivers.am64x.r5f.ti-arm-clang.release.lib : uart_v0.obj (.text.UART_close)
                  700924d6    0000000a     ltoQZamxA (.text.EnetOsalDflt_lockMutex)
                  700924e0    00000142     drivers.am64x.r5f.ti-arm-clang.release.lib : sciclient_rm_irq.obj (.text.Sciclient_rmIrqProgramRoute)
                  70092622    00000002     --HOLE-- [fill = 0]
                  70092624    00000140     ltoQZamxA (.text.strtoull)
                  70092764    0000000c     enet-cpsw.am64x.r5f.ti-arm-clang.release.lib : cpsw_macport.obj (.text.CpswMacPort_rejoin)
                  70092770    00000140     freertos.am64x.r5f.ti-arm-clang.release.lib : tasks.obj (.text.xTaskResumeAll)
                  700928b0    0000013c     drivers.am64x.r5f.ti-arm-clang.release.lib : udma_ch.obj (.text.Udma_chConfigRx)
                  700929ec    00000138     enet-cpsw.am64x.r5f.ti-arm-clang.release.lib : csl_cpsw.obj (.text.CSL_CPSW_getAlePolicerEntry)
                  70092b24    00000138                                                  : cpsw_macport_est.obj (.text.CpswEst_setState)
                  70092c5c    00000004     ltoQZamxA (.text.EnetOsalDflt_disableAllIntr)
                  70092c60    00000138     drivers.am64x.r5f.ti-arm-clang.release.lib : sciclient_rm_irq.obj (.text.Sciclient_rmIrqDeleteRoute)
                  70092d98    00000008     ltoQZamxA (.text.OUTLINED_FUNCTION_33)
                  70092da0    00000136     freertos.am64x.r5f.ti-arm-clang.release.lib : ClockP_freertos_r5.obj (.text.ClockP_init)
                  70092ed6    0000000a     ltoQZamxA (.text.OUTLINED_FUNCTION_106)
                  70092ee0    00000132     freertos.am64x.r5f.ti-arm-clang.release.lib : printf.obj (.text._ntoa_format)
                  70093012    00000002     --HOLE-- [fill = 0]
                  70093014    00000130     enet-cpsw.am64x.r5f.ti-arm-clang.release.lib : mdio_ioctl.obj (.text.Mdio_ioctl_handler_ENET_MDIO_IOCTL_C45_WRITE)
                  70093144    0000012c                                                  : cpsw.obj (.text.Cpsw_initCfg)
                  70093270    0000012a     drivers.am64x.r5f.ti-arm-clang.release.lib : soc.obj (.text.SOC_moduleSetClockFrequency)
                  7009339a    00000002     --HOLE-- [fill = 0]
                  7009339c    00000128     enet-cpsw.am64x.r5f.ti-arm-clang.release.lib : cpsw_est_ioctl.obj (.text.CpswEst_ioctl_handler_ENET_TAS_IOCTL_SET_STATE)
                  700934c4    00000128     ltoQZamxA (.text.Cpsw_validateDfltFlow)
                  700935ec    00000128     enet-cpsw.am64x.r5f.ti-arm-clang.release.lib : enet_udmautils.obj (.text.EnetAppUtils_freePktInfoQ)
                  70093714    00000128                                                  : enet_rm_ioctl.obj (.text.EnetRm_ioctl_handler_ENET_RM_IOCTL_ALLOC_MAC_ADDR)
                  7009383c    00000004     ltoQZamxA (.text.EnetOsalDflt_disableIntr)
                  70093840    00000128     freertos.am64x.r5f.ti-arm-clang.release.lib : tasks.obj (.text.vTaskSwitchContext)
                  70093968    00000008     ltoQZamxA (.text.OUTLINED_FUNCTION_41)
                  70093970    00000126     freertos.am64x.r5f.ti-arm-clang.release.lib : queue.obj (.text.xQueueGenericSendFromISR)
                  70093a96    00000002     --HOLE-- [fill = 0]
                  70093a98    00000124     libc.a : s_scalbn.c.obj (.text.scalbn)
                  70093bbc    0000011c     enet-cpsw.am64x.r5f.ti-arm-clang.release.lib : csl_cpsw.obj (.text.CSL_CPSW_setAlePolicerEntry)
                  70093cd8    0000011a                                                  : cpsw_ale.obj (.text.CpswAle_close)
                  70093df2    00000002     --HOLE-- [fill = 0]
                  70093df4    00000118                                                  : enet_udma_priv.obj (.text.EnetUdma_ringEnqueue)
                  70093f0c    00000118     libclang_rt.builtins.a : udivmoddi4.S.obj (.text)
                  70094024    00000114     enet-cpsw.am64x.r5f.ti-arm-clang.release.lib : cpsw_ioctl.obj (.text.Cpsw_internalIoctl_handler_ENET_PER_IOCTL_ATTACH_CORE)
                  70094138    00000008     ltoQZamxA (.text.OUTLINED_FUNCTION_43)
                  70094140    00000112     freertos.am64x.r5f.ti-arm-clang.release.lib : tasks.obj (.text.prvAddNewTaskToReadyList)
                  70094252    00000002     --HOLE-- [fill = 0]
                  70094254    00000110     ltoQZamxA (.text.strtoul)
                  70094364    0000010c     enet-cpsw.am64x.r5f.ti-arm-clang.release.lib : cpsw_cpts_ioctl.obj (.text.CpswCpts_ioctl_handler_CPSW_CPTS_IOCTL_SET_ESTF)
                  70094470    0000010a     drivers.am64x.r5f.ti-arm-clang.release.lib : i2c_v0.obj (.text.I2C_transfer)
                  7009457a    00000006     ltoQZamxA (.text.EnetOsalDflt_cacheInv)
                  70094580    00000106     drivers.am64x.r5f.ti-arm-clang.release.lib : udma_rm.obj (.text.Udma_rmSetSharedResRmInitPrms)
                  70094686    0000000a     ltoQZamxA (.text.OUTLINED_FUNCTION_107)
                  70094690    00000106     freertos.am64x.r5f.ti-arm-clang.release.lib : queue.obj (.text.xQueueGiveFromISR)
                  70094796    00000002     --HOLE-- [fill = 0]
                  70094798    00000100     ltoQZamxA (.text.CpswStats_readMacStats)
                  70094898    00000100     enet-cpsw.am64x.r5f.ti-arm-clang.release.lib : enet_rm_ioctl.obj (.text.EnetRm_ioctl_handler_ENET_RM_IOCTL_ALLOC_TX_CH_PEERID)
                  70094998    00000008     ltoQZamxA (.text.OUTLINED_FUNCTION_46)
                  700949a0    00000100     drivers.am64x.r5f.ti-arm-clang.release.lib : i2c_v0.obj (.text.I2C_ctrlInit)
                  70094aa0    000000fe     board.am64x.r5f.ti-arm-clang.release.lib : eeprom_at24c.obj (.text.EEPROM_AT24C_write)
                  70094b9e    00000002     --HOLE-- [fill = 0]
                  70094ba0    000000fc     drivers.am64x.r5f.ti-arm-clang.release.lib : csl_lcdma_ringacc.obj (.text.CSL_lcdma_ringaccPop64MultiAccess)
                  70094c9c    00000004     ltoQZamxA (.text.EnetOsalDflt_enableIntr)
                  70094ca0    000000fc     freertos.am64x.r5f.ti-arm-clang.release.lib : queue.obj (.text.xQueueGenericCreateStatic)
                  70094d9c    00000004     ltoQZamxA (.text.EnetOsalDflt_isCacheCoherent)
                  70094da0    000000fa     drivers.am64x.r5f.ti-arm-clang.release.lib : udma_flow.obj (.text.Udma_flowConfig)
                  70094e9a    00000006     ltoQZamxA (.text.EnetOsalDflt_cacheWb)
                  70094ea0    000000fa     freertos.am64x.r5f.ti-arm-clang.release.lib : queue.obj (.text.xQueueReceiveFromISR)
                  70094f9a    000000f8     enet-cpsw.am64x.r5f.ti-arm-clang.release.lib : cpsw_ale_ioctl.obj (.text.CpswAle_ioctl_handler_CPSW_ALE_IOCTL_ADD_UCAST)
                  70095092    0000000e     ltoQZamxA (.text.OUTLINED_FUNCTION_48)
                  700950a0    000000f6     drivers.am64x.r5f.ti-arm-clang.release.lib : udma_ch.obj (.text.Udma_chEnable)
                  70095196    00000002     --HOLE-- [fill = 0]
                  70095198    000000f4     ti_enet_open_close.obj (.text.EnetApp_phyStateHandler)
                  7009528c    000000f4     enet-cpsw.am64x.r5f.ti-arm-clang.release.lib : enet.obj (.text.Enet_ioctl)
                  70095380    000000f0                                                  : enet_queue.obj (.text.EnetQueue_append)
                  70095470    000000f0     drivers.am64x.r5f.ti-arm-clang.release.lib : udma_ch.obj (.text.Udma_chFreeResource)
                  70095560    000000ee     freertos.am64x.r5f.ti-arm-clang.release.lib : tasks.obj (.text.vTaskDelete)
                  7009564e    00000002     --HOLE-- [fill = 0]
                  70095650    000000dc     enet-cpsw.am64x.r5f.ti-arm-clang.release.lib : cpsw_hostport.obj (.text.CpswHostPort_ioctl)
                  7009572c    000000dc                                                  : cpsw_stats.obj (.text.CpswStats_ioctl)
                  70095808    000000dc     ltoQZamxA (.text.Cpsw_unregisterIntrs)
                  700958e4    000000dc     enet-cpsw.am64x.r5f.ti-arm-clang.release.lib : mdio.obj (.text.Mdio_ioctl)
                  700959c0    000000da     drivers.am64x.r5f.ti-arm-clang.release.lib : udma_ch.obj (.text.Udma_chConfigTx)
                  70095a9a    00000002     --HOLE-- [fill = 0]
                  70095a9c    000000d8     enet-cpsw.am64x.r5f.ti-arm-clang.release.lib : cpsw.obj (.text.Cpsw_setDfltThreadCfg)
                  70095b74    0000000c     ltoQZamxA (.text.EnetAppUtils_printStatsNonZero)
                  70095b80    000000d6     board.am64x.r5f.ti-arm-clang.release.lib : eeprom_at24c.obj (.text.EEPROM_AT24C_read)
                  70095c56    0000000a     ltoQZamxA (.text.OUTLINED_FUNCTION_109)
                  70095c60    000000d4     drivers.am64x.r5f.ti-arm-clang.release.lib : csl_lcdma_ringacc.obj (.text.CSL_lcdma_ringaccPush64MultiAccess)
                  70095d34    000000d0     ltoQZamxA (.text.CpswStats_readHostStats)
                  70095e04    000000d0     ti_drivers_config.obj (.text.System_init)
                  70095ed4    0000000c     ltoQZamxA (.text.OUTLINED_FUNCTION_100)
                  70095ee0    000000ce     freertos.am64x.r5f.ti-arm-clang.release.lib : tasks.obj (.text.vTaskPriorityDisinheritAfterTimeout)
                  70095fae    00000002     --HOLE-- [fill = 0]
                  70095fb0    000000cc     ltoQZamxA (.text.CpswAle_findAddr)
                  7009607c    000000cc     enet-cpsw.am64x.r5f.ti-arm-clang.release.lib : enet_appmemutils.obj (.text.EnetMem_freeDmaDesc)
                  70096148    000000cc                                                  : enet_utils.obj (.text.EnetUtils_delayNs)
                  70096214    0000000c     ltoQZamxA (.text.OUTLINED_FUNCTION_103)
                  70096220    000000cc     freertos.am64x.r5f.ti-arm-clang.release.lib : timers.obj (.text.prvSampleTimeNow)
                  700962ec    000000c8     ltoQZamxA (.text.EnetPhy_bindDriver)
                  700963b4    0000000c     ltoQZamxA (.text.OUTLINED_FUNCTION_42)
                  700963c0    000000c6     freertos.am64x.r5f.ti-arm-clang.release.lib : tasks.obj (.text.prvInitialiseNewTask)
                  70096486    0000000a     ltoQZamxA (.text.OUTLINED_FUNCTION_111)
                  70096490    000000c6     freertos.am64x.r5f.ti-arm-clang.release.lib : tasks.obj (.text.xTaskCreateStatic)
                  70096556    00000002     --HOLE-- [fill = 0]
                  70096558    000000c4     ltoQZamxA (.text.EnetUdma_retrievePkts)
                  7009661c    000000c0     ltoQZamxA (.text.Cpsw_closePortLink)
                  700966dc    000000c0     enet-cpsw.am64x.r5f.ti-arm-clang.release.lib : mdio_ioctl.obj (.text.Mdio_ioctl_handler_ENET_MDIO_IOCTL_C22_WRITE)
                  7009679c    00000004     ltoQZamxA (.text.EnetOsalDflt_restoreAllIntr)
                  700967a0    000000c0     freertos.am64x.r5f.ti-arm-clang.release.lib : tasks.obj (.text.xTaskCheckForTimeOut)
                  70096860    000000bc     enet-cpsw.am64x.r5f.ti-arm-clang.release.lib : cpsw.obj (.text.Cpsw_close)
                  7009691c    000000bc                                                  : enet.obj (.text.EnetMod_open)
                  700969d8    000000bc                                                  : enet_phymdio_dflt.obj (.text.EnetPhyMdioDflt_writeC45)
                  70096a94    000000bc                                                  : enet_rm_ioctl.obj (.text.EnetRm_ioctl_handler_ENET_RM_IOCTL_INTERNAL_ALLOC_RX_FLOW)
                  70096b50    000000bc     drivers.am64x.r5f.ti-arm-clang.release.lib : i2c_v0.obj (.text.I2C_recoverBus)
                  70096c0c    00000004     ltoQZamxA (.text.EnetOsalDflt_timerRead)
                  70096c10    000000bc     drivers.am64x.r5f.ti-arm-clang.release.lib : pinmux.obj (.text.Pinmux_config)
                  70096ccc    00000004     ltoQZamxA (.text.EnetRm_ioctl_handler_default)
                  70096cd0    000000ba     drivers.am64x.r5f.ti-arm-clang.release.lib : csl_bcdma.obj (.text.CSL_bcdmaChanOpTeardownChan)
                  70096d8a    00000006     ltoQZamxA (.text.EnetOsalDflt_cacheWbInv)
                  70096d90    000000ba     freertos.am64x.r5f.ti-arm-clang.release.lib : tasks.obj (.text.vTaskStartScheduler)
                  70096e4a    00000006     ltoQZamxA (.text.EnetOsalDflt_unlockMutex)
                  70096e50    000000b8     drivers.am64x.r5f.ti-arm-clang.release.lib : csl_lcdma_ringacc.obj (.text.CSL_lcdma_ringaccDequeue)
                  70096f08    000000b8     enet-cpsw.am64x.r5f.ti-arm-clang.release.lib : enet_appmemutils.obj (.text.EnetMem_freeRingMem)
                  70096fc0    000000b8     drivers.am64x.r5f.ti-arm-clang.release.lib : uart_v0.obj (.text.UART_divisorLatchWrite)
                  70097078    000000b4     enet-cpsw.am64x.r5f.ti-arm-clang.release.lib : enet_phymdio_dflt.obj (.text.EnetPhyMdioDflt_writeC22)
                  7009712c    000000b4     ltoQZamxA (.text.Mdio_manualModePhyRegRead22)
                  700971e0    000000b2     drivers.am64x.r5f.ti-arm-clang.release.lib : uart_v0.obj (.text.UART_flushTxFifo)
                  70097292    0000000e     ltoQZamxA (.text.OUTLINED_FUNCTION_62)
                  700972a0    000000b2     freertos.am64x.r5f.ti-arm-clang.release.lib : tasks.obj (.text.eTaskGetState)
                  70097352    0000000e     ltoQZamxA (.text.OUTLINED_FUNCTION_66)
                  70097360    000000b0     freertos.am64x.r5f.ti-arm-clang.release.lib : ClockP_freertos.obj (.text.ClockP_construct)
                  70097410    000000b0     enet-cpsw.am64x.r5f.ti-arm-clang.release.lib : cpsw_ale.obj (.text.CpswAle_ioctl)
                  700974c0    000000b0                                                  : cpsw_cpts.obj (.text.CpswCpts_ioctl)
                  70097570    000000b0                                                  : cpsw_macport.obj (.text.CpswMacPort_ioctl)
                  70097620    000000b0     ltoQZamxA (.text.Cpsw_handleMdioLinkStateChange)
                  700976d0    000000b0     ltoQZamxA (.text.EnetOsalDflt_registerIntr)
                  70097780    000000b0     enet-cpsw.am64x.r5f.ti-arm-clang.release.lib : enet_rm_ioctl.obj (.text.EnetRm_ioctl_handler_ENET_RM_IOCTL_ATTACH)
                  70097830    000000b0     ltoQZamxA (.text.EnetUdma_getMappedRxChNum)
                  700978e0    000000b0     freertos.am64x.r5f.ti-arm-clang.release.lib : printf.obj (.text._ntoa_long_long)
                  70097990    000000ae                                                 : DebugP_uartScanf.obj (.text.DebugP_readLine)
                  70097a3e    00000002     --HOLE-- [fill = 0]
                  70097a40    000000ae                                                 : TaskP_freertos.obj (.text.TaskP_loadUpdateAll)
                  70097aee    00000002     --HOLE-- [fill = 0]
                  70097af0    000000ae                                                 : tasks.obj (.text.xTaskPriorityDisinherit)
                  70097b9e    00000002     --HOLE-- [fill = 0]
                  70097ba0    000000ac     enet-cpsw.am64x.r5f.ti-arm-clang.release.lib : cpsw_est.obj (.text.Cpsw_ioctlEst)
                  70097c4c    000000ac                                                  : enet_phymdio_dflt.obj (.text.EnetPhyMdioDflt_readC45)
                  70097cf8    000000ac     ltoQZamxA (.text.EnetPhy_setupManual)
                  70097da4    000000ac     enet-cpsw.am64x.r5f.ti-arm-clang.release.lib : enet_rm.obj (.text.EnetRm_ioctl)
                  70097e50    000000ac                                                  : mdio_ioctl.obj (.text.Mdio_ioctl_handler_ENET_MDIO_IOCTL_C22_READ)
                  70097efc    00000004                                                  : enet_rm.obj (.text.EnetRm_rejoin)
                  70097f00    000000aa     drivers.am64x.r5f.ti-arm-clang.release.lib : sciclient_rm_irq.obj (.text.Sciclient_rmIaValidateMapping)
                  70097faa    00000006     enet-cpsw.am64x.r5f.ti-arm-clang.release.lib : generic_phy.obj (.text.GenericPhy_reset)
                  70097fb0    000000aa     drivers.am64x.r5f.ti-arm-clang.release.lib : uart_v0.obj (.text.UART_procLineStatusErr)
                  7009805a    00000006     ltoQZamxA (.text.OUTLINED_FUNCTION_0)
                  70098060    000000aa     drivers.am64x.r5f.ti-arm-clang.release.lib : udma_rm.obj (.text.Udma_rmAllocMappedRxCh)
                  7009810a    00000006     ltoQZamxA (.text.OUTLINED_FUNCTION_108)
                  70098110    000000aa     drivers.am64x.r5f.ti-arm-clang.release.lib : udma_rm.obj (.text.Udma_rmAllocMappedTxCh)
                  700981ba    00000002     --HOLE-- [fill = 0]
                  700981bc    000000a8     enet-cpsw.am64x.r5f.ti-arm-clang.release.lib : cpsw_macport_est.obj (.text.CpswMacPort_ioctlEst)
                  70098264    000000a8                                                  : enet_phymdio_dflt.obj (.text.EnetPhyMdioDflt_readC22)
                  7009830c    00000004     ltoQZamxA (.text.EnetUtilsDflt_physToVirtDflt)
                  70098310    000000a6     drivers.am64x.r5f.ti-arm-clang.release.lib : i2c_v0.obj (.text.I2C_close)
                  700983b6    0000000a     ltoQZamxA (.text.OUTLINED_FUNCTION_112)
                  700983c0    000000a6     freertos.am64x.r5f.ti-arm-clang.release.lib : printf.obj (.text._out_rev)
                  70098466    000000a4     enet-cpsw.am64x.r5f.ti-arm-clang.release.lib : csl_cpsw.obj (.text.CSL_CPSW_setCpswControlReg)
                  7009850a    00000002     --HOLE-- [fill = 0]
                  7009850c    000000a4     ltoQZamxA (.text.CpswMacPortEst_ioctl_handler_CPSW_MACPORT_IOCTL_REGISTER_HANDLER)
                  700985b0    000000a4     enet-cpsw.am64x.r5f.ti-arm-clang.release.lib : enet_rm_ioctl.obj (.text.EnetRm_ioctl_handler_ENET_RM_IOCTL_FREE_MAC_ADDR)
                  70098654    000000a4     ltoQZamxA (.text.EnetUdma_ringDequeue)
                  700986f8    00000008     ltoQZamxA (.text.OUTLINED_FUNCTION_53)
                  70098700    000000a4     drivers.am64x.r5f.ti-arm-clang.release.lib : sciclient_pm.obj (.text.Sciclient_pmQueryModuleClkFreq)
                  700987a4    0000000c     ltoQZamxA (.text.OUTLINED_FUNCTION_45)
                  700987b0    000000a2     drivers.am64x.r5f.ti-arm-clang.release.lib : sciclient_rm_irq.obj (.text.Sciclient_rmIrInpIsFree)
                  70098852    0000000e     ltoQZamxA (.text.OUTLINED_FUNCTION_69)
                  70098860    000000a2     freertos.am64x.r5f.ti-arm-clang.release.lib : tasks.obj (.text.xTaskRemoveFromEventList)
                  70098902    00000002     --HOLE-- [fill = 0]
                  70098904    000000a0     ltoQZamxA (.text.CpswStats_ioctl_handler_CPSW_STATS_IOCTL_REGISTER_HANDLER)
                  700989a4    000000a0     ltoQZamxA (.text.EnetRm_ioctl_handler_ENET_RM_IOCTL_REGISTER_HANDLER)
                  70098a44    0000000c     ltoQZamxA (.text.OUTLINED_FUNCTION_71)
                  70098a50    000000a0     drivers.am64x.r5f.ti-arm-clang.release.lib : udma.obj (.text.Udma_init)
                  70098af0    000000a0                                                : udma_rm.obj (.text.Udma_rmAllocBlkCopyCh)
                  70098b90    000000a0                                                : udma_rm.obj (.text.Udma_rmAllocBlkCopyHcCh)
                  70098c30    000000a0                                                : udma_rm.obj (.text.Udma_rmAllocBlkCopyUhcCh)
                  70098cd0    000000a0                                                : udma_rm.obj (.text.Udma_rmAllocIrIntr)
                  70098d70    000000a0                                                : udma_rm.obj (.text.Udma_rmAllocRxCh)
                  70098e10    000000a0                                                : udma_rm.obj (.text.Udma_rmAllocRxHcCh)
                  70098eb0    000000a0                                                : udma_rm.obj (.text.Udma_rmAllocRxUhcCh)
                  70098f50    000000a0                                                : udma_rm.obj (.text.Udma_rmAllocTxCh)
                  70098ff0    000000a0                                                : udma_rm.obj (.text.Udma_rmAllocTxHcCh)
                  70099090    000000a0                                                : udma_rm.obj (.text.Udma_rmAllocTxUhcCh)
                  70099130    000000a0     libsysbm.a : memset32.S.obj (.text:memset)
                  700991d0    0000009c     ltoQZamxA (.text.CpswAle_ioctl_handler_CPSW_ALE_IOCTL_REGISTER_HANDLER)
                  7009926c    0000009c     ltoQZamxA (.text.CpswCpts_ioctl_handler_CPSW_CPTS_IOCTL_REGISTER_HANDLER)
                  70099308    0000009c     ltoQZamxA (.text.CpswHostPort_ioctl_handler_CPSW_HOSTPORT_IOCTL_REGISTER_HANDLER)
                  700993a4    0000009c     ltoQZamxA (.text.CpswMacPort_ioctl_handler_CPSW_MACPORT_IOCTL_REGISTER_HANDLER)
                  70099440    0000009c     enet-cpsw.am64x.r5f.ti-arm-clang.release.lib : enet_phymdio_dflt.obj (.text.EnetPhyMdioDflt_isAlive)
                  700994dc    0000009c                                                  : enet_phymdio_dflt.obj (.text.EnetPhyMdioDflt_isLinked)
                  70099578    00000008     ltoQZamxA (.text.OUTLINED_FUNCTION_57)
                  70099580    0000009a     drivers.am64x.r5f.ti-arm-clang.release.lib : sciclient.obj (.text.Sciclient_init)
                  7009961a    00000006     ltoQZamxA (.text.OUTLINED_FUNCTION_114)
                  70099620    0000009a     drivers.am64x.r5f.ti-arm-clang.release.lib : sciclient.obj (.text.Sciclient_sendMessage)
                  700996ba    00000002     --HOLE-- [fill = 0]
                  700996bc    00000098     ti_enet_config.obj (.text.EnetApp_coreAttach)
                  70099754    00000098     ltoQZamxA (.text.EnetPhy_findCommonNwayCaps)
                  700997ec    00000098     ltoQZamxA (.text.EnetRm_allocInternalRxFlowIdx)
                  70099884    00000098     ltoQZamxA (.text.EnetRm_allocResource)
                  7009991c    00000098     ltoQZamxA (.text.split)
                  700999b4    0000000c     ltoQZamxA (.text.OUTLINED_FUNCTION_73)
                  700999c0    00000096     freertos.am64x.r5f.ti-arm-clang.release.lib : tasks.obj (.text.vTaskGetInfo)
                  70099a56    00000002     --HOLE-- [fill = 0]
                  70099a58    00000094     ltoQZamxA (.text.Mdio_ioctl_handler_MDIO_IOCTL_REGISTER_HANDLER)
                  70099aec    00000004     ltoQZamxA (.text.EnetUtilsDflt_virtToPhysDflt)
                  70099af0    00000094     drivers.am64x.r5f.ti-arm-clang.release.lib : uart_v0.obj (.text.UART_init)
                  70099b84    0000000c     ltoQZamxA (.text.OUTLINED_FUNCTION_75)
                  70099b90    00000094     drivers.am64x.r5f.ti-arm-clang.release.lib : udma_rm.obj (.text.Udma_rmAllocMappedRing)
                  70099c24    0000000c     ltoQZamxA (.text.OUTLINED_FUNCTION_76)
                  70099c30    00000092     drivers.am64x.r5f.ti-arm-clang.release.lib : sciclient_pm.obj (.text.Sciclient_pmSetModuleClkFreq)
                  70099cc2    0000000e     ltoQZamxA (.text.OUTLINED_FUNCTION_70)
                  70099cd0    00000092     drivers.am64x.r5f.ti-arm-clang.release.lib : udma_ch.obj (.text.Udma_chClose)
                  70099d62    0000000c     ltoQZamxA (.text.OUTLINED_FUNCTION_77)
                  70099d6e    00000002     --HOLE-- [fill = 0]
                  70099d70    00000092     drivers.am64x.r5f.ti-arm-clang.release.lib : udma_event.obj (.text.Udma_eventFreeResource)
                  70099e02    00000002     --HOLE-- [fill = 0]
                  70099e04    00000090     ltoQZamxA (.text.CpswEst_ioctl_handler_CPSW_EST_IOCTL_REGISTER_HANDLER)
                  70099e94    00000090     ltoQZamxA (.text.EnetRm_initCoreResourceQ)
                  70099f24    0000000c     ltoQZamxA (.text.OUTLINED_FUNCTION_79)
                  70099f30    00000090     freertos.am64x.r5f.ti-arm-clang.release.lib : tasks.obj (.text.xTaskPriorityInherit)
                  70099fc0    0000008e     drivers.am64x.r5f.ti-arm-clang.release.lib : csl_pktdma.obj (.text.CSL_pktdmaTeardownChan)
                  7009a04e    00000002     --HOLE-- [fill = 0]
                  7009a050    0000008e                                                : uart_v0.obj (.text.UART_readCancelNoCB)
                  7009a0de    00000002     --HOLE-- [fill = 0]
                  7009a0e0    0000008e                                                : udma_ring_lcdma.obj (.text.Udma_ringSetCfgLcdma)
                  7009a16e    00000002     --HOLE-- [fill = 0]
                  7009a170    0000008e     freertos.am64x.r5f.ti-arm-clang.release.lib : port.obj (.text.pxPortInitialiseStack)
                  7009a1fe    00000002     --HOLE-- [fill = 0]
                  7009a200    0000008c     ti_enet_soc.obj (.text.EnetSoc_releaseIntrCfg)
                  7009a28c    0000008c     ti_enet_soc.obj (.text.EnetSoc_setupIntrCfg)
                  7009a318    0000008c     enet-cpsw.am64x.r5f.ti-arm-clang.release.lib : mdio_ioctl.obj (.text.Mdio_ioctl_handler_MDIO_IOCTL_HANDLE_INTR)
                  7009a3a4    0000000c     ltoQZamxA (.text.OUTLINED_FUNCTION_81)
                  7009a3b0    0000008c     freertos.am64x.r5f.ti-arm-clang.release.lib : printf.obj (.text._ntoa_long)
                  7009a43c    00000004     ltoQZamxA (.text.GenericPhy_isMacModeSupported)
                  7009a440    0000008a     drivers.am64x.r5f.ti-arm-clang.release.lib : udma_event.obj (.text.Udma_eventIsrFxn)
                  7009a4ca    00000002     --HOLE-- [fill = 0]
                  7009a4cc    00000088     ltoQZamxA (.text.EnetAppUtils_validatePacketState)
                  7009a554    00000088     enet-cpsw.am64x.r5f.ti-arm-clang.release.lib : enet.obj (.text.Enet_getDmaHandle)
                  7009a5dc    00000004     ltoQZamxA (.text.GenericPhy_isPhyDevSupported)
                  7009a5e0    00000088     drivers.am64x.r5f.ti-arm-clang.release.lib : udma_rm.obj (.text.Udma_rmGetSciclientDefaultBoardCfgRmRange)
                  7009a668    00000088     libc.a : fflush.c.obj (.text.__TI_doflush)
                  7009a6f0    00000086     enet-cpsw.am64x.r5f.ti-arm-clang.release.lib : csl_cpsw.obj (.text.CSL_CPSW_getCpswControlReg)
                  7009a776    0000000a     ltoQZamxA (.text.OUTLINED_FUNCTION_113)
                  7009a780    00000086     drivers.am64x.r5f.ti-arm-clang.release.lib : i2c_v0.obj (.text.I2CMasterInitExpClk)
                  7009a806    0000000a     ltoQZamxA (.text.OUTLINED_FUNCTION_115)
                  7009a810    00000086     freertos.am64x.r5f.ti-arm-clang.release.lib : timers.obj (.text.xTimerCreateTimerTask)
                  7009a896    00000002     --HOLE-- [fill = 0]
                  7009a898    00000084     enet-cpsw.am64x.r5f.ti-arm-clang.release.lib : enetphy.obj (.text.EnetPhy_rmwReg)
                  7009a91c    00000084                                                  : enet_rm_ioctl.obj (.text.EnetRm_ioctl_handler_ENET_RM_IOCTL_ALLOC_RX_FLOW)
                  7009a9a0    00000084                                                  : enet_udma_priv.obj (.text.EnetUdma_txCqIsr)
                  7009aa24    0000000c     ltoQZamxA (.text.OUTLINED_FUNCTION_86)
                  7009aa30    00000084     freertos.am64x.r5f.ti-arm-clang.release.lib : tasks.obj (.text.prvAddCurrentTaskToDelayedList)
                  7009aab4    00000080     enet-cpsw.am64x.r5f.ti-arm-clang.release.lib : csl_cpsw_ale_9g_tblcfg.obj (.text.CSL_CPSW_setAleVlanUnicastAddrEntry)
                  7009ab34    00000080                                                  : enet_udma_priv.obj (.text.EnetUdma_rxCqIsr)
                  7009abb4    0000000c     ltoQZamxA (.text.OUTLINED_FUNCTION_87)
                  7009abc0    00000080     freertos.am64x.r5f.ti-arm-clang.release.lib : queue.obj (.text.prvCopyDataToQueue)
                  7009ac40    00000080                                                 : queue.obj (.text.xQueueGenericReset)
                  7009acc0    00000080                                                 : timers.obj (.text.xTimerCreateStatic)
                  7009ad40    0000007e     drivers.am64x.r5f.ti-arm-clang.release.lib : csl_intaggr.obj (.text.CSL_intaggrSetIntrEnable)
                  7009adbe    00000002     --HOLE-- [fill = 0]
                  7009adc0    0000007c     enet-cpsw.am64x.r5f.ti-arm-clang.release.lib : cpsw_ioctl.obj (.text.Cpsw_internalIoctl_handler_ENET_PER_IOCTL_DETACH_CORE)
                  7009ae3c    0000007c                                                  : enet_queue.obj (.text.EnetQueue_enq)
                  7009aeb8    0000007c     ltoQZamxA (.text.EnetUdma_registerEvent)
                  7009af34    0000007c     libsysbm.a : hostrename.c.obj (.text.HOSTrename)
                  7009afb0    0000007c     drivers.am64x.r5f.ti-arm-clang.release.lib : sciclient_rm_irq.obj (.text.Sciclient_rmIrOutpIsFree)
                  7009b02c    00000004     ltoQZamxA (.text.Mdio_ioctl_handler_default)
                  7009b030    0000007c     drivers.am64x.r5f.ti-arm-clang.release.lib : sciclient_rm_irq.obj (.text.Sciclient_rmIrqGetNode)
                  7009b0ac    00000004     enet-cpsw.am64x.r5f.ti-arm-clang.release.lib : mdio.obj (.text.Mdio_rejoin)
                  7009b0b0    0000007a     drivers.am64x.r5f.ti-arm-clang.release.lib : sciclient_pm.obj (.text.Sciclient_pmGetModuleClkNumParent)
                  7009b12a    00000006     ltoQZamxA (.text.OUTLINED_FUNCTION_116)
                  7009b130    0000007a     drivers.am64x.r5f.ti-arm-clang.release.lib : sciclient_rm_irq.obj (.text.Sciclient_rmTranslateIntOutput)
                  7009b1aa    00000006     ltoQZamxA (.text.OUTLINED_FUNCTION_121)
                  7009b1b0    0000007a     freertos.am64x.r5f.ti-arm-clang.release.lib : timers.obj (.text.prvCheckForValidListAndQueue)
                  7009b22a    00000006     ltoQZamxA (.text.OUTLINED_FUNCTION_122)
                  7009b230    0000007a     freertos.am64x.r5f.ti-arm-clang.release.lib : tasks.obj (.text.prvIdleTask)
                  7009b2aa    00000002     --HOLE-- [fill = 0]
                  7009b2ac    00000078     enet-cpsw.am64x.r5f.ti-arm-clang.release.lib : csl_cpsw_ale_9g_tblcfg.obj (.text.CSL_CPSW_setAleUnicastAddrEntry)
                  7009b324    00000078                                                  : enetphy.obj (.text.EnetPhy_getId)
                  7009b39c    00000078                                                  : enet_rm_ioctl.obj (.text.EnetRm_ioctl_handler_ENET_RM_IOCTL_FREE_TX_CH_PEERID)
                  7009b414    0000000c     ltoQZamxA (.text.OUTLINED_FUNCTION_89)
                  7009b420    00000076     freertos.am64x.r5f.ti-arm-clang.release.lib : DebugP_freertos.obj (.text._DebugP_logZone)
                  7009b496    0000000a     ltoQZamxA (.text.OUTLINED_FUNCTION_117)
                  7009b4a0    00000076     freertos.am64x.r5f.ti-arm-clang.release.lib : timers.obj (.text.xTimerGenericCommand)
                  7009b516    00000002     --HOLE-- [fill = 0]
                  7009b518    00000074     ltoQZamxA (.text.Cpsw_setupEstf)
                  7009b58c    00000074     enet-cpsw.am64x.r5f.ti-arm-clang.release.lib : enet.obj (.text.EnetMod_ioctl)
                  7009b600    00000074                                                  : enet_queue.obj (.text.EnetQueue_deq)
                  7009b674    00000074     libc.a : atoi.c.obj (.text.atoi)
                  7009b6e8    00000008     ltoQZamxA (.text.OUTLINED_FUNCTION_6)
                  7009b6f0    00000072     drivers.am64x.r5f.ti-arm-clang.release.lib : udma_rm.obj (.text.Udma_rmAllocVintrBit)
                  7009b762    0000000c     ltoQZamxA (.text.OUTLINED_FUNCTION_92)
                  7009b76e    00000002     --HOLE-- [fill = 0]
                  7009b770    00000072     freertos.am64x.r5f.ti-arm-clang.release.lib : queue.obj (.text.prvUnlockQueue)
                  7009b7e2    00000002     --HOLE-- [fill = 0]
                  7009b7e4    00000070     ltoQZamxA (.text.EnetAppUtils_reduceCoreMacAllocation)
                  7009b854    00000070     ltoQZamxA (.text.EnetMem_allocEthPkt)
                  7009b8c4    00000070     ltoQZamxA (.text.EnetOsalDflt_createMutex)
                  7009b934    00000070     ltoQZamxA (.text.EnetRm_getFreeQ)
                  7009b9a4    00000070     enet-cpsw.am64x.r5f.ti-arm-clang.release.lib : enet_rm_ioctl.obj (.text.EnetRm_ioctl_handler_ENET_RM_IOCTL_INTERNAL_FREE_RX_FLOW)
                  7009ba14    00000070     ltoQZamxA (.text.Enet_getHandles)
                  7009ba84    0000000c     ltoQZamxA (.text.OUTLINED_FUNCTION_93)
                  7009ba90    00000070     freertos.am64x.r5f.ti-arm-clang.release.lib : SemaphoreP_freertos.obj (.text.SemaphoreP_constructBinary)
                  7009bb00    00000070                                                 : queue.obj (.text.xQueueCreateCountingSemaphoreStatic)
                  7009bb70    0000006e     drivers.am64x.r5f.ti-arm-clang.release.lib : csl_pktdma.obj (.text.CSL_pktdmaAccessChanPeerReg)
                  7009bbde    00000002     --HOLE-- [fill = 0]
                  7009bbe0    0000006e                                                : soc.obj (.text.SOC_moduleClockEnable)
                  7009bc4e    00000002     --HOLE-- [fill = 0]
                  7009bc50    0000006e                                                : sciclient_pm.obj (.text.Sciclient_pmGetModuleState)
                  7009bcbe    00000002     --HOLE-- [fill = 0]
                  7009bcc0    0000006c     enet-cpsw.am64x.r5f.ti-arm-clang.release.lib : cpsw_ioctl.obj (.text.Cpsw_internalIoctl_handler_ENET_PER_IOCTL_IS_PORT_LINK_UP)
                  7009bd2c    0000006c                                                  : enetphy.obj (.text.EnetPhy_isAlive)
                  7009bd98    0000006c                                                  : enet_udma_priv.obj (.text.EnetUdma_dmaDescEnque)
                  7009be04    0000006c     libsysbm.a : hostopen.c.obj (.text.HOSTopen)
                  7009be70    0000006c     drivers.am64x.r5f.ti-arm-clang.release.lib : soc.obj (.text.SOC_isR5FDualCoreMode)
                  7009bedc    0000006a     enet-cpsw.am64x.r5f.ti-arm-clang.release.lib : csl_cpsw.obj (.text.CSL_CPSW_setPTypeReg)
                  7009bf46    0000000a     ltoQZamxA (.text.OUTLINED_FUNCTION_119)
                  7009bf50    0000006a     freertos.am64x.r5f.ti-arm-clang.release.lib : timers.obj (.text.prvInitialiseNewTimer)
                  7009bfba    00000006     ltoQZamxA (.text.OUTLINED_FUNCTION_124)
                  7009bfc0    00000068     freertos.am64x.r5f.ti-arm-clang.release.lib : AddrTranslateP.obj (.text.AddrTranslateP_getLocalAddr)
                  7009c028    00000068     enet-cpsw.am64x.r5f.ti-arm-clang.release.lib : csl_cpsw.obj (.text.CSL_CPSW_setPortEstConfig)
                  7009c090    00000068     ltoQZamxA (.text.EnetAppUtils_setDeviceState)
                  7009c0f8    00000068     enet-cpsw.am64x.r5f.ti-arm-clang.release.lib : enet_rm.obj (.text.EnetRm_freeResource)
                  7009c160    00000068                                                  : mdio.obj (.text.Mdio_close)
                  7009c1c8    00000008     ltoQZamxA (.text.OUTLINED_FUNCTION_74)
                  7009c1d0    00000068     drivers.am64x.r5f.ti-arm-clang.release.lib : uart_v0.obj (.text.UART_writeCancelNoCB)
                  7009c238    00000068     ltoQZamxA (.text.__aeabi_assert)
                  7009c2a0    00000068     main.obj (.text.main)
                  7009c308    00000008     ltoQZamxA (.text.OUTLINED_FUNCTION_80)
                  7009c310    00000066     drivers.am64x.r5f.ti-arm-clang.release.lib : sciclient_pm.obj (.text.Sciclient_pmGetModuleClkFreq)
                  7009c376    0000000a     ltoQZamxA (.text.OUTLINED_FUNCTION_120)
                  7009c380    00000066     drivers.am64x.r5f.ti-arm-clang.release.lib : sciclient_pm.obj (.text.Sciclient_pmGetModuleClkParent)
                  7009c3e6    0000000a     ltoQZamxA (.text.OUTLINED_FUNCTION_123)
                  7009c3f0    00000064     drivers.am64x.r5f.ti-arm-clang.release.lib : csl_bcdma.obj (.text.CSL_bcdmaDoChanOp)
                  7009c454    00000064     ltoQZamxA (.text.EnetRm_freeInternalRxFlowIdx)
                  7009c4b8    00000064     libsysbm.a : hostlseek.c.obj (.text.HOSTlseek)
                  7009c51c    00000004     ti_dpl_config.obj (.text.putchar_)
                  7009c520    00000064     drivers.am64x.r5f.ti-arm-clang.release.lib : sciclient_pm.obj (.text.Sciclient_pmModuleGetClkStatus)
                  7009c584    0000000c     ltoQZamxA (.text.OUTLINED_FUNCTION_97)
                  7009c590    00000064     drivers.am64x.r5f.ti-arm-clang.release.lib : udma_ring_lcdma.obj (.text.Udma_ringFlushRawLcdma)
                  7009c5f4    0000000c     ltoQZamxA (.text.OUTLINED_FUNCTION_99)
                  7009c600    00000064     freertos.am64x.r5f.ti-arm-clang.release.lib : PmuP_armv7r.obj (.text.pmu)
                  7009c664    0000000c     libc.a : assert.c.obj (.text._abort_msg)
                  7009c670    00000064     freertos.am64x.r5f.ti-arm-clang.release.lib : queue.obj (.text.vQueueDelete)
                  7009c6d4    0000000c     libc.a : memory.c.obj (.text.malloc)
                  7009c6e0    00000062     drivers.am64x.r5f.ti-arm-clang.release.lib : udma_ring_common.obj (.text.Udma_ringFree)
                  7009c742    00000002     --HOLE-- [fill = 0]
                  7009c744    0000000c     freertos.am64x.r5f.ti-arm-clang.release.lib : CpuId_armv7r_asm.obj (.text)
                  7009c750    00000062     drivers.am64x.r5f.ti-arm-clang.release.lib : udma_ring_common.obj (.text.Udma_ringQueueRaw)
                  7009c7b2    00000002     --HOLE-- [fill = 0]
                  7009c7b4    00000060     enet-cpsw.am64x.r5f.ti-arm-clang.release.lib : cpsw_macport_est_ioctl.obj (.text.CpswMacPortEst_ioctl_handler_ENET_TAS_IOCTL_SET_STATE)
                  7009c814    00000060     ltoQZamxA (.text.EnetAppUtils_mainMmrCtrl)
                  7009c874    0000000a     ltoQZamxA (.text.OUTLINED_FUNCTION_125)
                  7009c87e    00000002     --HOLE-- [fill = 0]
                  7009c880    00000060     drivers.am64x.r5f.ti-arm-clang.release.lib : i2c_v0.obj (.text.I2C_waitForPin)
                  7009c8e0    00000060     ltoQZamxA (.text.Mdio_manualModePhyRegAddWriteC45)
                  7009c940    00000060     drivers.am64x.r5f.ti-arm-clang.release.lib : udma_rm.obj (.text.Udma_rmFreeMappedRing)
                  7009c9a0    0000005e                                                : sciclient_pm.obj (.text.Sciclient_pmModuleClkRequest)
                  7009c9fe    00000002     --HOLE-- [fill = 0]
                  7009ca00    0000005e                                                : sciclient_pm.obj (.text.Sciclient_pmSetModuleClkParent)
                  7009ca5e    00000002     --HOLE-- [fill = 0]
                  7009ca60    0000005c                                                : csl_bcdma.obj (.text.CSL_bcdmaChanOpGetChanStats)
                  7009cabc    00000004     libc.a : sscanf.c.obj (.text.vsscanf)
                  7009cac0    0000005c     drivers.am64x.r5f.ti-arm-clang.release.lib : csl_bcdma.obj (.text.CSL_bcdmaChanOpSetChanPause)
                  7009cb1c    0000005c     enet-cpsw.am64x.r5f.ti-arm-clang.release.lib : enet.obj (.text.EnetMod_close)
                  7009cb78    0000005c                                                  : enet_udma.obj (.text.EnetUdma_close)
                  7009cbd4    0000005c                                                  : generic_phy.obj (.text.GenericPhy_readExtReg)
                  7009cc30    0000005c     ltoQZamxA (.text.OUTLINED_FUNCTION_4)
                  7009cc8c    00000004     libclang_rt.builtins.a : aeabi_memcpy.S.obj (.text)
                  7009cc90    0000005c     drivers.am64x.r5f.ti-arm-clang.release.lib : udma_rm.obj (.text.Udma_rmAllocEvent)
                  7009ccec    00000004     --HOLE-- [fill = 0]
                  7009ccf0    0000005c                                                : udma_rm.obj (.text.Udma_rmAllocVintr)
                  7009cd4c    00000004     --HOLE-- [fill = 0]
                  7009cd50    0000005c     freertos.am64x.r5f.ti-arm-clang.release.lib : DebugP_log.obj (.text._DebugP_assert)
                  7009cdac    00000004     --HOLE-- [fill = 0]
                  7009cdb0    0000005a     drivers.am64x.r5f.ti-arm-clang.release.lib : i2c_v0.obj (.text.I2C_completeCurrTransfer)
                  7009ce0a    00000006     ltoQZamxA (.text.OUTLINED_FUNCTION_134)
                  7009ce10    0000005a     drivers.am64x.r5f.ti-arm-clang.release.lib : udma_flow.obj (.text.Udma_flowAttachMapped)
                  7009ce6a    00000006     ltoQZamxA (.text.OUTLINED_FUNCTION_18)
                  7009ce70    0000005a     drivers.am64x.r5f.ti-arm-clang.release.lib : udma_ring_common.obj (.text.Udma_ringDequeueRaw)
                  7009ceca    00000002     --HOLE-- [fill = 0]
                  7009cecc    00000058     ltoQZamxA (.text.CpswAle_delIPv6HighEntry)
                  7009cf24    00000058     enet-cpsw.am64x.r5f.ti-arm-clang.release.lib : cpsw_stats_ioctl.obj (.text.CpswStats_ioctl_handler_ENET_STATS_IOCTL_GET_MACPORT_STATS)
                  7009cf7c    00000058                                                  : cpsw_stats.obj (.text.CpswStats_resetHostStats)
                  7009cfd4    00000058     libsysbm.a : hostread.c.obj (.text.HOSTread)
                  7009d02c    00000004     --HOLE-- [fill = 0]
                  7009d030    00000058     freertos.am64x.r5f.ti-arm-clang.release.lib : SemaphoreP_freertos.obj (.text.SemaphoreP_constructCounting)
                  7009d088    00000008     ltoQZamxA (.text.OUTLINED_FUNCTION_82)
                  7009d090    00000058     freertos.am64x.r5f.ti-arm-clang.release.lib : SemaphoreP_freertos.obj (.text.SemaphoreP_pend)
                  7009d0e8    00000058     libsysbm.a : trgmsg.c.obj (.text.__TI_readmsg)
                  7009d140    00000058                : trgmsg.c.obj (.text.__TI_writemsg)
                  7009d198    00000058     libc.a : sprintf.c.obj (.text.sprintf)
                  7009d1f0    00000058     freertos.am64x.r5f.ti-arm-clang.release.lib : tasks.obj (.text.vTaskPlaceOnEventListRestricted)
                  7009d248    00000008     ltoQZamxA (.text.OUTLINED_FUNCTION_84)
                  7009d250    00000056     drivers.am64x.r5f.ti-arm-clang.release.lib : uart_dma.obj (.text.UART_dmaDisableChannel)
                  7009d2a6    0000000a     ltoQZamxA (.text.OUTLINED_FUNCTION_126)
                  7009d2b0    00000056     freertos.am64x.r5f.ti-arm-clang.release.lib : tasks.obj (.text.vTaskDelay)
                  7009d306    0000000a     ltoQZamxA (.text.OUTLINED_FUNCTION_127)
                  7009d310    00000054     drivers.am64x.r5f.ti-arm-clang.release.lib : csl_bcdma.obj (.text.CSL_bcdmaChanOpGetChanRT)
                  7009d364    0000000a     ltoQZamxA (.text.OUTLINED_FUNCTION_128)
                  7009d36e    00000002     --HOLE-- [fill = 0]
                  7009d370    00000054     drivers.am64x.r5f.ti-arm-clang.release.lib : csl_intaggr.obj (.text.CSL_intaggrIsIntrPending)
                  7009d3c4    00000054     enet-cpsw.am64x.r5f.ti-arm-clang.release.lib : cpsw_macport_ioctl.obj (.text.CpswMacPort_ioctl_handler_ENET_TAS_IOCTL_SET_STATE)
                  7009d418    00000054     ltoQZamxA (.text.EnetDma_submitRxPktQ)
                  7009d46c    00000054     enet-cpsw.am64x.r5f.ti-arm-clang.release.lib : enet_appmemutils.obj (.text.EnetMem_allocRingMem)
                  7009d4c0    00000054     ti_enet_soc.obj (.text.EnetSoc_getIntrNum)
                  7009d514    0000000a     ltoQZamxA (.text.OUTLINED_FUNCTION_129)
                  7009d51e    00000002     --HOLE-- [fill = 0]
                  7009d520    00000054     drivers.am64x.r5f.ti-arm-clang.release.lib : sciclient_rm.obj (.text.Sciclient_rmGetResourceRange)
                  7009d574    0000000a     ltoQZamxA (.text.OUTLINED_FUNCTION_130)
                  7009d57e    00000002     --HOLE-- [fill = 0]
                  7009d580    00000054     drivers.am64x.r5f.ti-arm-clang.release.lib : uart_dma.obj (.text.UART_dmaClose)
                  7009d5d4    00000052     enet-cpsw.am64x.r5f.ti-arm-clang.release.lib : csl_cpsw.obj (.text.CSL_CPSW_getPTypeReg)
                  7009d626    0000000a     ltoQZamxA (.text.OUTLINED_FUNCTION_131)
                  7009d630    00000052     drivers.am64x.r5f.ti-arm-clang.release.lib : sciclient_pm.obj (.text.Sciclient_pmSetModuleState)
                  7009d682    0000000a     ltoQZamxA (.text.OUTLINED_FUNCTION_132)
                  7009d68c    00000004     --HOLE-- [fill = 0]
                  7009d690    00000052     freertos.am64x.r5f.ti-arm-clang.release.lib : SemaphoreP_freertos.obj (.text.SemaphoreP_constructMutex)
                  7009d6e2    0000000a     ltoQZamxA (.text.OUTLINED_FUNCTION_133)
                  7009d6ec    00000004     --HOLE-- [fill = 0]
                  7009d6f0    00000052     freertos.am64x.r5f.ti-arm-clang.release.lib : SemaphoreP_freertos.obj (.text.SemaphoreP_post)
                  7009d742    0000000a     ltoQZamxA (.text.OUTLINED_FUNCTION_135)
                  7009d74c    00000004     --HOLE-- [fill = 0]
                  7009d750    00000052     freertos.am64x.r5f.ti-arm-clang.release.lib : TaskP_freertos.obj (.text.TaskP_destruct)
                  7009d7a2    0000000a     ltoQZamxA (.text.OUTLINED_FUNCTION_136)
                  7009d7ac    00000004     --HOLE-- [fill = 0]
                  7009d7b0    00000052     freertos.am64x.r5f.ti-arm-clang.release.lib : queue.obj (.text.xQueueGiveMutexRecursive)
                  7009d802    0000000a     ltoQZamxA (.text.OUTLINED_FUNCTION_17)
                  7009d80c    00000004     --HOLE-- [fill = 0]
                  7009d810    00000050     drivers.am64x.r5f.ti-arm-clang.release.lib : csl_bcdma.obj (.text.CSL_bcdmaChanOpDecChanStats)
                  7009d860    00000050     enet-cpsw.am64x.r5f.ti-arm-clang.release.lib : cpsw.obj (.text.Cpsw_rejoin)
                  7009d8b0    00000050     ltoQZamxA (.text.EnetDma_checkPktState.588)
                  7009d900    00000050     enet-cpsw.am64x.r5f.ti-arm-clang.release.lib : enet_udma.obj (.text.EnetDma_retrieveRxPktQ)
                  7009d950    00000050                                                  : enet_udma.obj (.text.EnetDma_retrieveTxPktQ)
                  7009d9a0    00000050     ltoQZamxA (.text.EnetOsalDflt_deleteMutex)
                  7009d9f0    00000050     ltoQZamxA (.text.EnetOsalDflt_unregisterIntr)
                  7009da40    00000050     enet-cpsw.am64x.r5f.ti-arm-clang.release.lib : enet_trace.obj (.text.EnetTrace_trace)
                  7009da90    00000050                                                  : generic_phy.obj (.text.GenericPhy_writeExtReg)
                  7009dae0    00000050     ltoQZamxA (.text.OUTLINED_FUNCTION_7)
                  7009db30    00000050     drivers.am64x.r5f.ti-arm-clang.release.lib : sciclient_soc_priv.obj (.text.Sciclient_getContext)
                  7009db80    00000050                                                : udma_rm.obj (.text.Udma_rmFreeVintrBit)
                  7009dbd0    00000050     freertos.am64x.r5f.ti-arm-clang.release.lib : tasks.obj (.text.prvDeleteTCB)
                  7009dc20    00000050     libc.a : autoinit.c.obj (.text:__TI_auto_init_nobinit_nopinit)
                  7009dc70    0000004e     drivers.am64x.r5f.ti-arm-clang.release.lib : udma_ch.obj (.text.UdmaChTxPrms_init)
                  7009dcbe    00000002     --HOLE-- [fill = 0]
                  7009dcc0    0000004e                                                : udma_soc.obj (.text.Udma_getMappedChRingAttributes)
                  7009dd0e    00000002     --HOLE-- [fill = 0]
                  7009dd10    0000004e     freertos.am64x.r5f.ti-arm-clang.release.lib : tasks.obj (.text.vTaskPlaceOnEventList)
                  7009dd5e    00000002     --HOLE-- [fill = 0]
                  7009dd60    0000004e                                                 : queue.obj (.text.xQueueTakeMutexRecursive)
                  7009ddae    00000002     --HOLE-- [fill = 0]
                  7009ddb0    0000004c                                                 : ClockP_freertos.obj (.text.ClockP_getTimeUsec)
                  7009ddfc    0000004c     enet-cpsw.am64x.r5f.ti-arm-clang.release.lib : cpsw_ale_ioctl.obj (.text.CpswAle_ioctl_handler_CPSW_ALE_IOCTL_GET_DEFAULT_THREADCFG)
                  7009de48    0000004c                                                  : cpsw_ale.obj (.text.CpswAle_setPolicerDefaultThreadCfg)
                  7009de94    0000004c     libsysbm.a : hostwrite.c.obj (.text.HOSTwrite)
                  7009dee0    0000004c     drivers.am64x.r5f.ti-arm-clang.release.lib : udma_ring_lcdma.obj (.text.Udma_ringSetDoorBellLcdma)
                  7009df2c    0000004a     enet-cpsw.am64x.r5f.ti-arm-clang.release.lib : csl_cpsw.obj (.text.CSL_CPSW_getTxMaxLenPerPriority)
                  7009df76    0000004a     ltoQZamxA (.text.CpswMacPort_reset)
                  7009dfc0    0000004a     drivers.am64x.r5f.ti-arm-clang.release.lib : udma_ch.obj (.text.UdmaChPrms_init)
                  7009e00a    00000006     ltoQZamxA (.text.OUTLINED_FUNCTION_1)
                  7009e010    0000004a     drivers.am64x.r5f.ti-arm-clang.release.lib : udma_rm.obj (.text.Udma_rmFreeMappedRxCh)
                  7009e05a    00000006     ltoQZamxA (.text.OUTLINED_FUNCTION_22)
                  7009e060    0000004a     drivers.am64x.r5f.ti-arm-clang.release.lib : udma_rm.obj (.text.Udma_rmFreeMappedTxCh)
                  7009e0aa    00000006     ltoQZamxA (.text.OUTLINED_FUNCTION_28)
                  7009e0b0    00000048     drivers.am64x.r5f.ti-arm-clang.release.lib : csl_bcdma.obj (.text.CSL_bcdmaChanOpSetChanRT)
                  7009e0f8    00000008     ltoQZamxA (.text.OUTLINED_FUNCTION_85)
                  7009e100    00000048     drivers.am64x.r5f.ti-arm-clang.release.lib : csl_intaggr.obj (.text.CSL_intaggrClrIntr)
                  7009e148    00000048     enet-cpsw.am64x.r5f.ti-arm-clang.release.lib : cpsw_ioctl.obj (.text.Cpsw_internalIoctl_handler_ENET_IOCTL_REGISTER_RX_DEFAULT_FLOW)
                  7009e190    00000048     ltoQZamxA (.text.EnetApp_macMode2MacMii)
                  7009e1d8    00000048     ltoQZamxA (.text.EnetDma_checkPktState)
                  7009e220    00000048     ltoQZamxA (.text.EnetPhy_getLocalCaps)
                  7009e268    00000048     enet-cpsw.am64x.r5f.ti-arm-clang.release.lib : enet_utils.obj (.text.EnetUtils_printf)
                  7009e2b0    00000048     drivers.am64x.r5f.ti-arm-clang.release.lib : udma_ch.obj (.text.UdmaChRxPrms_init)
                  7009e2f8    00000046     ltoQZamxA (.text.OUTLINED_FUNCTION_8)
                  7009e33e    00000002     --HOLE-- [fill = 0]
                  7009e340    00000046     drivers.am64x.r5f.ti-arm-clang.release.lib : sciclient_procboot.obj (.text.Sciclient_procBootGetProcessorState)
                  7009e386    0000000a     ltoQZamxA (.text.OUTLINED_FUNCTION_21)
                  7009e390    00000046     freertos.am64x.r5f.ti-arm-clang.release.lib : queue.obj (.text.vQueueWaitForMessageRestricted)
                  7009e3d6    00000002     --HOLE-- [fill = 0]
                  7009e3d8    00000044     enet-cpsw.am64x.r5f.ti-arm-clang.release.lib : csl_cpsw_ale_9g_tblcfg.obj (.text.CSL_CPSW_getALEPolicerEntryType)
                  7009e41c    00000044                                                  : cpsw_stats_ioctl.obj (.text.CpswStats_ioctl_handler_ENET_STATS_IOCTL_GET_HOSTPORT_STATS)
                  7009e460    00000044                                                  : cpsw_ioctl.obj (.text.Cpsw_internalIoctl_handler_ENET_IOCTL_UNREGISTER_RX_DEFAULT_FLOW)
                  7009e4a4    00000044     ltoQZamxA (.text.EnetAppUtils_clkRateSetState)
                  7009e4e8    00000044     enet-cpsw.am64x.r5f.ti-arm-clang.release.lib : enet_queue.obj (.text.EnetQueue_getQCount)
                  7009e52c    00000044                                                  : enet_rm_ioctl.obj (.text.EnetRm_ioctl_handler_ENET_RM_IOCTL_VALIDATE_RX_FLOW)
                  7009e570    00000044     ltoQZamxA (.text.EnetSoc_getMacPortMii)
                  7009e5b4    00000044     enet-cpsw.am64x.r5f.ti-arm-clang.release.lib : enet.obj (.text.Enet_getHandleInfo)
                  7009e5f8    00000044                                                  : mdio_ioctl.obj (.text.Mdio_ioctl_handler_ENET_MDIO_IOCTL_IS_LINKED)
                  7009e63c    00000004     --HOLE-- [fill = 0]
                  7009e640    00000044     drivers.am64x.r5f.ti-arm-clang.release.lib : sciclient_pm.obj (.text.Sciclient_pmSetModuleRst)
                  7009e684    0000000a     ltoQZamxA (.text.OUTLINED_FUNCTION_26)
                  7009e68e    00000002     --HOLE-- [fill = 0]
                  7009e690    00000044     drivers.am64x.r5f.ti-arm-clang.release.lib : sciclient_rm_irq.obj (.text.Sciclient_rmIrqUnmappedVintRouteDelete)
                  7009e6d4    00000044     ltoQZamxA (.text.free_list_insert)
                  7009e718    00000008     ltoQZamxA (.text.OUTLINED_FUNCTION_91)
                  7009e720    00000042     drivers.am64x.r5f.ti-arm-clang.release.lib : sciclient_rm.obj (.text.Sciclient_rmIrqReleaseRaw)
                  7009e762    0000000a     ltoQZamxA (.text.OUTLINED_FUNCTION_38)
                  7009e76c    00000004     --HOLE-- [fill = 0]
                  7009e770    00000042     drivers.am64x.r5f.ti-arm-clang.release.lib : sciclient_rm.obj (.text.Sciclient_rmPsilPair)
                  7009e7b2    0000000a     ltoQZamxA (.text.OUTLINED_FUNCTION_39)
                  7009e7bc    00000004     --HOLE-- [fill = 0]
                  7009e7c0    00000042     drivers.am64x.r5f.ti-arm-clang.release.lib : sciclient_rm.obj (.text.Sciclient_rmPsilUnpair)
                  7009e802    00000002     --HOLE-- [fill = 0]
                  7009e804    00000040     ti_board_open_close.obj (.text.Board_eepromOpen)
                  7009e844    00000040     enet-cpsw.am64x.r5f.ti-arm-clang.release.lib : csl_cpsw_ale_9g_tblcfg.obj (.text.CSL_CPSW_mapTableWord2MacAddr)
                  7009e884    00000040                                                  : csl_cpsw.obj (.text.CSL_CPSW_setAlePolicerControlReg)
                  7009e8c4    0000000a     ltoQZamxA (.text.OUTLINED_FUNCTION_49)
                  7009e8ce    00000002     --HOLE-- [fill = 0]
                  7009e8d0    00000040     drivers.am64x.r5f.ti-arm-clang.release.lib : csl_bcdma.obj (.text.CSL_bcdmaChanOpSetBurstSize)
                  7009e910    00000040     ltoQZamxA (.text.CpswAle_getFreeEntry)
                  7009e950    00000040     enet-cpsw.am64x.r5f.ti-arm-clang.release.lib : cpsw_hostport.obj (.text.CpswHostPort_close)
                  7009e990    00000040     ltoQZamxA (.text.Cpsw_mdioIsr)
                  7009e9d0    00000040     ti_dpl_config.obj (.text.Dpl_init)
                  7009ea10    00000040     ltoQZamxA (.text.EnetDma_checkDescState)
                  7009ea50    00000040     enet-cpsw.am64x.r5f.ti-arm-clang.release.lib : enetphy.obj (.text.EnetPhy_getLinkCfg)
                  7009ea90    00000040                                                  : enet_rm_ioctl.obj (.text.EnetRm_ioctl_handler_ENET_RM_IOCTL_FREE_RX_FLOW)
                  7009ead0    00000040     drivers.am64x.r5f.ti-arm-clang.release.lib : i2c_v0.obj (.text.I2C_init)
                  7009eb10    00000040     ltoQZamxA (.text.Mdio_manualModeSendPreamble)
                  7009eb50    00000040     drivers.am64x.r5f.ti-arm-clang.release.lib : sciclient_rm.obj (.text.Sciclient_rmIrqSetRaw)
                  7009eb90    00000040                                                : sciclient_rm.obj (.text.Sciclient_rmRingCfg)
                  7009ebd0    00000040                                                : sciclient_rm.obj (.text.Sciclient_rmUdmapFlowCfg)
                  7009ec10    00000040                                                : sciclient_rm.obj (.text.Sciclient_rmUdmapFlowSizeThreshCfg)
                  7009ec50    00000040                                                : sciclient_rm.obj (.text.Sciclient_rmUdmapRxChCfg)
                  7009ec90    00000040                                                : sciclient_rm.obj (.text.Sciclient_rmUdmapTxChCfg)
                  7009ecd0    00000040                                                : udma_rm.obj (.text.Udma_rmFreeBlkCopyCh)
                  7009ed10    00000040                                                : udma_rm.obj (.text.Udma_rmFreeBlkCopyHcCh)
                  7009ed50    00000040                                                : udma_rm.obj (.text.Udma_rmFreeBlkCopyUhcCh)
                  7009ed90    00000040                                                : udma_rm.obj (.text.Udma_rmFreeEvent)
                  7009edd0    00000040                                                : udma_rm.obj (.text.Udma_rmFreeIrIntr)
                  7009ee10    00000040                                                : udma_rm.obj (.text.Udma_rmFreeRxCh)
                  7009ee50    00000040                                                : udma_rm.obj (.text.Udma_rmFreeRxHcCh)
                  7009ee90    00000040                                                : udma_rm.obj (.text.Udma_rmFreeRxUhcCh)
                  7009eed0    00000040                                                : udma_rm.obj (.text.Udma_rmFreeTxCh)
                  7009ef10    00000040                                                : udma_rm.obj (.text.Udma_rmFreeTxHcCh)
                  7009ef50    00000040                                                : udma_rm.obj (.text.Udma_rmFreeTxUhcCh)
                  7009ef90    00000040                                                : udma_rm.obj (.text.Udma_rmFreeVintr)
                  7009efd0    00000040     freertos.am64x.r5f.ti-arm-clang.release.lib : timers.obj (.text.prvInsertTimerInActiveList)
                  7009f010    0000003e                                                 : ClockP_freertos.obj (.text.ClockP_stop)
                  7009f04e    00000002     --HOLE-- [fill = 0]
                  7009f050    0000003e     drivers.am64x.r5f.ti-arm-clang.release.lib : soc.obj (.text.SOC_controlModuleUnlockMMR)
                  7009f08e    00000002     --HOLE-- [fill = 0]
                  7009f090    0000003e                                                : udma_flow.obj (.text.UdmaFlowPrms_init)
                  7009f0ce    00000002     --HOLE-- [fill = 0]
                  7009f0d0    0000003e                                                : udma_ring_common.obj (.text.Udma_ringFlushRaw)
                  7009f10e    0000003c     enet-cpsw.am64x.r5f.ti-arm-clang.release.lib : csl_cpsw.obj (.text.CSL_CPSW_getAleStatusNumPolicers)
                  7009f14a    00000006     ltoQZamxA (.text.OUTLINED_FUNCTION_32)
                  7009f150    0000003c     drivers.am64x.r5f.ti-arm-clang.release.lib : csl_bcdma.obj (.text.CSL_bcdmaGetCfg)
                  7009f18c    0000003c     ltoQZamxA (.text.EnetBoard_findPortCfg)
                  7009f1c8    0000003c     enet-cpsw.am64x.r5f.ti-arm-clang.release.lib : enet_appmemutils.obj (.text.EnetMem_allocDmaDesc)
                  7009f204    0000003c                                                  : enet.obj (.text.Enet_getHandle)
                  7009f240    0000003c     libsysbm.a : hostunlink.c.obj (.text.HOSTunlink)
                  7009f27c    00000004     --HOLE-- [fill = 0]
                  7009f280    0000003c     drivers.am64x.r5f.ti-arm-clang.release.lib : udma_ring_lcdma.obj (.text.Udma_ringPrimeReadLcdma)
                  7009f2bc    0000003c     libc.a : fopen.c.obj (.text.__TI_cleanup)
                  7009f2f8    00000008     ltoQZamxA (.text.OUTLINED_FUNCTION_94)
                  7009f300    0000003c     freertos.am64x.r5f.ti-arm-clang.release.lib : TaskP_freertos.obj (.text.vApplicationLoadHook)
                  7009f33c    00000004     --HOLE-- [fill = 0]
                  7009f340    0000003c                                                 : tasks.obj (.text.xTaskGetIdleTaskHandle)
                  7009f37c    00000004     --HOLE-- [fill = 0]
                  7009f380    0000003a                                                 : DebugP_uartLogWriter.obj (.text.DebugP_uartLogWriterPutChar)
                  7009f3ba    00000006     ltoQZamxA (.text.OUTLINED_FUNCTION_37)
                  7009f3c0    0000003a     board.am64x.r5f.ti-arm-clang.release.lib : eeprom.obj (.text.EEPROM_open)
                  7009f3fa    0000003a     enet-cpsw.am64x.r5f.ti-arm-clang.release.lib : enet_udma.obj (.text.EnetDma_initPktInfo)
                  7009f434    0000003a     ltoQZamxA (.text.EnetPhy_initState)
                  7009f46e    00000002     --HOLE-- [fill = 0]
                  7009f470    0000003a     drivers.am64x.r5f.ti-arm-clang.release.lib : uart_dma.obj (.text.UART_dmaOpen)
                  7009f4aa    00000006     ltoQZamxA (.text.OUTLINED_FUNCTION_3)
                  7009f4b0    0000003a     freertos.am64x.r5f.ti-arm-clang.release.lib : timers.obj (.text.pvTimerGetTimerID)
                  7009f4ea    00000006     ltoQZamxA (.text.OUTLINED_FUNCTION_40)
                  7009f4f0    0000003a     freertos.am64x.r5f.ti-arm-clang.release.lib : list.obj (.text.vListInsert)
                  7009f52a    00000002     --HOLE-- [fill = 0]
                  7009f52c    00000038     enet-cpsw.am64x.r5f.ti-arm-clang.release.lib : csl_cpsw_ale_9g_tblcfg.obj (.text.CSL_CPSW_getALEEntryType)
                  7009f564    00000038     ltoQZamxA (.text.CpswAle_getIoctlHandlerIdx)
                  7009f59c    00000038     ltoQZamxA (.text.CpswCpts_getIoctlHandlerIdx)
                  7009f5d4    00000038     ltoQZamxA (.text.CpswEst_getIoctlHandlerIdx)
                  7009f60c    00000038     ltoQZamxA (.text.CpswHostPort_getIoctlHandlerIdx)
                  7009f644    00000038     ltoQZamxA (.text.CpswMacPortEst_getIoctlHandlerIdx)
                  7009f67c    00000038     ltoQZamxA (.text.CpswMacPort_getIoctlHandlerIdx)
                  7009f6b4    00000038     ltoQZamxA (.text.CpswStats_getIoctlHandlerIdx)
                  7009f6ec    00000038     ltoQZamxA (.text.Cpsw_getIoctlHandlerIdx)
                  7009f724    00000038     ltoQZamxA (.text.Dp83867_rmwExtReg)
                  7009f75c    00000038     ltoQZamxA (.text.Dp83869_rmwExtReg)
                  7009f794    00000038     ltoQZamxA (.text.EnetRm_getIoctlHandlerIdx)
                  7009f7cc    00000038     enet-cpsw.am64x.r5f.ti-arm-clang.release.lib : enet_udma_priv.obj (.text.EnetUdma_dmaDescDeque)
                  7009f804    00000038     ltoQZamxA (.text.Mdio_getIoctlHandlerIdx)
                  7009f83c    00000038     enet-cpsw.am64x.r5f.ti-arm-clang.release.lib : mdio_ioctl.obj (.text.Mdio_ioctl_handler_ENET_MDIO_IOCTL_IS_ALIVE)
                  7009f874    0000000a     ltoQZamxA (.text.OUTLINED_FUNCTION_56)
                  7009f87e    00000002     --HOLE-- [fill = 0]
                  7009f880    00000038     drivers.am64x.r5f.ti-arm-clang.release.lib : sciclient.obj (.text.Sciclient_getCurrentContext)
                  7009f8b8    00000006     ltoQZamxA (.text.OUTLINED_FUNCTION_44)
                  7009f8be    00000002     --HOLE-- [fill = 0]
                  7009f8c0    00000038     drivers.am64x.r5f.ti-arm-clang.release.lib : udma_ring_lcdma.obj (.text.Udma_lcdmaRingaccMemOps)
                  7009f8f8    00000006     ltoQZamxA (.text.OUTLINED_FUNCTION_50)
                  7009f8fe    00000002     --HOLE-- [fill = 0]
                  7009f900    00000036     drivers.am64x.r5f.ti-arm-clang.release.lib : csl_pktdma.obj (.text.CSL_pktdmaGetCfg)
                  7009f936    0000000a     ltoQZamxA (.text.OUTLINED_FUNCTION_60)
                  7009f940    00000036     freertos.am64x.r5f.ti-arm-clang.release.lib : ClockP_freertos.obj (.text.ClockP_usleep)
                  7009f976    00000036     enet-cpsw.am64x.r5f.ti-arm-clang.release.lib : cpsw_ale_ioctl.obj (.text.CpswAle_ioctl_handler_CPSW_ALE_IOCTL_REMOVE_ADDR)
                  7009f9ac    00000036     ltoQZamxA (.text.CpswAle_setUnknownVlanCfg)
                  7009f9e2    0000000a     ltoQZamxA (.text.OUTLINED_FUNCTION_64)
                  7009f9ec    00000004     --HOLE-- [fill = 0]
                  7009f9f0    00000036     board.am64x.r5f.ti-arm-clang.release.lib : eeprom_at24c.obj (.text.EEPROM_AT24C_open)
                  7009fa26    0000000a     ltoQZamxA (.text.OUTLINED_FUNCTION_9)
                  7009fa30    00000036     drivers.am64x.r5f.ti-arm-clang.release.lib : udma_ch.obj (.text.Udma_chGetNum)
                  7009fa66    00000006     ltoQZamxA (.text.OUTLINED_FUNCTION_52)
                  7009fa6c    00000004     --HOLE-- [fill = 0]
                  7009fa70    00000036     drivers.am64x.r5f.ti-arm-clang.release.lib : udma_flow.obj (.text.Udma_flowDetach)
                  7009faa6    00000034     enet-cpsw.am64x.r5f.ti-arm-clang.release.lib : csl_cpsw.obj (.text.CSL_CPSW_setPortControlReg)
                  7009fada    00000002     --HOLE-- [fill = 0]
                  7009fadc    00000034                                                  : enetphy.obj (.text.EnetPhy_readReg)
                  7009fb10    00000034                                                  : enetphy.obj (.text.EnetPhy_writeReg)
                  7009fb44    00000034                                                  : enet_rm.obj (.text.EnetRm_isCoreAttached)
                  7009fb78    00000034     ltoQZamxA (.text.EnetUdma_drainIsrCq)
                  7009fbac    00000034     enet-cpsw.am64x.r5f.ti-arm-clang.release.lib : cpsw_ale_ioctl_register.obj (.text.Enet_ioctl_register_CPSW_ALE_IOCTL_ADD_UCAST)
                  7009fbe0    00000034                                                  : generic_phy.obj (.text.GenericPhy_printRegs)
                  7009fc14    00000034     ltoQZamxA (.text.OUTLINED_FUNCTION_10)
                  7009fc48    00000034     ltoQZamxA (.text.OUTLINED_FUNCTION_13)
                  7009fc7c    00000034     ltoQZamxA (.text.free_list_remove)
                  7009fcb0    00000034     ltoQZamxA (.text.memccpy)
                  7009fce4    00000034     libsysbm.a : write.c.obj (.text.write)
                  7009fd18    00000006     ltoQZamxA (.text.OUTLINED_FUNCTION_54)
                  7009fd1e    00000002     --HOLE-- [fill = 0]
                  7009fd20    00000034     freertos.am64x.r5f.ti-arm-clang.release.lib : tasks.obj (.text.xTaskGetTickCount)
                  7009fd54    00000032     ltoQZamxA (.text.EnetPhy_capToMode)
                  7009fd86    00000006     ltoQZamxA (.text.OUTLINED_FUNCTION_58)
                  7009fd8c    00000004     --HOLE-- [fill = 0]
                  7009fd90    00000032     drivers.am64x.r5f.ti-arm-clang.release.lib : udma_event.obj (.text.UdmaEventPrms_init)
                  7009fdc2    00000006     ltoQZamxA (.text.OUTLINED_FUNCTION_5)
                  7009fdc8    00000006     ltoQZamxA (.text.OUTLINED_FUNCTION_63)
                  7009fdce    00000002     --HOLE-- [fill = 0]
                  7009fdd0    00000032     freertos.am64x.r5f.ti-arm-clang.release.lib : queue.obj (.text.xQueueCreateMutexStatic)
                  7009fe02    00000030     enet-cpsw.am64x.r5f.ti-arm-clang.release.lib : csl_cpsw.obj (.text.CSL_CPSW_getAlePolicerControlReg)
                  7009fe32    00000006     ltoQZamxA (.text.OUTLINED_FUNCTION_68)
                  7009fe38    00000006     ltoQZamxA (.text.OUTLINED_FUNCTION_72)
                  7009fe3e    00000002     --HOLE-- [fill = 0]
                  7009fe40    00000030     freertos.am64x.r5f.ti-arm-clang.release.lib : DebugP_uartScanf.obj (.text.DebugP_scanf)
                  7009fe70    00000030     enet-cpsw.am64x.r5f.ti-arm-clang.release.lib : enet_apputils.obj (.text.EnetAppUtils_print)
                  7009fea0    00000030     ltoQZamxA (.text.EnetUtilsDflt_print)
                  7009fed0    00000030     libsysbm.a : hostclose.c.obj (.text.HOSTclose)
                  7009ff00    00000030     drivers.am64x.r5f.ti-arm-clang.release.lib : i2c_v0.obj (.text.I2C_getHandle)
                  7009ff30    00000030     freertos.am64x.r5f.ti-arm-clang.release.lib : PmuP_armv7r_asm.obj (.text.pmu)
                  7009ff60    00000030                                                 : port.obj (.text.vApplicationStackOverflowHook)
                  7009ff90    0000002e     enet-cpsw.am64x.r5f.ti-arm-clang.release.lib : csl_cpsw.obj (.text.CSL_CPSW_setAlePolicerTestControlReg)
                  7009ffbe    00000002     --HOLE-- [fill = 0]
                  7009ffc0    0000002e     freertos.am64x.r5f.ti-arm-clang.release.lib : ClockP_freertos.obj (.text.ClockP_timerTickIsr)
                  7009ffee    0000002e     ltoQZamxA (.text.OUTLINED_FUNCTION_12)
                  700a001c    00000004     --HOLE-- [fill = 0]
                  700a0020    0000002e     drivers.am64x.r5f.ti-arm-clang.release.lib : uart_v0.obj (.text.UART_getHandle)
                  700a004e    00000002     --HOLE-- [fill = 0]
                  700a0050    0000002e                                                : udma_ring_common.obj (.text.UdmaRingPrms_init)
                  700a007e    00000002     --HOLE-- [fill = 0]
                  700a0080    0000002e                                                : udma_event.obj (.text.Udma_eventDisable)
                  700a00ae    00000002     --HOLE-- [fill = 0]
                  700a00b0    0000002e     freertos.am64x.r5f.ti-arm-clang.release.lib : tasks.obj (.text.vTaskExitCritical)
                  700a00de    0000002c     enet-cpsw.am64x.r5f.ti-arm-clang.release.lib : csl_cpsw.obj (.text.CSL_CPSW_getPortControlReg)
                  700a010a    00000006     ltoQZamxA (.text.OUTLINED_FUNCTION_83)
                  700a0110    0000002c     drivers.am64x.r5f.ti-arm-clang.release.lib : csl_pktdma.obj (.text.CSL_pktdmaGetRxRT)
                  700a013c    00000004     --HOLE-- [fill = 0]
                  700a0140    0000002c                                                : csl_pktdma.obj (.text.CSL_pktdmaGetTxRT)
                  700a016c    0000002c     enet-cpsw.am64x.r5f.ti-arm-clang.release.lib : cpsw_hostport_ioctl.obj (.text.CpswHostPort_ioctl_handler_ENET_HOSTPORT_IOCTL_GET_MAXLEN)
                  700a0198    0000002c     ltoQZamxA (.text._outs)
                  700a01c4    0000002a     ltoQZamxA (.text.EnetPhy_phyTimeout)
                  700a01ee    0000002a     enet-cpsw.am64x.r5f.ti-arm-clang.release.lib : enet_udma_priv.obj (.text.EnetUdma_freeRing)
                  700a0218    00000006     ltoQZamxA (.text.OUTLINED_FUNCTION_88)
                  700a021e    00000002     --HOLE-- [fill = 0]
                  700a0220    0000002a     drivers.am64x.r5f.ti-arm-clang.release.lib : soc.obj (.text.SOC_controlModuleLockMMR)
                  700a024a    00000006     --HOLE-- [fill = 0]
                  700a0250    0000002a                                                : udma_utils.obj (.text.Udma_phyToVirtFxn)
                  700a027a    00000006     --HOLE-- [fill = 0]
                  700a0280    00000028                                                : csl_intaggr.obj (.text.CSL_intaggrGetCfg)
                  700a02a8    00000028     ltoQZamxA (.text.Cpsw_cptsIsr)
                  700a02d0    00000028     ltoQZamxA (.text.EnetRm_freeCoreResource)
                  700a02f8    00000028     enet-cpsw.am64x.r5f.ti-arm-clang.release.lib : enet_rm.obj (.text.EnetRm_validateCoreKey)
                  700a0320    00000028     ltoQZamxA (.text.EnetUtils_assertLocal.1012)
                  700a0348    00000028     ltoQZamxA (.text.EnetUtils_assertLocal.638)
                  700a0370    00000028     ltoQZamxA (.text.Mdio_manualModeFieldSend)
                  700a0398    00000008     freertos.am64x.r5f.ti-arm-clang.release.lib : HwiP_armv7r_asm.obj (.tramp.HwiP_disable.1)
                  700a03a0    00000028     drivers.am64x.r5f.ti-arm-clang.release.lib : uart_v0.obj (.text.UART_statusIsDataReady)
                  700a03c8    00000008     freertos.am64x.r5f.ti-arm-clang.release.lib : CacheP_armv7r_asm.obj (.tramp.CacheP_wbInv.1)
                  700a03d0    00000028     drivers.am64x.r5f.ti-arm-clang.release.lib : udma_ch.obj (.text.Udma_chGetFqRingHandle)
                  700a03f8    00000008     libclang_rt.builtins.a : aeabi_memset.S.obj (.tramp.__aeabi_memclr4.1)
                  700a0400    00000028     drivers.am64x.r5f.ti-arm-clang.release.lib : udma_ring_lcdma.obj (.text.Udma_ringGetForwardRingOccLcdma)
                  700a0428    00000008     freertos.am64x.r5f.ti-arm-clang.release.lib : CacheP_armv7r_asm.obj (.tramp.CacheP_wb.1)
                  700a0430    00000028     drivers.am64x.r5f.ti-arm-clang.release.lib : udma_ring_lcdma.obj (.text.Udma_ringGetReverseRingOccLcdma)
                  700a0458    00000008     freertos.am64x.r5f.ti-arm-clang.release.lib : HwiP_armv7r_asm.obj (.tramp.HwiP_enable.1)
                  700a0460    00000028     drivers.am64x.r5f.ti-arm-clang.release.lib : udma_rmcfg.obj (.text.Udma_rmGetSharedResPrms)
                  700a0488    00000026     ltoQZamxA (.text.CpswAle_clearTableEntry)
                  700a04ae    00000026     ltoQZamxA (.text.Mdio_manualModeToggleMdclk)
                  700a04d4    00000026     ltoQZamxA (.text.OUTLINED_FUNCTION_15)
                  700a04fa    00000006     --HOLE-- [fill = 0]
                  700a0500    00000026     freertos.am64x.r5f.ti-arm-clang.release.lib : port.obj (.text.vPortTimerTickHandler)
                  700a0526    00000002     --HOLE-- [fill = 0]
                  700a0528    00000008                                                 : HwiP_armv7r_asm.obj (.tramp.HwiP_restore.1)
                  700a0530    00000026                                                 : queue.obj (.text.vQueueAddToRegistry)
                  700a0556    00000002     --HOLE-- [fill = 0]
                  700a0558    00000008                                                 : PmuP_armv7r_asm.obj (.tramp.PmuP_enableCounters.1)
                  700a0560    00000024     drivers.am64x.r5f.ti-arm-clang.release.lib : csl_bcdma.obj (.text.CSL_bcdmaGetChanPeerReg)
                  700a0584    00000024     ltoQZamxA (.text.Cpsw_statsIsr)
                  700a05a8    00000024     enet-cpsw.am64x.r5f.ti-arm-clang.release.lib : enet_apputils.obj (.text.EnetAppUtils_assertLocal)
                  700a05cc    00000024     ltoQZamxA (.text.EnetUtils_assertLocal.1035)
                  700a05f0    00000024     ltoQZamxA (.text.EnetUtils_assertLocal.129)
                  700a0614    00000024     ltoQZamxA (.text.EnetUtils_assertLocal.179)
                  700a0638    00000024     ltoQZamxA (.text.EnetUtils_assertLocal.307)
                  700a065c    00000024     ltoQZamxA (.text.EnetUtils_assertLocal.53)
                  700a0680    00000024     ltoQZamxA (.text.EnetUtils_assertLocal.592)
                  700a06a4    00000024     ltoQZamxA (.text.EnetUtils_assertLocal.614)
                  700a06c8    00000024     ltoQZamxA (.text.EnetUtils_assertLocal.646)
                  700a06ec    00000024     ltoQZamxA (.text.EnetUtils_assertLocal.665)
                  700a0710    00000024     ltoQZamxA (.text.EnetUtils_assertLocal.697)
                  700a0734    00000024     ltoQZamxA (.text.EnetUtils_assertLocal.714)
                  700a0758    00000024     ltoQZamxA (.text.EnetUtils_assertLocal.731)
                  700a077c    00000024     ltoQZamxA (.text.EnetUtils_assertLocal.759)
                  700a07a0    00000024     ltoQZamxA (.text.EnetUtils_assertLocal.803)
                  700a07c4    00000024     ltoQZamxA (.text.EnetUtils_assertLocal.818)
                  700a07e8    00000024     ltoQZamxA (.text.EnetUtils_assertLocal.842)
                  700a080c    00000024     ltoQZamxA (.text.EnetUtils_assertLocal.899)
                  700a0830    00000024     ltoQZamxA (.text.EnetUtils_assertLocal.918)
                  700a0854    00000024     ltoQZamxA (.text.EnetUtils_assertLocal.963)
                  700a0878    00000024     ltoQZamxA (.text.EnetUtils_assertLocal.981)
                  700a089c    00000024     enet-cpsw.am64x.r5f.ti-arm-clang.release.lib : generic_phy.obj (.text.GenericPhy_isResetComplete)
                  700a08c0    00000024     drivers.am64x.r5f.ti-arm-clang.release.lib : udma_ring_lcdma.obj (.text.Udma_ringPrimeLcdma)
                  700a08e4    0000000c     --HOLE-- [fill = 0]
                  700a08f0    00000024     freertos.am64x.r5f.ti-arm-clang.release.lib : list.obj (.text.uxListRemove)
                  700a0914    0000000c     --HOLE-- [fill = 0]
                  700a0920    00000024                                                 : printf.obj (.text.vprintf_)
                  700a0944    0000000c     --HOLE-- [fill = 0]
                  700a0950    00000024                                                 : tasks.obj (.text.xTaskGetSchedulerState)
                  700a0974    00000024     libclang_rt.builtins.a : aeabi_uldivmod.S.obj (.text)
                  700a0998    00000008     --HOLE-- [fill = 0]
                  700a09a0    00000022     drivers.am64x.r5f.ti-arm-clang.release.lib : csl_bcdma.obj (.text.CSL_bcdmaSetChanPeerReg)
                  700a09c2    00000022     enet-cpsw.am64x.r5f.ti-arm-clang.release.lib : cpsw_stats_ioctl.obj (.text.CpswStats_ioctl_handler_CPSW_STATS_IOCTL_SYNC)
                  700a09e4    00000022                                                  : enet_rm.obj (.text.EnetRm_findResource)
                  700a0a06    0000000a     --HOLE-- [fill = 0]
                  700a0a10    00000022     drivers.am64x.r5f.ti-arm-clang.release.lib : udma_utils.obj (.text.Udma_virtToPhyFxn)
                  700a0a32    0000000e     --HOLE-- [fill = 0]
                  700a0a40    00000022     freertos.am64x.r5f.ti-arm-clang.release.lib : tasks.obj (.text.vTaskEnterCritical)
                  700a0a62    00000020     enet-cpsw.am64x.r5f.ti-arm-clang.release.lib : csl_cpsw.obj (.text.CSL_CPSW_getPortStats)
                  700a0a82    0000000e     --HOLE-- [fill = 0]
                  700a0a90    00000020     drivers.am64x.r5f.ti-arm-clang.release.lib : csl_pktdma.obj (.text.CSL_pktdmaSetRxRT)
                  700a0ab0    00000020                                                : csl_pktdma.obj (.text.CSL_pktdmaSetTxRT)
                  700a0ad0    00000020     enet-cpsw.am64x.r5f.ti-arm-clang.release.lib : cpsw_macport.obj (.text.CpswMacPort_disablePort)
                  700a0af0    00000020                                                  : cpsw_stats.obj (.text.CpswStats_rejoin)
                  700a0b10    00000020     freertos.am64x.r5f.ti-arm-clang.release.lib : DebugP_log.obj (.text.DebugP_logZoneEnable)
                  700a0b30    00000020     ltoQZamxA (.text.Dp83867_isPhyDevSupported)
                  700a0b50    00000020     ltoQZamxA (.text.Dp83869_isPhyDevSupported)
                  700a0b70    00000020     enet-cpsw.am64x.r5f.ti-arm-clang.release.lib : enet_apputils.obj (.text.EnetAppUtils_printMacAddr)
                  700a0b90    00000020     ltoQZamxA (.text.OUTLINED_FUNCTION_36)
                  700a0bb0    00000020     drivers.am64x.r5f.ti-arm-clang.release.lib : soc.obj (.text.SOC_getSelfCpuClk)
                  700a0bd0    00000020     freertos.am64x.r5f.ti-arm-clang.release.lib : TimerP.obj (.text.TimerP_Params_init)
                  700a0bf0    00000020                                                 : printf.obj (.text.vsnprintf_)
                  700a0c10    00000020     libc.a : wcslen.c.obj (.text.wcslen)
                  700a0c30    0000001e     drivers.am64x.r5f.ti-arm-clang.release.lib : csl_bcdma.obj (.text.CSL_bcdmaTeardownRxChan)
                  700a0c4e    00000002     --HOLE-- [fill = 0]
                  700a0c50    0000001e                                                : csl_bcdma.obj (.text.CSL_bcdmaTeardownTxChan)
                  700a0c6e    0000001e     ltoQZamxA (.text.CpswAle_isVlanMaskMuxRegSupported)
                  700a0c8c    0000001e     enet-cpsw.am64x.r5f.ti-arm-clang.release.lib : cpsw_macport.obj (.text.CpswMacPort_close)
                  700a0caa    00000006     --HOLE-- [fill = 0]
                  700a0cb0    0000001e     board.am64x.r5f.ti-arm-clang.release.lib : eeprom_at24c.obj (.text.EEPROM_AT24C_close)
                  700a0cce    00000002     --HOLE-- [fill = 0]
                  700a0cd0    0000001e                                              : eeprom.obj (.text.EEPROM_read)
                  700a0cee    0000001e     enet-cpsw.am64x.r5f.ti-arm-clang.release.lib : enet_udma_priv.obj (.text.EnetUdma_deInitRxFreeDescQ)
                  700a0d0c    0000001e                                                  : enet_udma_priv.obj (.text.EnetUdma_deInitTxFreeDescQ)
                  700a0d2a    0000001e                                                  : enet_udma_priv.obj (.text.EnetUdma_dmaDescInit)
                  700a0d48    0000001e     ltoQZamxA (.text.OUTLINED_FUNCTION_25)
                  700a0d66    0000001e     ltoQZamxA (.text.OUTLINED_FUNCTION_27)
                  700a0d84    0000000c     --HOLE-- [fill = 0]
                  700a0d90    0000001e     drivers.am64x.r5f.ti-arm-clang.release.lib : udma_ring_lcdma.obj (.text.Udma_ringDequeueRawLcdma)
                  700a0dae    00000002     --HOLE-- [fill = 0]
                  700a0db0    0000001e                                                : udma_ring_lcdma.obj (.text.Udma_ringQueueRawLcdma)
                  700a0dce    00000002     --HOLE-- [fill = 0]
                  700a0dd0    0000001e     freertos.am64x.r5f.ti-arm-clang.release.lib : port.obj (.text.vApplicationGetIdleTaskMemory)
                  700a0dee    00000002     --HOLE-- [fill = 0]
                  700a0df0    0000001e                                                 : port.obj (.text.vApplicationGetTimerTaskMemory)
                  700a0e0e    00000002     --HOLE-- [fill = 0]
                  700a0e10    0000001c     drivers.am64x.r5f.ti-arm-clang.release.lib : csl_lcdma_ringacc.obj (.text.CSL_lcdma_ringaccPush64)
                  700a0e2c    00000004     --HOLE-- [fill = 0]
                  700a0e30    0000001c                                                : csl_pktdma.obj (.text.CSL_pktdmaGetChanPeerReg)
                  700a0e4c    00000004     --HOLE-- [fill = 0]
                  700a0e50    0000001c                                                : csl_pktdma.obj (.text.CSL_pktdmaSetChanPeerReg)
                  700a0e6c    00000004     --HOLE-- [fill = 0]
                  700a0e70    0000001c     freertos.am64x.r5f.ti-arm-clang.release.lib : ClockP_freertos.obj (.text.ClockP_destruct)
                  700a0e8c    0000001c     enet-cpsw.am64x.r5f.ti-arm-clang.release.lib : cpsw.obj (.text.Cpsw_poll)
                  700a0ea8    00000008     --HOLE-- [fill = 0]
                  700a0eb0    0000001c     drivers.am64x.r5f.ti-arm-clang.release.lib : i2c_v0.obj (.text.I2C_Transaction_init)
                  700a0ecc    0000001c     ltoQZamxA (.text.OUTLINED_FUNCTION_23)
                  700a0ee8    0000001c     ltoQZamxA (.text.OUTLINED_FUNCTION_30)
                  700a0f04    0000000c     --HOLE-- [fill = 0]
                  700a0f10    0000001c     drivers.am64x.r5f.ti-arm-clang.release.lib : udma_utils.obj (.text.UdmaUtils_getRingMemSize)
                  700a0f2c    00000004     --HOLE-- [fill = 0]
                  700a0f30    0000001c                                                : udma_event.obj (.text.Udma_eventGetGlobalHandle)
                  700a0f4c    00000004     --HOLE-- [fill = 0]
                  700a0f50    0000001c                                                : udma_ring_common.obj (.text.Udma_ringGetNum)
                  700a0f6c    00000004     --HOLE-- [fill = 0]
                  700a0f70    0000001c     freertos.am64x.r5f.ti-arm-clang.release.lib : boot_armv7r.obj (.text._system_pre_init)
                  700a0f8c    00000004     --HOLE-- [fill = 0]
                  700a0f90    0000001c                                                 : list.obj (.text.vListInsertEnd)
                  700a0fac    0000001c     libclang_rt.builtins.a : aeabi_memset.S.obj (.text)
                  700a0fc8    00000008     --HOLE-- [fill = 0]
                  700a0fd0    0000001a     freertos.am64x.r5f.ti-arm-clang.release.lib : CpuId_armv7r.obj (.text.CSL_armR5GetCpuID)
                  700a0fea    0000001a     enet-cpsw.am64x.r5f.ti-arm-clang.release.lib : cpsw_ale.obj (.text.CpswAle_clearSelectedPolicerStats)
                  700a1004    0000001a                                                  : cpsw_macport_ioctl.obj (.text.CpswMacPort_ioctl_handler_CPSW_MACPORT_IOCTL_DISABLE)
                  700a101e    00000002     --HOLE-- [fill = 0]
                  700a1020    0000001a     freertos.am64x.r5f.ti-arm-clang.release.lib : TaskP_freertos.obj (.text.TaskP_Params_init)
                  700a103a    00000006     --HOLE-- [fill = 0]
                  700a1040    0000001a     drivers.am64x.r5f.ti-arm-clang.release.lib : uart_dma.obj (.text.UART_readInterruptDma)
                  700a105a    00000006     --HOLE-- [fill = 0]
                  700a1060    0000001a                                                : uart_dma.obj (.text.UART_writeInterruptDma)
                  700a107a    00000006     --HOLE-- [fill = 0]
                  700a1080    0000001a                                                : udma_rmcfg.obj (.text.Udma_rmGetDefBoardCfgPrms)
                  700a109a    00000006     --HOLE-- [fill = 0]
                  700a10a0    0000001a     freertos.am64x.r5f.ti-arm-clang.release.lib : heap_3.obj (.text.vPortFree)
                  700a10ba    00000006     --HOLE-- [fill = 0]
                  700a10c0    0000001a                                                 : tasks.obj (.text.vTaskInternalSetTimeOutState)
                  700a10da    00000002     --HOLE-- [fill = 0]
                  700a10dc    00000018     ti_board_open_close.obj (.text.Board_eepromClose)
                  700a10f4    00000018     ltoQZamxA (.text.Dp83867_isResetComplete)
                  700a110c    00000018     ltoQZamxA (.text.Dp83869_isResetComplete)
                  700a1124    00000018     enet-cpsw.am64x.r5f.ti-arm-clang.release.lib : enet_udma_priv.obj (.text.EnetUdma_memMgrAllocRxFlowObj)
                  700a113c    00000004     --HOLE-- [fill = 0]
                  700a1140    00000018     drivers.am64x.r5f.ti-arm-clang.release.lib : i2c_v0.obj (.text.I2C_hwiFxn)
                  700a1158    00000018     ltoQZamxA (.text.OUTLINED_FUNCTION_14)
                  700a1170    00000018     ltoQZamxA (.text.OUTLINED_FUNCTION_31)
                  700a1188    00000018     ltoQZamxA (.text.OUTLINED_FUNCTION_35)
                  700a11a0    00000018     drivers.am64x.r5f.ti-arm-clang.release.lib : sciclient_soc_priv.obj (.text.Sciclient_getDevId)
                  700a11b8    00000008     --HOLE-- [fill = 0]
                  700a11c0    00000018                                                : udma_ring_lcdma.obj (.text.Udma_ringGetElementCntLcdma)
                  700a11d8    00000008     --HOLE-- [fill = 0]
                  700a11e0    00000018                                                : udma_ring_lcdma.obj (.text.Udma_ringGetMemPtrLcdma)
                  700a11f8    00000008     --HOLE-- [fill = 0]
                  700a1200    00000018                                                : udma_ring_lcdma.obj (.text.Udma_ringGetModeLcdma)
                  700a1218    00000008     --HOLE-- [fill = 0]
                  700a1220    00000018                                                : udma_ring_lcdma.obj (.text.Udma_ringGetRdIdxLcdma)
                  700a1238    00000008     --HOLE-- [fill = 0]
                  700a1240    00000018                                                : udma_ring_lcdma.obj (.text.Udma_ringGetWrIdxLcdma)
                  700a1258    00000008     --HOLE-- [fill = 0]
                  700a1260    00000018     freertos.am64x.r5f.ti-arm-clang.release.lib : tasks.obj (.text.pvTaskIncrementMutexHeldCount)
                  700a1278    00000018     ltoQZamxA (.text.strlen.12)
                  700a1290    00000018     ltoQZamxA (.text.strlen.32)
                  700a12a8    00000018     ltoQZamxA (.text.strlen)
                  700a12c0    00000018     freertos.am64x.r5f.ti-arm-clang.release.lib : port.obj (.text.xPortStartScheduler)
                  700a12d8    00000008     --HOLE-- [fill = 0]
                  700a12e0    00000016     drivers.am64x.r5f.ti-arm-clang.release.lib : csl_bcdma.obj (.text.CSL_bcdmaGetRxRT)
                  700a12f6    0000000a     --HOLE-- [fill = 0]
                  700a1300    00000016                                                : csl_bcdma.obj (.text.CSL_bcdmaGetTxRT)
                  700a1316    0000000a     --HOLE-- [fill = 0]
                  700a1320    00000016                                                : csl_bcdma.obj (.text.CSL_bcdmaSetRxRT)
                  700a1336    0000000a     --HOLE-- [fill = 0]
                  700a1340    00000016                                                : csl_bcdma.obj (.text.CSL_bcdmaSetTxRT)
                  700a1356    0000000a     --HOLE-- [fill = 0]
                  700a1360    00000016     freertos.am64x.r5f.ti-arm-clang.release.lib : ClockP_freertos.obj (.text.ClockP_Params_init)
                  700a1376    0000000a     --HOLE-- [fill = 0]
                  700a1380    00000016                                                 : ClockP_freertos.obj (.text.ClockP_timerCallbackFunction)
                  700a1396    00000016     enet-cpsw.am64x.r5f.ti-arm-clang.release.lib : cpsw_ale_ioctl.obj (.text.CpswAle_ioctl_handler_CPSW_ALE_IOCTL_SET_DEFAULT_THREADCFG)
                  700a13ac    00000016                                                  : cpsw_ale_ioctl.obj (.text.CpswAle_ioctl_handler_CPSW_ALE_IOCTL_SET_PORT_STATE)
                  700a13c2    00000016     ltoQZamxA (.text.Dp83867_isMacModeSupported)
                  700a13d8    00000016     ltoQZamxA (.text.Dp83869_isMacModeSupported)
                  700a13ee    00000016     enet-cpsw.am64x.r5f.ti-arm-clang.release.lib : enet_udma.obj (.text.EnetDma_disableRxEvent)
                  700a1404    00000016                                                  : enet_udma.obj (.text.EnetDma_disableTxEvent)
                  700a141a    00000016     ltoQZamxA (.text.EnetPhy_findBestCap)
                  700a1430    00000016     ltoQZamxA (.text.OUTLINED_FUNCTION_51)
                  700a1446    0000000a     --HOLE-- [fill = 0]
                  700a1450    00000016     freertos.am64x.r5f.ti-arm-clang.release.lib : list.obj (.text.vListInitialise)
                  700a1466    0000000a     --HOLE-- [fill = 0]
                  700a1470    00000014     drivers.am64x.r5f.ti-arm-clang.release.lib : csl_lcdma_ringacc.obj (.text.CSL_lcdma_ringaccPop64)
                  700a1484    0000000c     --HOLE-- [fill = 0]
                  700a1490    00000014     freertos.am64x.r5f.ti-arm-clang.release.lib : ClockP_freertos.obj (.text.ClockP_usecToTicks)
                  700a14a4    00000014     enet-cpsw.am64x.r5f.ti-arm-clang.release.lib : cpsw_hostport_ioctl.obj (.text.CpswHostPort_ioctl_handler_CPSW_HOSTPORT_SET_FLOW_ID_OFFSET)
                  700a14b8    00000014                                                  : enet_udma_priv.obj (.text.EnetUdma_memMgrFreeTxChObj)
                  700a14cc    00000014     ltoQZamxA (.text.OUTLINED_FUNCTION_34)
                  700a14e0    00000014     ltoQZamxA (.text.OUTLINED_FUNCTION_95)
                  700a14f4    00000014     ltoQZamxA (.text.OUTLINED_FUNCTION_96)
                  700a1508    00000014     ltoQZamxA (.text._outc)
                  700a151c    00000014     ltoQZamxA (.text.strcpy)
                  700a1530    00000012     drivers.am64x.r5f.ti-arm-clang.release.lib : csl_lcdma_ringacc.obj (.text.CSL_lcdma_ringaccGetReverseRingOcc)
                  700a1542    00000012     enet-cpsw.am64x.r5f.ti-arm-clang.release.lib : cpsw_hostport_ioctl.obj (.text.CpswHostPort_ioctl_handler_CPSW_HOSTPORT_GET_FLOW_ID_OFFSET)
                  700a1554    00000012     ltoQZamxA (.text.EnetAppUtils_printStatsWithIdxNonZero)
                  700a1566    00000012     ltoQZamxA (.text.OUTLINED_FUNCTION_20)
                  700a1578    00000012     ltoQZamxA (.text.OUTLINED_FUNCTION_47)
                  700a158a    00000012     ltoQZamxA (.text.OUTLINED_FUNCTION_61)
                  700a159c    00000012     ltoQZamxA (.text.OUTLINED_FUNCTION_65)
                  700a15ae    00000012     ltoQZamxA (.text.OUTLINED_FUNCTION_67)
                  700a15c0    00000012     freertos.am64x.r5f.ti-arm-clang.release.lib : TimerP.obj (.text.TimerP_clearOverflowInt)
                  700a15d2    0000000e     --HOLE-- [fill = 0]
                  700a15e0    00000010     drivers.am64x.r5f.ti-arm-clang.release.lib : csl_lcdma_ringacc.obj (.text.CSL_lcdma_ringaccIsTeardownComplete)
                  700a15f0    00000010     freertos.am64x.r5f.ti-arm-clang.release.lib : ClockP_freertos.obj (.text.ClockP_ticksToUsec)
                  700a1600    00000010     ltoQZamxA (.text.EnetApp_rxIsrFxn)
                  700a1610    00000010     ltoQZamxA (.text.EnetApp_txIsrFxn)
                  700a1620    00000010     enet-cpsw.am64x.r5f.ti-arm-clang.release.lib : enetphy.obj (.text.EnetPhy_readExtReg)
                  700a1630    00000010                                                  : enet_udma_priv.obj (.text.EnetUdma_memMgrFreeRxFlowObj)
                  700a1640    00000010     ltoQZamxA (.text.OUTLINED_FUNCTION_24)
                  700a1650    00000010     ltoQZamxA (.text.OUTLINED_FUNCTION_29)
                  700a1660    00000010     ltoQZamxA (.text.OUTLINED_FUNCTION_55)
                  700a1670    00000010     ltoQZamxA (.text.OUTLINED_FUNCTION_59)
                  700a1680    00000010     ltoQZamxA (.text.OUTLINED_FUNCTION_78)
                  700a1690    00000010     ltoQZamxA (.text.OUTLINED_FUNCTION_90)
                  700a16a0    00000010     ltoQZamxA (.text.OUTLINED_FUNCTION_98)
                  700a16b0    00000010     drivers.am64x.r5f.ti-arm-clang.release.lib : sciclient_rm.obj (.text.Sciclient_rmIrqRelease)
                  700a16c0    00000010                                                : udma_rm.obj (.text.Udma_rmTranslateCoreIntrInput)
                  700a16d0    00000010                                                : udma_rm.obj (.text.Udma_rmTranslateIrOutput)
                  700a16e0    00000010     ltoQZamxA (.text.fflush)
                  700a16f0    00000010     freertos.am64x.r5f.ti-arm-clang.release.lib : port.obj (.text.vPortYeildFromISR)
                  700a1700    00000010                                                 : tasks.obj (.text.vTaskSuspendAll)
                  700a1710    0000000e     drivers.am64x.r5f.ti-arm-clang.release.lib : csl_lcdma_ringacc.obj (.text.CSL_lcdma_ringaccGetForwardRingOcc)
                  700a171e    00000002     --HOLE-- [fill = 0]
                  700a1720    0000000e                                                : csl_lcdma_ringacc.obj (.text.CSL_lcdma_ringaccInitRingObj)
                  700a172e    00000002     --HOLE-- [fill = 0]
                  700a1730    0000000e     board.am64x.r5f.ti-arm-clang.release.lib : eeprom.obj (.text.EEPROM_close)
                  700a173e    00000002     --HOLE-- [fill = 0]
                  700a1740    0000000e     freertos.am64x.r5f.ti-arm-clang.release.lib : tasks.obj (.text.vTaskMissedYield)
                  700a174e    00000002     --HOLE-- [fill = 0]
                  700a1750    0000000c                                                 : DebugP_uartLogWriter.obj (.text.DebugP_uartSetDrvIndex)
                  700a175c    00000004     --HOLE-- [fill = 0]
                  700a1760    0000000c     drivers.am64x.r5f.ti-arm-clang.release.lib : i2c_v0.obj (.text.I2C_transferCallback)
                  700a176c    00000004     --HOLE-- [fill = 0]
                  700a1770    0000000c                                                : sciclient.obj (.text.Sciclient_getSelfDevIdCore)
                  700a177c    00000004     --HOLE-- [fill = 0]
                  700a1780    0000000c     freertos.am64x.r5f.ti-arm-clang.release.lib : tasks.obj (.text.xTaskGetCurrentTaskHandle)
                  700a178c    00000004     --HOLE-- [fill = 0]
                  700a1790    0000000a     drivers.am64x.r5f.ti-arm-clang.release.lib : csl_sec_proxy.obj (.text.CSL_secProxyGetDataAddr)
                  700a179a    00000006     --HOLE-- [fill = 0]
                  700a17a0    0000000a     freertos.am64x.r5f.ti-arm-clang.release.lib : TimerP.obj (.text.TimerP_start)
                  700a17aa    00000006     --HOLE-- [fill = 0]
                  700a17b0    0000000a                                                 : printf.obj (.text._out_buffer)
                  700a17ba    00000006     --HOLE-- [fill = 0]
                  700a17c0    0000000a                                                 : port.obj (.text.vApplicationIdleHook)
                  700a17ca    00000006     --HOLE-- [fill = 0]
                  700a17d0    00000008     drivers.am64x.r5f.ti-arm-clang.release.lib : udma_ring_common.obj (.text.Udma_ringGetForwardRingOcc)
                  700a17d8    00000008     --HOLE-- [fill = 0]
                  700a17e0    00000008                                                : udma_ring_common.obj (.text.Udma_ringGetMemPtr)
                  700a17e8    00000008     --HOLE-- [fill = 0]
                  700a17f0    00000008                                                : udma_ring_common.obj (.text.Udma_ringGetMode)
                  700a17f8    00000008     --HOLE-- [fill = 0]
                  700a1800    00000008                                                : udma_ring_common.obj (.text.Udma_ringGetReverseRingOcc)
                  700a1808    00000008     --HOLE-- [fill = 0]
                  700a1810    00000008                                                : udma_ring_lcdma.obj (.text.Udma_ringHandleClearRegsLcdma)
                  700a1818    00000008     --HOLE-- [fill = 0]
                  700a1820    00000008     freertos.am64x.r5f.ti-arm-clang.release.lib : printf.obj (.text._out_char)
                  700a1828    00000008     --HOLE-- [fill = 0]
                  700a1830    00000008                                                 : port.obj (.text.uiPortGetRunTimeCounterValue)
                  700a1838    00000008     --HOLE-- [fill = 0]
                  700a1840    00000006     drivers.am64x.r5f.ti-arm-clang.release.lib : csl_pktdma.obj (.text.CSL_pktdmaTeardownRxChan)
                  700a1846    0000000a     --HOLE-- [fill = 0]
                  700a1850    00000006                                                : csl_pktdma.obj (.text.CSL_pktdmaTeardownTxChan)
                  700a1856    0000000a     --HOLE-- [fill = 0]
                  700a1860    00000006     freertos.am64x.r5f.ti-arm-clang.release.lib : SemaphoreP_freertos.obj (.text.SemaphoreP_destruct)
                  700a1866    0000000a     --HOLE-- [fill = 0]
                  700a1870    00000006                                                 : TaskP_freertos.obj (.text.TaskP_exit)
                  700a1876    0000000a     --HOLE-- [fill = 0]
                  700a1880    00000006     drivers.am64x.r5f.ti-arm-clang.release.lib : udma_rm.obj (.text.Udma_rmAllocFreeRing)
                  700a1886    0000000a     --HOLE-- [fill = 0]
                  700a1890    00000006     freertos.am64x.r5f.ti-arm-clang.release.lib : port.obj (.text.prvTaskExitError)
                  700a1896    0000000a     --HOLE-- [fill = 0]
                  700a18a0    00000006                                                 : list.obj (.text.vListInitialiseItem)
                  700a18a6    0000000a     --HOLE-- [fill = 0]
                  700a18b0    00000004                                                 : ClockP_freertos.obj (.text.ClockP_getTicks)
                  700a18b4    0000000c     --HOLE-- [fill = 0]
                  700a18c0    00000004                                                 : ClockP_freertos_r5.obj (.text.ClockP_getTimerCount)
                  700a18c4    0000000c     --HOLE-- [fill = 0]
                  700a18d0    00000004                                                 : ClockP_freertos_r5.obj (.text.ClockP_timerClearOverflowInt)
                  700a18d4    0000000c     --HOLE-- [fill = 0]
                  700a18e0    00000004     drivers.am64x.r5f.ti-arm-clang.release.lib : pruicss_g_v0.obj (.text.PRUICSS_init)
                  700a18e4    0000000c     --HOLE-- [fill = 0]
                  700a18f0    00000004                                                : sciclient_rm.obj (.text.Sciclient_rmIrqSet)
                  700a18f4    0000000c     --HOLE-- [fill = 0]
                  700a1900    00000004                                                : sciclient_rm.obj (.text.Sciclient_rmIrqTranslateIaOutput)
                  700a1904    0000000c     --HOLE-- [fill = 0]
                  700a1910    00000004     freertos.am64x.r5f.ti-arm-clang.release.lib : TaskP_freertos.obj (.text.TaskP_yield)
                  700a1914    0000000c     --HOLE-- [fill = 0]
                  700a1920    00000004                                                 : TimerP.obj (.text.TimerP_getCount)
                  700a1924    0000000c     --HOLE-- [fill = 0]
                  700a1930    00000004                                                 : TimerP.obj (.text.TimerP_getReloadCount)
                  700a1934    0000000c     --HOLE-- [fill = 0]
                  700a1940    00000004     drivers.am64x.r5f.ti-arm-clang.release.lib : udma_utils.obj (.text.Udma_defaultVirtToPhyFxn)
                  700a1944    0000000c     --HOLE-- [fill = 0]
                  700a1950    00000004                                                : udma_soc.obj (.text.Udma_isCacheCoherent)
                  700a1954    0000000c     --HOLE-- [fill = 0]
                  700a1960    00000004     libclang_rt.builtins.a : aeabi_div0.c.obj (.text.__aeabi_idiv0)
                  700a1964    0000000c     --HOLE-- [fill = 0]
                  700a1970    00000004                            : aeabi_div0.c.obj (.text.__aeabi_ldiv0)
                  700a1974    0000000c     --HOLE-- [fill = 0]
                  700a1980    00000002     drivers.am64x.r5f.ti-arm-clang.release.lib : udma_utils.obj (.text.Udma_defaultPhyToVirtFxn)
                  700a1982    0000000e     --HOLE-- [fill = 0]
                  700a1990    00000002                                                : udma_rm.obj (.text.Udma_rmFreeFreeRing)
                  700a1992    0000000e     --HOLE-- [fill = 0]
                  700a19a0    00000002     freertos.am64x.r5f.ti-arm-clang.release.lib : printf.obj (.text._out_null)
                  700a19a2    0000000e     --HOLE-- [fill = 0]
                  700a19b0    00000002                                                 : port.obj (.text.vPortConfigTimerForRunTimeStats)
                  700a19b2    0000000e     --HOLE-- [fill = 0]
                  700a19c0    00000002                                                 : port.obj (.text.vPortValidateInterruptPriority)
                  700a19c2    0000000e     --HOLE-- [fill = 0]

.rodata    0    700a19d0    00007850     
                  700a19d0    00004b5a     ltoQZamxA (.rodata.str1.1)
                  700a652a    000007b7     freertos.am64x.r5f.ti-arm-clang.release.lib : tasks.obj (.rodata.str1.1)
                  700a6ce1    00000756                                                 : queue.obj (.rodata.str1.1)
                  700a7437    000002bc                                                 : timers.obj (.rodata.str1.1)
                  700a76f3    00000001     --HOLE-- [fill = 0]
                  700a76f4    000001a4     drivers.am64x.r5f.ti-arm-clang.release.lib : udma_rmcfg.obj (.rodata.gUdmaRmDefBoardCfg_Pktdma)
                  700a7898    00000163     freertos.am64x.r5f.ti-arm-clang.release.lib : TaskP_freertos.obj (.rodata.str1.1)
                  700a79fb    00000001     --HOLE-- [fill = 0]
                  700a79fc    00000138     drivers.am64x.r5f.ti-arm-clang.release.lib : udma_soc.obj (.rodata.gUdmaTxMappedChRingAttributes)
                  700a7b34    00000135                                                : uart_v0.obj (.rodata.str1.1)
                  700a7c69    00000003     --HOLE-- [fill = 0]
                  700a7c6c    0000012c                                                : sciclient_fmwSecureProxyMap.obj (.rodata.gSciclientMap)
                  700a7d98    0000010d     freertos.am64x.r5f.ti-arm-clang.release.lib : TimerP.obj (.rodata.str1.1)
                  700a7ea5    0000010a                                                 : ClockP_freertos_r5.obj (.rodata.str1.1)
                  700a7faf    00000001     --HOLE-- [fill = 0]
                  700a7fb0    00000101     libc.a : aeabi_ctype.S.obj (.rodata)
                  700a80b1    000000da     freertos.am64x.r5f.ti-arm-clang.release.lib : SemaphoreP_freertos.obj (.rodata.str1.1)
                  700a818b    00000005     ltoQZamxA (.rodata.enetAppCpswCptsCfg)
                  700a8190    000000c0     ltoQZamxA (.rodata.enetAppCpswAleCfg)
                  700a8250    0000009c     drivers.am64x.r5f.ti-arm-clang.release.lib : udma_soc.obj (.rodata.gUdmaRxMappedChRingAttributes)
                  700a82ec    00000004     freertos.am64x.r5f.ti-arm-clang.release.lib : CacheP_armv7r.obj (.rodata.gCacheL1dCacheLineSize)
                  700a82f0    00000094     ltoQZamxA (.rodata.gEthMemCfg)
                  700a8384    0000008b     freertos.am64x.r5f.ti-arm-clang.release.lib : ClockP_freertos.obj (.rodata.str1.1)
                  700a840f    00000001     --HOLE-- [fill = 0]
                  700a8410    00000088     ltoQZamxA (.rodata.gEnetAppIoctlPermission_3G)
                  700a8498    00000084     drivers.am64x.r5f.ti-arm-clang.release.lib : udma_rmcfg.obj (.rodata.gUdmaRmDefBoardCfg_Bcdma)
                  700a851c    00000004     freertos.am64x.r5f.ti-arm-clang.release.lib : CacheP_armv7r.obj (.rodata.gCacheL1pCacheLineSize)
                  700a8520    00000080     ltoQZamxA (.rodata.cst32)
                  700a85a0    00000080     ltoQZamxA (.rodata.digits)
                  700a8620    0000007b     drivers.am64x.r5f.ti-arm-clang.release.lib : soc.obj (.rodata.str1.1)
                  700a869b    0000007a                                                : i2c_v0.obj (.rodata.str1.1)
                  700a8715    00000003     --HOLE-- [fill = 0]
                  700a8718    00000070     ti_dpl_config.obj (.rodata.gMpuRegionConfig)
                  700a8788    00000068     drivers.am64x.r5f.ti-arm-clang.release.lib : sciclient_irq_rm.obj (.rodata.tisci_if_TIMESYNC_EVENT_INTROUTER0)
                  700a87f0    0000005d     freertos.am64x.r5f.ti-arm-clang.release.lib : port.obj (.rodata.str1.1)
                  700a884d    00000003     --HOLE-- [fill = 0]
                  700a8850    00000058     drivers.am64x.r5f.ti-arm-clang.release.lib : sciclient_irq_rm.obj (.rodata.gRmIrqTree)
                  700a88a8    00000050     freertos.am64x.r5f.ti-arm-clang.release.lib : printf.obj (.rodata._ftoa.pow10)
                  700a88f8    0000004e     ltoQZamxA (.rodata.loopbackTestMenu)
                  700a8946    0000004b     drivers.am64x.r5f.ti-arm-clang.release.lib : uart_dma.obj (.rodata.str1.1)
                  700a8991    00000007     ltoQZamxA (.rodata._sproc_int.flit)
                  700a8998    00000048     ti_enet_soc.obj (.rodata.gEnetSoc_cpsw3gSocCfg)
                  700a89e0    00000048     ltoQZamxA (.rodata.powerof10)
                  700a8a28    00000040     ltoQZamxA (.rodata.gEnetCpbBoard_am64x_evm_EthPort)
                  700a8a68    00000040     ltoQZamxA (.rodata.gEnetVirtBoard_am64x_evm_EthPort)
                  700a8aa8    0000003c     ti_power_clock_config.obj (.rodata.gSocModulesClockFrequency)
                  700a8ae4    00000038     ltoQZamxA (.rodata.enetAppCpswMacPortCfg)
                  700a8b1c    00000034     drivers.am64x.r5f.ti-arm-clang.release.lib : sciclient_irq_rm.obj (.rodata.tisci_if_MAIN_GPIOMUX_INTROUTER0)
                  700a8b50    00000030                                                : sciclient_irq_rm.obj (.rodata.tisci_if_DMASS0_INTAGGR_0)
                  700a8b80    0000002d     freertos.am64x.r5f.ti-arm-clang.release.lib : DebugP_log.obj (.rodata.str1.1)
                  700a8bad    00000003     --HOLE-- [fill = 0]
                  700a8bb0    00000024     drivers.am64x.r5f.ti-arm-clang.release.lib : i2c_v0.obj (.rodata.I2C_defaultTransaction)
                  700a8bd4    00000024                                                : sciclient_irq_rm.obj (.rodata.tisci_if_MCU_MCU_GPIOMUX_INTROUTER0)
                  700a8bf8    00000020     ltoQZamxA (.rodata.gEnetCpbBoard_dp83867PhyCfg)
                  700a8c18    00000020     ltoQZamxA (.rodata.gEnetCpbBoard_dp83869PhyCfg)
                  700a8c38    00000020     drivers.am64x.r5f.ti-arm-clang.release.lib : sciclient_irq_rm.obj (.rodata.tisci_if_CPTS0)
                  700a8c58    0000001c                                                : sciclient_irq_rm.obj (.rodata.tisci_if_PRU_ICSSG0)
                  700a8c74    0000001c                                                : sciclient_irq_rm.obj (.rodata.tisci_if_PRU_ICSSG1)
                  700a8c90    00000018                                                : sciclient_soc_priv.obj (.rodata..Lswitch.table.Sciclient_getDevId)
                  700a8ca8    00000018     ltoQZamxA (.rodata.enetAppCpswMdioCfg)
                  700a8cc0    00000018     ltoQZamxA (.rodata.gEnetAppRmDefCfg_3G)
                  700a8cd8    00000018     drivers.am64x.r5f.ti-arm-clang.release.lib : sciclient_irq_rm.obj (.rodata.tisci_if_CMP_EVENT_INTROUTER0)
                  700a8cf0    00000014     ti_power_clock_config.obj (.rodata.gSocModules)
                  700a8d04    00000014     drivers.am64x.r5f.ti-arm-clang.release.lib : sciclient_irq_rm.obj (.rodata.tisci_if_PCIE0)
                  700a8d18    00000012     freertos.am64x.r5f.ti-arm-clang.release.lib : printf.obj (.rodata.str1.1)
                  700a8d2a    00000002     --HOLE-- [fill = 0]
                  700a8d2c    00000010     ltoQZamxA (.rodata.cst16)
                  700a8d3c    00000010     drivers.am64x.r5f.ti-arm-clang.release.lib : sciclient_irq_rm.obj (.rodata.tisci_if_CPSW0)
                  700a8d4c    0000000c     ltoQZamxA (.rodata..Lswitch.table.CSL_CPSW_getAleIPv6HighEntryOffset)
                  700a8d58    0000000c     ltoQZamxA (.rodata..Lswitch.table.Dp83869_config)
                  700a8d64    0000000c     drivers.am64x.r5f.ti-arm-clang.release.lib : i2c_v0.obj (.rodata..Lswitch.table.I2C_open)
                  700a8d70    0000000c     ltoQZamxA (.rodata.gEnetPhyDrvs)
                  700a8d7c    0000000c     ti_dpl_config.obj (.rodata.gMpuConfig)
                  700a8d88    00000008     ltoQZamxA (.rodata..L__const._sproc_float.special)
                  700a8d90    00000008     drivers.am64x.r5f.ti-arm-clang.release.lib : sciclient_irq_rm.obj (.rodata.CMP_EVENT_INTROUTER0_outp_0_15_to_GICSS0_spi_48_63)
                  700a8d98    00000008                                                : sciclient_irq_rm.obj (.rodata.CMP_EVENT_INTROUTER0_outp_16_23_to_R5FSS0_CORE0_intr_48_55)
                  700a8da0    00000008                                                : sciclient_irq_rm.obj (.rodata.CMP_EVENT_INTROUTER0_outp_16_23_to_R5FSS0_CORE1_intr_48_55)
                  700a8da8    00000008                                                : sciclient_irq_rm.obj (.rodata.CMP_EVENT_INTROUTER0_outp_24_31_to_R5FSS1_CORE0_intr_48_55)
                  700a8db0    00000008                                                : sciclient_irq_rm.obj (.rodata.CMP_EVENT_INTROUTER0_outp_24_31_to_R5FSS1_CORE1_intr_48_55)
                  700a8db8    00000008                                                : sciclient_irq_rm.obj (.rodata.CMP_EVENT_INTROUTER0_outp_32_39_to_DMASS0_INTAGGR_0_intaggr_levi_pend_0_7)
                  700a8dc0    00000008                                                : sciclient_irq_rm.obj (.rodata.CPSW0_cpts_comp_0_0_to_CMP_EVENT_INTROUTER0_in_80_80)
                  700a8dc8    00000008                                                : sciclient_irq_rm.obj (.rodata.CPSW0_cpts_genf0_1_1_to_TIMESYNC_EVENT_INTROUTER0_in_21_21)
                  700a8dd0    00000008                                                : sciclient_irq_rm.obj (.rodata.CPSW0_cpts_genf1_2_2_to_TIMESYNC_EVENT_INTROUTER0_in_22_22)
                  700a8dd8    00000008                                                : sciclient_irq_rm.obj (.rodata.CPSW0_cpts_sync_3_3_to_TIMESYNC_EVENT_INTROUTER0_in_34_34)
                  700a8de0    00000008                                                : sciclient_irq_rm.obj (.rodata.CPTS0_cpts_comp_0_0_to_CMP_EVENT_INTROUTER0_in_82_82)
                  700a8de8    00000008                                                : sciclient_irq_rm.obj (.rodata.CPTS0_cpts_genf0_1_1_to_TIMESYNC_EVENT_INTROUTER0_in_16_16)
                  700a8df0    00000008                                                : sciclient_irq_rm.obj (.rodata.CPTS0_cpts_genf1_2_2_to_TIMESYNC_EVENT_INTROUTER0_in_17_17)
                  700a8df8    00000008                                                : sciclient_irq_rm.obj (.rodata.CPTS0_cpts_genf2_3_3_to_TIMESYNC_EVENT_INTROUTER0_in_18_18)
                  700a8e00    00000008                                                : sciclient_irq_rm.obj (.rodata.CPTS0_cpts_genf3_4_4_to_TIMESYNC_EVENT_INTROUTER0_in_19_19)
                  700a8e08    00000008                                                : sciclient_irq_rm.obj (.rodata.CPTS0_cpts_genf4_5_5_to_TIMESYNC_EVENT_INTROUTER0_in_20_20)
                  700a8e10    00000008                                                : sciclient_irq_rm.obj (.rodata.CPTS0_cpts_genf5_6_6_to_TIMESYNC_EVENT_INTROUTER0_in_24_24)
                  700a8e18    00000008                                                : sciclient_irq_rm.obj (.rodata.CPTS0_cpts_sync_7_7_to_TIMESYNC_EVENT_INTROUTER0_in_35_35)
                  700a8e20    00000008                                                : sciclient_irq_rm.obj (.rodata.DMASS0_INTAGGR_0_intaggr_vintr_pend_0_39_to_GICSS0_spi_64_103)
                  700a8e28    00000008                                                : sciclient_irq_rm.obj (.rodata.DMASS0_INTAGGR_0_intaggr_vintr_pend_120_127_to_R5FSS1_CORE0_intr_8_15)
                  700a8e30    00000008                                                : sciclient_irq_rm.obj (.rodata.DMASS0_INTAGGR_0_intaggr_vintr_pend_128_135_to_R5FSS1_CORE1_intr_8_15)
                  700a8e38    00000008                                                : sciclient_irq_rm.obj (.rodata.DMASS0_INTAGGR_0_intaggr_vintr_pend_152_159_to_PRU_ICSSG0_pr1_slv_intr_16_23)
                  700a8e40    00000008                                                : sciclient_irq_rm.obj (.rodata.DMASS0_INTAGGR_0_intaggr_vintr_pend_160_167_to_PRU_ICSSG1_pr1_slv_intr_16_23)
                  700a8e48    00000008                                                : sciclient_irq_rm.obj (.rodata.DMASS0_INTAGGR_0_intaggr_vintr_pend_168_183_to_MCU_M4FSS0_CORE0_nvic_32_47)
                  700a8e50    00000008                                                : sciclient_irq_rm.obj (.rodata.DMASS0_INTAGGR_0_intaggr_vintr_pend_40_71_to_R5FSS0_CORE0_intr_64_95)
                  700a8e58    00000008                                                : sciclient_irq_rm.obj (.rodata.DMASS0_INTAGGR_0_intaggr_vintr_pend_40_71_to_R5FSS0_CORE1_intr_64_95)
                  700a8e60    00000008                                                : sciclient_irq_rm.obj (.rodata.DMASS0_INTAGGR_0_intaggr_vintr_pend_72_79_to_R5FSS0_CORE0_intr_8_15)
                  700a8e68    00000008                                                : sciclient_irq_rm.obj (.rodata.DMASS0_INTAGGR_0_intaggr_vintr_pend_80_87_to_R5FSS0_CORE1_intr_8_15)
                  700a8e70    00000008                                                : sciclient_irq_rm.obj (.rodata.DMASS0_INTAGGR_0_intaggr_vintr_pend_88_119_to_R5FSS1_CORE0_intr_64_95)
                  700a8e78    00000008                                                : sciclient_irq_rm.obj (.rodata.DMASS0_INTAGGR_0_intaggr_vintr_pend_88_119_to_R5FSS1_CORE1_intr_64_95)
                  700a8e80    00000008                                                : sciclient_irq_rm.obj (.rodata.EPWM0_epwm_synco_o_0_0_to_TIMESYNC_EVENT_INTROUTER0_in_39_39)
                  700a8e88    00000008                                                : sciclient_irq_rm.obj (.rodata.EPWM3_epwm_synco_o_0_0_to_TIMESYNC_EVENT_INTROUTER0_in_40_40)
                  700a8e90    00000008                                                : sciclient_irq_rm.obj (.rodata.EPWM6_epwm_synco_o_0_0_to_TIMESYNC_EVENT_INTROUTER0_in_41_41)
                  700a8e98    00000008                                                : sciclient_irq_rm.obj (.rodata.GPIO0_gpio_0_89_to_MAIN_GPIOMUX_INTROUTER0_in_0_89)
                  700a8ea0    00000008                                                : sciclient_irq_rm.obj (.rodata.GPIO0_gpio_bank_90_98_to_MAIN_GPIOMUX_INTROUTER0_in_190_198)
                  700a8ea8    00000008                                                : sciclient_irq_rm.obj (.rodata.GPIO1_gpio_0_89_to_MAIN_GPIOMUX_INTROUTER0_in_90_179)
                  700a8eb0    00000008                                                : sciclient_irq_rm.obj (.rodata.GPIO1_gpio_bank_90_98_to_MAIN_GPIOMUX_INTROUTER0_in_180_188)
                  700a8eb8    00000008                                                : sciclient_irq_rm.obj (.rodata.GPMC0_gpmc_sdmareq_0_0_to_DMASS0_INTAGGR_0_intaggr_levi_pend_29_29)
                  700a8ec0    00000008                                                : sciclient_irq_rm.obj (.rodata.GTC0_gtc_push_event_0_0_to_TIMESYNC_EVENT_INTROUTER0_in_36_36)
                  700a8ec8    00000008                                                : sciclient_irq_rm.obj (.rodata.MAIN_GPIOMUX_INTROUTER0_outp_0_15_to_GICSS0_spi_32_47)
                  700a8ed0    00000008                                                : sciclient_irq_rm.obj (.rodata.MAIN_GPIOMUX_INTROUTER0_outp_0_15_to_R5FSS0_CORE0_intr_32_47)
                  700a8ed8    00000008                                                : sciclient_irq_rm.obj (.rodata.MAIN_GPIOMUX_INTROUTER0_outp_0_15_to_R5FSS0_CORE1_intr_32_47)
                  700a8ee0    00000008                                                : sciclient_irq_rm.obj (.rodata.MAIN_GPIOMUX_INTROUTER0_outp_0_15_to_R5FSS1_CORE0_intr_32_47)
                  700a8ee8    00000008                                                : sciclient_irq_rm.obj (.rodata.MAIN_GPIOMUX_INTROUTER0_outp_0_15_to_R5FSS1_CORE1_intr_32_47)
                  700a8ef0    00000008                                                : sciclient_irq_rm.obj (.rodata.MAIN_GPIOMUX_INTROUTER0_outp_16_17_to_DMASS0_INTAGGR_0_intaggr_levi_pend_24_25)
                  700a8ef8    00000008                                                : sciclient_irq_rm.obj (.rodata.MAIN_GPIOMUX_INTROUTER0_outp_18_23_to_PRU_ICSSG0_pr1_iep0_cap_intr_req_4_9)
                  700a8f00    00000008                                                : sciclient_irq_rm.obj (.rodata.MAIN_GPIOMUX_INTROUTER0_outp_18_23_to_PRU_ICSSG1_pr1_iep0_cap_intr_req_4_9)
                  700a8f08    00000008                                                : sciclient_irq_rm.obj (.rodata.MAIN_GPIOMUX_INTROUTER0_outp_24_29_to_PRU_ICSSG0_pr1_iep1_cap_intr_req_10_15)
                  700a8f10    00000008                                                : sciclient_irq_rm.obj (.rodata.MAIN_GPIOMUX_INTROUTER0_outp_24_29_to_PRU_ICSSG1_pr1_iep1_cap_intr_req_10_15)
                  700a8f18    00000008                                                : sciclient_irq_rm.obj (.rodata.MAIN_GPIOMUX_INTROUTER0_outp_30_37_to_DMASS0_INTAGGR_0_intaggr_levi_pend_16_23)
                  700a8f20    00000008                                                : sciclient_irq_rm.obj (.rodata.MAIN_GPIOMUX_INTROUTER0_outp_38_45_to_PRU_ICSSG0_pr1_slv_intr_46_53)
                  700a8f28    00000008                                                : sciclient_irq_rm.obj (.rodata.MAIN_GPIOMUX_INTROUTER0_outp_46_53_to_PRU_ICSSG1_pr1_slv_intr_46_53)
                  700a8f30    00000008                                                : sciclient_irq_rm.obj (.rodata.MCU_GPIO0_gpio_0_29_to_MCU_MCU_GPIOMUX_INTROUTER0_in_0_29)
                  700a8f38    00000008                                                : sciclient_irq_rm.obj (.rodata.MCU_GPIO0_gpio_bank_30_31_to_MCU_MCU_GPIOMUX_INTROUTER0_in_30_31)
                  700a8f40    00000008                                                : sciclient_irq_rm.obj (.rodata.MCU_MCU_GPIOMUX_INTROUTER0_outp_0_3_to_GICSS0_spi_104_107)
                  700a8f48    00000008                                                : sciclient_irq_rm.obj (.rodata.MCU_MCU_GPIOMUX_INTROUTER0_outp_0_3_to_R5FSS0_CORE0_intr_104_107)
                  700a8f50    00000008                                                : sciclient_irq_rm.obj (.rodata.MCU_MCU_GPIOMUX_INTROUTER0_outp_0_3_to_R5FSS0_CORE1_intr_104_107)
                  700a8f58    00000008                                                : sciclient_irq_rm.obj (.rodata.MCU_MCU_GPIOMUX_INTROUTER0_outp_0_3_to_R5FSS1_CORE0_intr_104_107)
                  700a8f60    00000008                                                : sciclient_irq_rm.obj (.rodata.MCU_MCU_GPIOMUX_INTROUTER0_outp_0_3_to_R5FSS1_CORE1_intr_104_107)
                  700a8f68    00000008                                                : sciclient_irq_rm.obj (.rodata.MCU_MCU_GPIOMUX_INTROUTER0_outp_4_7_to_MCU_M4FSS0_CORE0_nvic_0_3)
                  700a8f70    00000008                                                : sciclient_irq_rm.obj (.rodata.MCU_MCU_GPIOMUX_INTROUTER0_outp_8_11_to_MCU_ESM0_esm_pls_event0_88_91)
                  700a8f78    00000008                                                : sciclient_irq_rm.obj (.rodata.MCU_MCU_GPIOMUX_INTROUTER0_outp_8_11_to_MCU_ESM0_esm_pls_event1_92_95)
                  700a8f80    00000008                                                : sciclient_irq_rm.obj (.rodata.MCU_MCU_GPIOMUX_INTROUTER0_outp_8_11_to_MCU_ESM0_esm_pls_event2_96_99)
                  700a8f88    00000008                                                : sciclient_irq_rm.obj (.rodata.PCIE0_pcie_cpts_comp_0_0_to_CMP_EVENT_INTROUTER0_in_81_81)
                  700a8f90    00000008                                                : sciclient_irq_rm.obj (.rodata.PCIE0_pcie_cpts_genf0_1_1_to_TIMESYNC_EVENT_INTROUTER0_in_23_23)
                  700a8f98    00000008                                                : sciclient_irq_rm.obj (.rodata.PCIE0_pcie_cpts_hw1_push_2_2_to_TIMESYNC_EVENT_INTROUTER0_in_37_37)
                  700a8fa0    00000008                                                : sciclient_irq_rm.obj (.rodata.PCIE0_pcie_cpts_sync_3_3_to_TIMESYNC_EVENT_INTROUTER0_in_33_33)
                  700a8fa8    00000008                                                : sciclient_irq_rm.obj (.rodata.PCIE0_pcie_ptm_valid_pulse_4_4_to_TIMESYNC_EVENT_INTROUTER0_in_38_38)
                  700a8fb0    00000008                                                : sciclient_irq_rm.obj (.rodata.PRU_ICSSG0_pr1_edc0_sync0_out_0_0_to_TIMESYNC_EVENT_INTROUTER0_in_25_25)
                  700a8fb8    00000008                                                : sciclient_irq_rm.obj (.rodata.PRU_ICSSG0_pr1_edc0_sync1_out_1_1_to_TIMESYNC_EVENT_INTROUTER0_in_26_26)
                  700a8fc0    00000008                                                : sciclient_irq_rm.obj (.rodata.PRU_ICSSG0_pr1_edc1_sync0_out_2_2_to_TIMESYNC_EVENT_INTROUTER0_in_27_27)
                  700a8fc8    00000008                                                : sciclient_irq_rm.obj (.rodata.PRU_ICSSG0_pr1_edc1_sync1_out_3_3_to_TIMESYNC_EVENT_INTROUTER0_in_28_28)
                  700a8fd0    00000008                                                : sciclient_irq_rm.obj (.rodata.PRU_ICSSG0_pr1_host_intr_req_4_11_to_CMP_EVENT_INTROUTER0_in_0_7)
                  700a8fd8    00000008                                                : sciclient_irq_rm.obj (.rodata.PRU_ICSSG0_pr1_iep0_cmp_intr_req_12_27_to_CMP_EVENT_INTROUTER0_in_16_31)
                  700a8fe0    00000008                                                : sciclient_irq_rm.obj (.rodata.PRU_ICSSG0_pr1_iep1_cmp_intr_req_28_43_to_CMP_EVENT_INTROUTER0_in_32_47)
                  700a8fe8    00000008                                                : sciclient_irq_rm.obj (.rodata.PRU_ICSSG1_pr1_edc0_sync0_out_0_0_to_TIMESYNC_EVENT_INTROUTER0_in_29_29)
                  700a8ff0    00000008                                                : sciclient_irq_rm.obj (.rodata.PRU_ICSSG1_pr1_edc0_sync1_out_1_1_to_TIMESYNC_EVENT_INTROUTER0_in_30_30)
                  700a8ff8    00000008                                                : sciclient_irq_rm.obj (.rodata.PRU_ICSSG1_pr1_edc1_sync0_out_2_2_to_TIMESYNC_EVENT_INTROUTER0_in_31_31)
                  700a9000    00000008                                                : sciclient_irq_rm.obj (.rodata.PRU_ICSSG1_pr1_edc1_sync1_out_3_3_to_TIMESYNC_EVENT_INTROUTER0_in_32_32)
                  700a9008    00000008                                                : sciclient_irq_rm.obj (.rodata.PRU_ICSSG1_pr1_host_intr_req_4_11_to_CMP_EVENT_INTROUTER0_in_8_15)
                  700a9010    00000008                                                : sciclient_irq_rm.obj (.rodata.PRU_ICSSG1_pr1_iep0_cmp_intr_req_12_27_to_CMP_EVENT_INTROUTER0_in_48_63)
                  700a9018    00000008                                                : sciclient_irq_rm.obj (.rodata.PRU_ICSSG1_pr1_iep1_cmp_intr_req_28_43_to_CMP_EVENT_INTROUTER0_in_64_79)
                  700a9020    00000008                                                : sciclient_irq_rm.obj (.rodata.TIMER0_timer_pwm_0_0_to_TIMESYNC_EVENT_INTROUTER0_in_0_0)
                  700a9028    00000008                                                : sciclient_irq_rm.obj (.rodata.TIMER1_timer_pwm_0_0_to_TIMESYNC_EVENT_INTROUTER0_in_1_1)
                  700a9030    00000008                                                : sciclient_irq_rm.obj (.rodata.TIMER2_timer_pwm_0_0_to_TIMESYNC_EVENT_INTROUTER0_in_2_2)
                  700a9038    00000008                                                : sciclient_irq_rm.obj (.rodata.TIMER3_timer_pwm_0_0_to_TIMESYNC_EVENT_INTROUTER0_in_3_3)
                  700a9040    00000008                                                : sciclient_irq_rm.obj (.rodata.TIMESYNC_EVENT_INTROUTER0_outl_0_7_to_DMASS0_INTAGGR_0_intaggr_levi_pend_8_15)
                  700a9048    00000008                                                : sciclient_irq_rm.obj (.rodata.TIMESYNC_EVENT_INTROUTER0_outl_10_10_to_PRU_ICSSG0_pr1_edc1_latch0_in_2_2)
                  700a9050    00000008                                                : sciclient_irq_rm.obj (.rodata.TIMESYNC_EVENT_INTROUTER0_outl_11_11_to_PRU_ICSSG0_pr1_edc1_latch1_in_3_3)
                  700a9058    00000008                                                : sciclient_irq_rm.obj (.rodata.TIMESYNC_EVENT_INTROUTER0_outl_12_12_to_PRU_ICSSG1_pr1_edc0_latch0_in_0_0)
                  700a9060    00000008                                                : sciclient_irq_rm.obj (.rodata.TIMESYNC_EVENT_INTROUTER0_outl_13_13_to_PRU_ICSSG1_pr1_edc0_latch1_in_1_1)
                  700a9068    00000008                                                : sciclient_irq_rm.obj (.rodata.TIMESYNC_EVENT_INTROUTER0_outl_14_14_to_PRU_ICSSG1_pr1_edc1_latch0_in_2_2)
                  700a9070    00000008                                                : sciclient_irq_rm.obj (.rodata.TIMESYNC_EVENT_INTROUTER0_outl_15_15_to_PRU_ICSSG1_pr1_edc1_latch1_in_3_3)
                  700a9078    00000008                                                : sciclient_irq_rm.obj (.rodata.TIMESYNC_EVENT_INTROUTER0_outl_16_16_to_CPTS0_cpts_hw1_push_0_0)
                  700a9080    00000008                                                : sciclient_irq_rm.obj (.rodata.TIMESYNC_EVENT_INTROUTER0_outl_17_17_to_CPTS0_cpts_hw2_push_1_1)
                  700a9088    00000008                                                : sciclient_irq_rm.obj (.rodata.TIMESYNC_EVENT_INTROUTER0_outl_18_18_to_CPTS0_cpts_hw3_push_2_2)
                  700a9090    00000008                                                : sciclient_irq_rm.obj (.rodata.TIMESYNC_EVENT_INTROUTER0_outl_19_19_to_CPTS0_cpts_hw4_push_3_3)
                  700a9098    00000008                                                : sciclient_irq_rm.obj (.rodata.TIMESYNC_EVENT_INTROUTER0_outl_20_20_to_CPTS0_cpts_hw5_push_4_4)
                  700a90a0    00000008                                                : sciclient_irq_rm.obj (.rodata.TIMESYNC_EVENT_INTROUTER0_outl_21_21_to_CPTS0_cpts_hw6_push_5_5)
                  700a90a8    00000008                                                : sciclient_irq_rm.obj (.rodata.TIMESYNC_EVENT_INTROUTER0_outl_22_22_to_CPTS0_cpts_hw7_push_6_6)
                  700a90b0    00000008                                                : sciclient_irq_rm.obj (.rodata.TIMESYNC_EVENT_INTROUTER0_outl_23_23_to_CPTS0_cpts_hw8_push_7_7)
                  700a90b8    00000008                                                : sciclient_irq_rm.obj (.rodata.TIMESYNC_EVENT_INTROUTER0_outl_29_29_to_PCIE0_pcie_cpts_hw2_push_0_0)
                  700a90c0    00000008                                                : sciclient_irq_rm.obj (.rodata.TIMESYNC_EVENT_INTROUTER0_outl_30_30_to_CPSW0_cpts_hw1_push_0_0)
                  700a90c8    00000008                                                : sciclient_irq_rm.obj (.rodata.TIMESYNC_EVENT_INTROUTER0_outl_31_31_to_CPSW0_cpts_hw2_push_1_1)
                  700a90d0    00000008                                                : sciclient_irq_rm.obj (.rodata.TIMESYNC_EVENT_INTROUTER0_outl_32_32_to_CPSW0_cpts_hw3_push_2_2)
                  700a90d8    00000008                                                : sciclient_irq_rm.obj (.rodata.TIMESYNC_EVENT_INTROUTER0_outl_33_33_to_CPSW0_cpts_hw4_push_3_3)
                  700a90e0    00000008                                                : sciclient_irq_rm.obj (.rodata.TIMESYNC_EVENT_INTROUTER0_outl_34_34_to_CPSW0_cpts_hw5_push_4_4)
                  700a90e8    00000008                                                : sciclient_irq_rm.obj (.rodata.TIMESYNC_EVENT_INTROUTER0_outl_35_35_to_CPSW0_cpts_hw6_push_5_5)
                  700a90f0    00000008                                                : sciclient_irq_rm.obj (.rodata.TIMESYNC_EVENT_INTROUTER0_outl_36_36_to_CPSW0_cpts_hw7_push_6_6)
                  700a90f8    00000008                                                : sciclient_irq_rm.obj (.rodata.TIMESYNC_EVENT_INTROUTER0_outl_37_37_to_CPSW0_cpts_hw8_push_7_7)
                  700a9100    00000008                                                : sciclient_irq_rm.obj (.rodata.TIMESYNC_EVENT_INTROUTER0_outl_8_8_to_PRU_ICSSG0_pr1_edc0_latch0_in_0_0)
                  700a9108    00000008                                                : sciclient_irq_rm.obj (.rodata.TIMESYNC_EVENT_INTROUTER0_outl_9_9_to_PRU_ICSSG0_pr1_edc0_latch1_in_1_1)
                  700a9110    00000008     ti_dpl_config.obj (.rodata.gCacheConfig)
                  700a9118    00000008     drivers.am64x.r5f.ti-arm-clang.release.lib : sciclient_irq_rm.obj (.rodata.tisci_if_GPIO0)
                  700a9120    00000008                                                : sciclient_irq_rm.obj (.rodata.tisci_if_GPIO1)
                  700a9128    00000008                                                : sciclient_irq_rm.obj (.rodata.tisci_if_MCU_GPIO0)
                  700a9130    00000008                                                : sciclient_irq_rm.obj (.rodata.tisci_irq_CMP_EVENT_INTROUTER0)
                  700a9138    00000008                                                : sciclient_irq_rm.obj (.rodata.tisci_irq_CPSW0)
                  700a9140    00000008                                                : sciclient_irq_rm.obj (.rodata.tisci_irq_CPTS0)
                  700a9148    00000008                                                : sciclient_irq_rm.obj (.rodata.tisci_irq_DMASS0_INTAGGR_0)
                  700a9150    00000008                                                : sciclient_irq_rm.obj (.rodata.tisci_irq_EPWM0)
                  700a9158    00000008                                                : sciclient_irq_rm.obj (.rodata.tisci_irq_EPWM3)
                  700a9160    00000008                                                : sciclient_irq_rm.obj (.rodata.tisci_irq_EPWM6)
                  700a9168    00000008                                                : sciclient_irq_rm.obj (.rodata.tisci_irq_GPIO0)
                  700a9170    00000008                                                : sciclient_irq_rm.obj (.rodata.tisci_irq_GPIO1)
                  700a9178    00000008                                                : sciclient_irq_rm.obj (.rodata.tisci_irq_GPMC0)
                  700a9180    00000008                                                : sciclient_irq_rm.obj (.rodata.tisci_irq_GTC0)
                  700a9188    00000008                                                : sciclient_irq_rm.obj (.rodata.tisci_irq_MAIN_GPIOMUX_INTROUTER0)
                  700a9190    00000008                                                : sciclient_irq_rm.obj (.rodata.tisci_irq_MCU_GPIO0)
                  700a9198    00000008                                                : sciclient_irq_rm.obj (.rodata.tisci_irq_MCU_MCU_GPIOMUX_INTROUTER0)
                  700a91a0    00000008                                                : sciclient_irq_rm.obj (.rodata.tisci_irq_PCIE0)
                  700a91a8    00000008                                                : sciclient_irq_rm.obj (.rodata.tisci_irq_PRU_ICSSG0)
                  700a91b0    00000008                                                : sciclient_irq_rm.obj (.rodata.tisci_irq_PRU_ICSSG1)
                  700a91b8    00000008                                                : sciclient_irq_rm.obj (.rodata.tisci_irq_TIMER0)
                  700a91c0    00000008                                                : sciclient_irq_rm.obj (.rodata.tisci_irq_TIMER1)
                  700a91c8    00000008                                                : sciclient_irq_rm.obj (.rodata.tisci_irq_TIMER2)
                  700a91d0    00000008                                                : sciclient_irq_rm.obj (.rodata.tisci_irq_TIMER3)
                  700a91d8    00000008                                                : sciclient_irq_rm.obj (.rodata.tisci_irq_TIMESYNC_EVENT_INTROUTER0)
                  700a91e0    00000006     ltoQZamxA (.rodata._sproc_int.barr)
                  700a91e6    00000002     --HOLE-- [fill = 0]
                  700a91e8    00000004     drivers.am64x.r5f.ti-arm-clang.release.lib : sciclient_irq_rm.obj (.rodata.gRmIrqTreeCount)
                  700a91ec    00000004                                                : sciclient_irq_rm.obj (.rodata.tisci_if_EPWM0)
                  700a91f0    00000004                                                : sciclient_irq_rm.obj (.rodata.tisci_if_EPWM3)
                  700a91f4    00000004                                                : sciclient_irq_rm.obj (.rodata.tisci_if_EPWM6)
                  700a91f8    00000004                                                : sciclient_irq_rm.obj (.rodata.tisci_if_GPMC0)
                  700a91fc    00000004                                                : sciclient_irq_rm.obj (.rodata.tisci_if_GTC0)
                  700a9200    00000004                                                : sciclient_irq_rm.obj (.rodata.tisci_if_TIMER0)
                  700a9204    00000004                                                : sciclient_irq_rm.obj (.rodata.tisci_if_TIMER1)
                  700a9208    00000004                                                : sciclient_irq_rm.obj (.rodata.tisci_if_TIMER2)
                  700a920c    00000004                                                : sciclient_irq_rm.obj (.rodata.tisci_if_TIMER3)
                  700a9210    00000004     freertos.am64x.r5f.ti-arm-clang.release.lib : tasks.obj (.rodata.uxTopUsedPriority)
                  700a9214    0000000c     --HOLE-- [fill = 0]

.enet_dma_mem 
*          0    700a9280    00017aa0     NOLOAD SECTION
                  700a9280    00004a40     ltoQZamxA (.bss:ENET_DMA_DESC_MEMPOOL)
                  700adcc0    00000040     --HOLE--
                  700add00    00001010     ltoQZamxA (.bss:ENET_DMA_RING_MEMPOOL)
                  700aed10    00000010     --HOLE--
                  700aed20    00012000     ltoQZamxA (.bss:ENET_DMA_PKT_MEMPOOL)

.bss       0    700c0d80    0000fb80     UNINITIALIZED
                  700c0d80    00002800     ltoQZamxA (.bss.gEnetLpbkTaskStackRx)
                  700c3580    00002800     ltoQZamxA (.bss.gEnetLpbkTaskStackTx)
                  700c5d80    00002000     (.common:gMainTaskStack)
                  700c7d80    00001680     ltoQZamxA (.bss.gAppPktInfoMem_LargePool)
                  700c9400    00001008     (.common:gHwiCtrl)
                  700ca408    00001000     freertos.am64x.r5f.ti-arm-clang.release.lib : port.obj (.bss.uxIdleTaskStack)
                  700cb408    00000014                                                 : timers.obj (.bss.xActiveTimerList1)
                  700cb41c    00000004                                                 : HwiP_armv7r_handlers_freertos.obj (.bss.gdummy)
                  700cb420    00000de0     ltoQZamxA (.bss.gEnetAppSysCfgObj)
                  700cc200    00000c48     ltoQZamxA (.bss:ENET_DMA_OBJ_MEM)
                  700cce48    000009ec     (.common:gUdmaDrvObj)
                  700cd834    00000004     freertos.am64x.r5f.ti-arm-clang.release.lib : HwiP_armv7r_vim.obj (.bss.gdummy)
                  700cd838    000009c0     ltoQZamxA (.bss.gOsalSemPEnetOsalPool)
                  700ce1f8    000004f0     ti_enet_soc.obj (.bss.gEnetSoc_dmaObj)
                  700ce6e8    00000418     loopback_cfg.obj (.bss.gEnetLpbk)
                  700ceb00    00000400     freertos.am64x.r5f.ti-arm-clang.release.lib : port.obj (.bss.uxTimerTaskStack)
                  700cef00    00000310     ltoQZamxA (.bss.gI2cObjects)
                  700cf210    00000280     ltoQZamxA (.bss.gUartObjects)
                  700cf490    00000280     freertos.am64x.r5f.ti-arm-clang.release.lib : tasks.obj (.bss.pxReadyTasksLists)
                  700cf710    00000240     ltoQZamxA (.bss.gAppPktInfoContainerMem_LargePool)
                  700cf950    00000240     ltoQZamxA (.bss.gOsalHwiPEnetOsalPool)
                  700cfb90    00000228     ltoQZamxA (.bss.gEnetPhy_phyObjs)
                  700cfdb8    000001ac     (.common:gEepromObject_AT24C)
                  700cff64    00000120     libsysbm.a : trgmsg.c.obj (.bss:_CIOBUF_)
                  700d0084    00000100     freertos.am64x.r5f.ti-arm-clang.release.lib : timers.obj (.bss.prvCheckForValidListAndQueue.ucStaticTimerQueueStorage)
                  700d0184    00000100     (.common:xQueueRegistry)
                  700d0284    00000004                                                 : timers.obj (.bss.pxCurrentTimerList)
                  700d0288    000000d8     enet-cpsw.am64x.r5f.ti-arm-clang.release.lib : enet_utils.obj (.bss.gEnetUtilsObj)
                  700d0360    000000a0     libc.a : defs.c.obj (.bss.__TI_tmpnams)
                  700d0400    000000a0     (.common:gTaskP_ctrl)
                  700d04a0    00000098     freertos.am64x.r5f.ti-arm-clang.release.lib : DebugP_freertos.obj (.bss.gDebugLogLockObj)
                  700d0538    0000008c                                                 : port.obj (.bss.xIdleTaskTCB)
                  700d05c4    0000008c                                                 : port.obj (.bss.xTimerTaskTCB)
                  700d0650    0000008c     (.common:gMainTaskObj)
                  700d06dc    00000050                                                 : timers.obj (.bss.prvCheckForValidListAndQueue.xStaticTimerQueue)
                  700d072c    00000050     (.common:gRovDummyQueue)
                  700d077c    00000004                                                 : tasks.obj (.bss.pxDelayedTaskList)
                  700d0780    0000003c     enet-cpsw.am64x.r5f.ti-arm-clang.release.lib : enet_osal.obj (.bss.gEnetOsalObj)
                  700d07bc    00000004     freertos.am64x.r5f.ti-arm-clang.release.lib : tasks.obj (.bss.pxOverflowDelayedTaskList)
                  700d07c0    00000038     (.common:gClockCtrl)
                  700d07f8    00000028     drivers.am64x.r5f.ti-arm-clang.release.lib : sciclient_rm_irq.obj (.bss.gPstack)
                  700d0820    00000014     freertos.am64x.r5f.ti-arm-clang.release.lib : timers.obj (.bss.xActiveTimerList2)
                  700d0834    00000014                                                 : tasks.obj (.bss.xDelayedTaskList1)
                  700d0848    00000014                                                 : tasks.obj (.bss.xDelayedTaskList2)
                  700d085c    00000014                                                 : tasks.obj (.bss.xPendingReadyList)
                  700d0870    00000014                                                 : tasks.obj (.bss.xSuspendedTaskList)
                  700d0884    00000014                                                 : tasks.obj (.bss.xTasksWaitingTermination)
                  700d0898    00000010     (.common:virtToPhymap)
                  700d08a8    00000008     libsysbm.a : hostopen.c.obj (.bss.parmbuf)
                  700d08b0    00000004     freertos.am64x.r5f.ti-arm-clang.release.lib : timers.obj (.bss.pxOverflowTimerList)
                  700d08b4    00000004     ltoQZamxA (.bss.sys_free)
                  700d08b8    00000004     (.common:gEepromHandle)
                  700d08bc    00000004     (.common:gMainTask)
                  700d08c0    00000040     --HOLE--

.sysmem    0    700d0900    00000400     UNINITIALIZED
                  700d0900    00000010     libc.a : memory.c.obj (.sysmem)
                  700d0910    000003f0     --HOLE--

.stack     0    700d0d00    00002000     UNINITIALIZED
                  700d0d00    00000004     freertos.am64x.r5f.ti-arm-clang.release.lib : boot_armv7r_asm.obj (.stack)
                  700d0d04    00001ffc     --HOLE--

.data      0    700d2d00    00002ca0     
                  700d2d00    000018d0     ti_enet_soc.obj (.data.gEnetSoc_cpsw3g)
                  700d45d0    00000370     ti_enet_soc.obj (.data.gEnetSoc_cpsw3gMacObj)
                  700d4940    00000178     ltoQZamxA (.data.CpswAleIoctlHandlerRegistry)
                  700d4ab8    00000138     ltoQZamxA (.data.CpswMacPortIoctlHandlerRegistry)
                  700d4bf0    00000108     ltoQZamxA (.data.gPinMuxMainDomainCfg)
                  700d4cf8    000000f8     ltoQZamxA (.data.gEnetMemObj)
                  700d4df0    000000f0     libc.a : defs.c.obj (.data._ftable)
                  700d4ee0    000000d8     ltoQZamxA (.data.CpswCptsIoctlHandlerRegistry)
                  700d4fb8    000000b8     drivers.am64x.r5f.ti-arm-clang.release.lib : sciclient_irq_rm.obj (.data.vint_usage_count_DMASS0_INTAGGR_0)
                  700d5070    000000a8     ltoQZamxA (.data.CpswIoctlHandlerRegistry)
                  700d5118    000000a0     ltoQZamxA (.data.MdioIoctlHandlerRegistry)
                  700d51b8    0000009c     drivers.am64x.r5f.ti-arm-clang.release.lib : i2c_v0.obj (.data.gI2cDrvObj)
                  700d5254    0000009c                                                : uart_v0.obj (.data.gUartDrvObj)
                  700d52f0    00000098     ltoQZamxA (.data.CpswHostPortIoctlHandlerRegistry)
                  700d5388    00000078     libsysbm.a : host_device.c.obj (.data._device)
                  700d5400    00000068     ltoQZamxA (.data.EnetRmIoctlHandlerRegistry)
                  700d5468    00000060     drivers.am64x.r5f.ti-arm-clang.release.lib : sciclient_irq_rm.obj (.data.gRmIrInstances)
                  700d54c8    0000005c     ltoQZamxA (.data..L_MergedGlobals)
                  700d5524    00000058     drivers.am64x.r5f.ti-arm-clang.release.lib : udma_rmcfg.obj (.data.gUdmaRmSharedResPrms)
                  700d557c    00000054     ti_drivers_open_close.obj (.data.gUartParams)
                  700d55d0    00000050     ltoQZamxA (.data.CpswMacPortEstIoctlHandlerRegistry)
                  700d5620    00000050     libsysbm.a : host_device.c.obj (.data._stream)
                  700d5670    00000048     ltoQZamxA (.data.gI2cHwAttrs)
                  700d56b8    00000044     ltoQZamxA (.data.gEnetUdmaMemMgrObj)
                  700d56fc    00000040     ltoQZamxA (.data.CpswEstIoctlHandlerRegistry)
                  700d573c    00000040     ltoQZamxA (.data.CpswStatsIoctlHandlerRegistry)
                  700d577c    00000028     enet-cpsw.am64x.r5f.ti-arm-clang.release.lib : dp83867.obj (.data.gEnetPhyDrvDp83867)
                  700d57a4    00000028                                                  : dp83869.obj (.data.gEnetPhyDrvDp83869)
                  700d57cc    00000028                                                  : generic_phy.obj (.data.gEnetPhyDrvGeneric)
                  700d57f4    00000020     drivers.am64x.r5f.ti-arm-clang.release.lib : sciclient_irq_rm.obj (.data.gRmIaInstances)
                  700d5814    00000004     freertos.am64x.r5f.ti-arm-clang.release.lib : tasks.obj (.data.FreeRTOS_errno)
                  700d5818    00000020     drivers.am64x.r5f.ti-arm-clang.release.lib : sciclient_soc_priv.obj (.data.gSciclientSecProxyCfg)
                  700d5838    00000018     ltoQZamxA (.data.gEnet_PhyMdioDflt)
                  700d5850    00000014     ti_dpl_config.obj (.data.gClockConfig)
                  700d5864    00000014     drivers.am64x.r5f.ti-arm-clang.release.lib : sciclient_irq_rm.obj (.data.rom_usage_DMASS0_INTAGGR_0)
                  700d5878    00000010     board.am64x.r5f.ti-arm-clang.release.lib : eeprom_at24c.obj (.data.gEepromFxns_AT24C)
                  700d5888    00000010     ti_drivers_config.obj (.data.gI2cConfig)
                  700d5898    0000000c     ltoQZamxA (.data..L_MergedGlobals.1218)
                  700d58a4    00000004     libc.a : aeabi_portable.c.obj (.data.__aeabi_errno)
                  700d58a8    0000000c     freertos.am64x.r5f.ti-arm-clang.release.lib : AddrTranslateP.obj (.data.gAddrTranslateConfig)
                  700d58b4    0000000c     board.am64x.r5f.ti-arm-clang.release.lib : eeprom_at24c.obj (.data.gEepromAttrs_AT24C)
                  700d58c0    0000000c     ti_board_open_close.obj (.data.gEepromConfig)
                  700d58cc    00000008     ti_board_open_close.obj (.data.gEepromParams)
                  700d58d4    00000008     ltoQZamxA (.data.gUartAttrs)
                  700d58dc    00000008     ti_drivers_config.obj (.data.gUartConfig)
                  700d58e4    00000004     freertos.am64x.r5f.ti-arm-clang.release.lib : DebugP_log.obj (.data.gDebugLogZone)
                  700d58e8    00000008                                                 : PmuP_armv7r.obj (.data.pmu)
                  700d58f0    00000008                                                 : TaskP_freertos.obj (.data.vApplicationLoadHook.lastUpdateTime)
                  700d58f8    00000004                                                 : DebugP_uartLogWriter.obj (.data.gDebugP_uartDrvIndex)
                  700d58fc    00000004     ti_board_open_close.obj (.data.gEepromConfigNum)
                  700d5900    00000004     ti_dpl_config.obj (.data.gHwiConfig)
                  700d5904    00000004     ti_drivers_config.obj (.data.gI2cConfigNum)
                  700d5908    00000004     drivers.am64x.r5f.ti-arm-clang.release.lib : sciclient.obj (.data.gSciclientHandle.0)
                  700d590c    00000004                                                : sciclient.obj (.data.gSciclientHandle.2)
                  700d5910    00000004                                                : sciclient.obj (.data.gSciclientHandle.3)
                  700d5914    00000004                                                : sciclient.obj (.data.gSciclientHandle.4)
                  700d5918    00000004                                                : sciclient.obj (.data.gSciclientHandle.5)
                  700d591c    00000004     ti_drivers_config.obj (.data.gUartConfigNum)
                  700d5920    00000004     ti_drivers_config.obj (.data.gUartDmaConfigNum)
                  700d5924    00000004     freertos.am64x.r5f.ti-arm-clang.release.lib : timers.obj (.data.prvSampleTimeNow.xLastTime)
                  700d5928    00000004                                                 : tasks.obj (.data.pxCurrentTCB)
                  700d592c    00000004                                                 : port.obj (.data.ulPortInterruptNesting)
                  700d5930    00000004                                                 : port.obj (.data.ulPortSchedularRunning)
                  700d5934    00000004                                                 : port.obj (.data.ulPortTaskHasFPUContext)
                  700d5938    00000004                                                 : port.obj (.data.ulPortYieldRequired)
                  700d593c    00000004                                                 : tasks.obj (.data.ulTaskSwitchedInTime)
                  700d5940    00000004                                                 : tasks.obj (.data.ulTotalRunTime)
                  700d5944    00000004                                                 : tasks.obj (.data.uxCurrentNumberOfTasks)
                  700d5948    00000004                                                 : tasks.obj (.data.uxDeletedTasksWaitingCleanUp)
                  700d594c    00000004                                                 : tasks.obj (.data.uxSchedulerSuspended)
                  700d5950    00000004                                                 : tasks.obj (.data.uxTaskNumber)
                  700d5954    00000004                                                 : tasks.obj (.data.uxTopReadyPriority)
                  700d5958    00000004                                                 : tasks.obj (.data.xIdleTaskHandle)
                  700d595c    00000004                                                 : tasks.obj (.data.xNextTaskUnblockTime)
                  700d5960    00000004                                                 : tasks.obj (.data.xNumOfOverflows)
                  700d5964    00000004                                                 : tasks.obj (.data.xPendedTicks)
                  700d5968    00000004                                                 : tasks.obj (.data.xSchedulerRunning)
                  700d596c    00000004                                                 : tasks.obj (.data.xTickCount)
                  700d5970    00000004                                                 : timers.obj (.data.xTimerQueue)
                  700d5974    00000004                                                 : timers.obj (.data.xTimerTaskHandle)
                  700d5978    00000004                                                 : tasks.obj (.data.xYieldPending)
                  700d597c    00000001     ltoQZamxA (.data.EnetAppUtils_assertLocal.gCpswAssertWaitInLoop)
                  700d597d    00000001     ltoQZamxA (.data.EnetUtils_assertLocal.gEnetAssertWaitInLoop.1018)
                  700d597e    00000001     ltoQZamxA (.data.EnetUtils_assertLocal.gEnetAssertWaitInLoop.1038)
                  700d597f    00000001     ltoQZamxA (.data.EnetUtils_assertLocal.gEnetAssertWaitInLoop.135)
                  700d5980    00000001     ltoQZamxA (.data.EnetUtils_assertLocal.gEnetAssertWaitInLoop.182)
                  700d5981    00000001     ltoQZamxA (.data.EnetUtils_assertLocal.gEnetAssertWaitInLoop.222)
                  700d5982    00000001     ltoQZamxA (.data.EnetUtils_assertLocal.gEnetAssertWaitInLoop.310)
                  700d5983    00000001     ltoQZamxA (.data.EnetUtils_assertLocal.gEnetAssertWaitInLoop.57)
                  700d5984    00000001     ltoQZamxA (.data.EnetUtils_assertLocal.gEnetAssertWaitInLoop.594)
                  700d5985    00000001     ltoQZamxA (.data.EnetUtils_assertLocal.gEnetAssertWaitInLoop.618)
                  700d5986    00000001     ltoQZamxA (.data.EnetUtils_assertLocal.gEnetAssertWaitInLoop.642)
                  700d5987    00000001     ltoQZamxA (.data.EnetUtils_assertLocal.gEnetAssertWaitInLoop.652)
                  700d5988    00000001     ltoQZamxA (.data.EnetUtils_assertLocal.gEnetAssertWaitInLoop.668)
                  700d5989    00000001     ltoQZamxA (.data.EnetUtils_assertLocal.gEnetAssertWaitInLoop.701)
                  700d598a    00000001     ltoQZamxA (.data.EnetUtils_assertLocal.gEnetAssertWaitInLoop.718)
                  700d598b    00000001     ltoQZamxA (.data.EnetUtils_assertLocal.gEnetAssertWaitInLoop.742)
                  700d598c    00000001     ltoQZamxA (.data.EnetUtils_assertLocal.gEnetAssertWaitInLoop.778)
                  700d598d    00000001     ltoQZamxA (.data.EnetUtils_assertLocal.gEnetAssertWaitInLoop.807)
                  700d598e    00000001     ltoQZamxA (.data.EnetUtils_assertLocal.gEnetAssertWaitInLoop.824)
                  700d598f    00000001     ltoQZamxA (.data.EnetUtils_assertLocal.gEnetAssertWaitInLoop.847)
                  700d5990    00000001     ltoQZamxA (.data.EnetUtils_assertLocal.gEnetAssertWaitInLoop.903)
                  700d5991    00000001     ltoQZamxA (.data.EnetUtils_assertLocal.gEnetAssertWaitInLoop.926)
                  700d5992    00000001     ltoQZamxA (.data.EnetUtils_assertLocal.gEnetAssertWaitInLoop.966)
                  700d5993    00000001     ltoQZamxA (.data.EnetUtils_assertLocal.gEnetAssertWaitInLoop.97)
                  700d5994    00000001     ltoQZamxA (.data.EnetUtils_assertLocal.gEnetAssertWaitInLoop.998)
                  700d5995    00000001     drivers.am64x.r5f.ti-arm-clang.release.lib : sciclient.obj (.data.gSecHeaderSizeWords)
                  700d5996    00000001                                                : soc.obj (.data.isMapAvailable)
                  700d5997    00000001     --HOLE-- [fill = 0]
                  700d5998    00000001     freertos.am64x.r5f.ti-arm-clang.release.lib : DebugP_freertos.obj (.data.gDebugLogIsInitDone)
                  700d5999    00000003     --HOLE-- [fill = 0]
                  700d599c    00000001     ltoQZamxA (.data.memory_is_initialized)
                  700d599d    00000003     --HOLE-- [fill = 0]

.text.hwi 
*          0    700d59a0    000008d0     
                  700d59a0    00000452     freertos.am64x.r5f.ti-arm-clang.release.lib : HwiP_armv7r_vim.obj (.text.hwi)
                  700d5df2    00000002     --HOLE-- [fill = 0]
                  700d5df4    00000008                                                 : HwiP_armv7r_asm.obj (.tramp.HwiP_enableFIQ.1)
                  700d5dfc    00000004     --HOLE-- [fill = 0]
                  700d5e00    0000020e                                                 : HwiP_armv7r_handlers_freertos.obj (.text.hwi)
                  700d600e    00000002     --HOLE-- [fill = 0]
                  700d6010    000001ec                                                 : portASM.obj (.text.hwi)
                  700d61fc    00000070                                                 : HwiP_armv7r_asm.obj (.text.hwi)
                  700d626c    00000004     --HOLE-- [fill = 0]

.text.cache 
*          0    700d6270    00000450     
                  700d6270    00000340     freertos.am64x.r5f.ti-arm-clang.release.lib : CacheP_armv7r_asm.obj (.text.cache)
                  700d65b0    000000f6                                                 : CacheP_armv7r.obj (.text.cache)
                  700d66a6    00000002     --HOLE-- [fill = 0]
                  700d66a8    00000008                                                 : CacheP_armv7r_asm.obj (.tramp.CacheP_invL1d.1)
                  700d66b0    00000008                                                 : HwiP_armv7r_asm.obj (.tramp.HwiP_restore.2)
                  700d66b8    00000008                                                 : CacheP_armv7r_asm.obj (.tramp.CacheP_enableL1p.1)

.text.mpu 
*          0    700d66c0    00000240     
                  700d66c0    000001b4     freertos.am64x.r5f.ti-arm-clang.release.lib : MpuP_armv7r.obj (.text.mpu)
                  700d6874    00000078                                                 : MpuP_armv7r_asm.obj (.text.mpu)
                  700d68ec    00000008                                                 : MpuP_armv7r_asm.obj (.tramp.MpuP_isEnableAsm.1)
                  700d68f4    00000008                                                 : HwiP_armv7r_asm.obj (.tramp.HwiP_restore.3)
                  700d68fc    00000004     --HOLE-- [fill = 0]

.text.boot 
*          0    700d6900    00000130     
                  700d6900    000000fc     freertos.am64x.r5f.ti-arm-clang.release.lib : boot_armv7r_asm.obj (.text.boot)
                  700d69fc    00000004     --HOLE-- [fill = 0]
                  700d6a00    0000001e                                                 : DebugP_log.obj (.text.boot)
                  700d6a1e    0000000e     ti_dpl_config.obj (.text.boot)
                  700d6a2c    00000004     --HOLE-- [fill = 0]

.text:abort 
*          0    700d6a30    00000008     
                  700d6a30    00000008     libc.a : exit.c.obj (.text:abort)

.irqstack 
*          0    700d6a38    00000100     UNINITIALIZED
                  700d6a38    00000100     --HOLE--

.fiqstack 
*          0    700d6b38    00000100     UNINITIALIZED
                  700d6b38    00000100     --HOLE--

.svcstack 
*          0    700d6c38    00001000     UNINITIALIZED
                  700d6c38    00001000     --HOLE--

.abortstack 
*          0    700d7c38    00000100     UNINITIALIZED
                  700d7c38    00000100     --HOLE--

.undefinedstack 
*          0    700d7d38    00000100     UNINITIALIZED
                  700d7d38    00000100     --HOLE--

MODULE SUMMARY

       Module                                 code     ro data   rw data
       ------                                 ----     -------   -------
    ./
       ltoQZamxA                              26344    20546     149230 
    +--+--------------------------------------+--------+---------+---------+
       Total:                                 26344    20546     149230 
                                                                        
    obj/release/
       ti_enet_soc.obj                        364      72        8496   
       ti_enet_open_close.obj                 8264     0         0      
       loopback_test.obj                      6168     0         0      
       loopback_cfg.obj                       0        0         1048   
       main.obj                               532      0         0      
       ti_drivers_config.obj                  208      0         36     
       ti_dpl_config.obj                      82       132       24     
       ti_enet_config.obj                     152      0         0      
       ti_board_open_close.obj                88       0         24     
       ti_drivers_open_close.obj              0        0         84     
       ti_power_clock_config.obj              0        80        0      
    +--+--------------------------------------+--------+---------+---------+
       Total:                                 15858    284       9712   
                                                                        
    /home/thomas/ti/mcu_plus_sdk_am64x_08_05_00_24/source/board/lib/board.am64x.r5f.ti-arm-clang.release.lib
       eeprom_at24c.obj                       552      0         28     
       eeprom.obj                             102      0         0      
    +--+--------------------------------------+--------+---------+---------+
       Total:                                 654      0         28     
                                                                        
    /home/thomas/ti/mcu_plus_sdk_am64x_08_05_00_24/source/drivers/lib/drivers.am64x.r5f.ti-arm-clang.release.lib
       udma_rm.obj                            4786     0         0      
       uart_v0.obj                            4298     309       156    
       sciclient_rm_irq.obj                   4574     0         40     
       i2c_v0.obj                             4114     170       156    
       udma_ch.obj                            3722     0         0      
       udma_event.obj                         2060     0         0      
       sciclient_irq_rm.obj                   0        1612      332    
       csl_bcdma.obj                          1834     0         0      
       soc.obj                                1528     123       17     
       sciclient.obj                          1270     0         21     
       udma_soc.obj                           730      468       0      
       sciclient_pm.obj                       1184     0         0      
       udma_ring_common.obj                   866      0         0      
       csl_lcdma_ringacc.obj                  758      0         0      
       udma_ring_lcdma.obj                    738      0         0      
       udma_rmcfg.obj                         66       552       88     
       sciclient_rm.obj                       690      0         0      
       udma_rmcfg_common.obj                  658      0         0      
       csl_pktdma.obj                         526      0         0      
       udma_flow.obj                          456      0         0      
       uart_dma.obj                           280      75        0      
       csl_intaggr.obj                        322      0         0      
       sciclient_fmwSecureProxyMap.obj        0        300       0      
       pinmux.obj                             188      0         0      
       sciclient_soc_priv.obj                 104      24        32     
       udma.obj                               160      0         0      
       udma_utils.obj                         110      0         0      
       sciclient_procboot.obj                 70       0         0      
       csl_sec_proxy.obj                      10       0         0      
       pruicss_g_v0.obj                       4        0         0      
    +--+--------------------------------------+--------+---------+---------+
       Total:                                 36106    3633      842    
                                                                        
    /home/thomas/ti/mcu_plus_sdk_am64x_08_05_00_24/source/kernel/freertos/lib/freertos.am64x.r5f.ti-arm-clang.release.lib
       tasks.obj                              4172     1979      812    
       port.obj                               356      93        5416   
       queue.obj                              3236     1878      256    
       HwiP_armv7r_vim.obj                    1106     0         4108   
       printf.obj                             3994     98        0      
       timers.obj                             1476     700       396    
       TaskP_freertos.obj                     732      355       168    
       CacheP_armv7r_asm.obj                  864      0         0      
       TimerP.obj                             516      269       0      
       SemaphoreP_freertos.obj                458      218       80     
       ClockP_freertos.obj                    526      139       56     
       ClockP_freertos_r5.obj                 318      266       0      
       HwiP_armv7r_handlers_freertos.obj      526      0         4      
       portASM.obj                            492      0         0      
       MpuP_armv7r.obj                        436      0         0      
       DebugP_freertos.obj                    118      0         153    
       CacheP_armv7r.obj                      246      8         0      
       boot_armv7r_asm.obj                    252      0         0      
       DebugP_uartScanf.obj                   222      0         0      
       DebugP_log.obj                         154      45        4      
       HwiP_armv7r_asm.obj                    160      0         0      
       list.obj                               150      0         0      
       MpuP_armv7r_asm.obj                    128      0         0      
       AddrTranslateP.obj                     104      0         12     
       PmuP_armv7r.obj                        100      0         8      
       DebugP_uartLogWriter.obj               70       0         4      
       HwiP_armv7r_vectors_freertos_asm.obj   64       0         0      
       PmuP_armv7r_asm.obj                    56       0         0      
       boot_armv7r.obj                        28       0         0      
       CpuId_armv7r.obj                       26       0         0      
       heap_3.obj                             26       0         0      
       CpuId_armv7r_asm.obj                   12       0         0      
    +--+--------------------------------------+--------+---------+---------+
       Total:                                 21124    6048      11477  
                                                                        
    /home/thomas/ti/mcu_plus_sdk_am64x_08_05_00_24/source/networking/enet/lib/enet-cpsw.am64x.r5f.ti-arm-clang.release.lib
       cpsw.obj                               8188     0         0      
       enet_rm.obj                            2598     0         0      
       cpsw_ale.obj                           2408     0         0      
       enet_udma_priv.obj                     2304     0         0      
       cpsw_ioctl.obj                         1982     0         0      
       csl_cpsw.obj                           1606     0         0      
       enet_rm_ioctl.obj                      1584     0         0      
       mdio_ioctl.obj                         1412     0         0      
       cpsw_macport.obj                       1346     0         0      
       enet_phymdio_dflt.obj                  1020     0         0      
       enet.obj                               904      0         0      
       mdio.obj                               880      0         0      
       cpsw_ale_ioctl.obj                     838      0         0      
       cpsw_stats.obj                         786      0         0      
       cpsw_cpts_ioctl.obj                    764      0         0      
       cpsw_hostport.obj                      668      0         0      
       cpsw_cpts.obj                          576      0         0      
       enet_queue.obj                         548      0         0      
       enetphy.obj                            544      0         0      
       enet_appmemutils.obj                   532      0         0      
       enet_utils.obj                         276      0         216    
       cpsw_macport_est.obj                   480      0         0      
       cpsw_macport_ioctl.obj                 446      0         0      
       csl_cpsw_ale_9g_tblcfg.obj             436      0         0      
       enet_udma.obj                          354      0         0      
       generic_phy.obj                        266      0         40     
       cpsw_est_ioctl.obj                     296      0         0      
       enet_udmautils.obj                     296      0         0      
       cpsw_stats_ioctl.obj                   190      0         0      
       cpsw_est.obj                           172      0         0      
       enet_apputils.obj                      116      0         0      
       cpsw_hostport_ioctl.obj                106      0         0      
       cpsw_macport_est_ioctl.obj             96       0         0      
       enet_trace.obj                         80       0         0      
       enet_osal.obj                          0        0         60     
       cpsw_ale_ioctl_register.obj            52       0         0      
       dp83867.obj                            0        0         40     
       dp83869.obj                            0        0         40     
    +--+--------------------------------------+--------+---------+---------+
       Total:                                 35150    0         396    
                                                                        
    /home/thomas/ti/ti-cgt-armllvm_2.1.2.LTS/lib/armv7r-ti-none-eabihf/c/libc.a
       strtod.c.obj                           1144     0         0      
       memory.c.obj                           780      0         0      
       _printfi.c.obj                         752      0         0      
       defs.c.obj                             0        0         400    
       s_scalbn.c.obj                         292      0         0      
       aeabi_ctype.S.obj                      0        257       0      
       fflush.c.obj                           136      0         0      
       atoi.c.obj                             116      0         0      
       sprintf.c.obj                          88       0         0      
       autoinit.c.obj                         80       0         0      
       fopen.c.obj                            60       0         0      
       wcslen.c.obj                           32       0         0      
       assert.c.obj                           12       0         0      
       exit.c.obj                             8        0         0      
       aeabi_portable.c.obj                   0        0         4      
       sscanf.c.obj                           4        0         0      
    +--+--------------------------------------+--------+---------+---------+
       Total:                                 3504     257       404    
                                                                        
    /home/thomas/ti/ti-cgt-armllvm_2.1.2.LTS/lib/armv7r-ti-none-eabihf/c/libsysbm.a
       trgmsg.c.obj                           176      0         288    
       memcpy32.S.obj                         384      0         0      
       host_device.c.obj                      0        0         200    
       memset32.S.obj                         160      0         0      
       hostrename.c.obj                       124      0         0      
       hostopen.c.obj                         108      0         8      
       hostlseek.c.obj                        100      0         0      
       hostread.c.obj                         88       0         0      
       hostwrite.c.obj                        76       0         0      
       hostunlink.c.obj                       60       0         0      
       write.c.obj                            52       0         0      
       hostclose.c.obj                        48       0         0      
    +--+--------------------------------------+--------+---------+---------+
       Total:                                 1376     0         496    
                                                                        
    /home/thomas/ti/ti-cgt-armllvm_2.1.2.LTS/lib/clang/14.0.6/lib/armv7r-ti-none-eabihf/libclang_rt.builtins.a
       udivsi3.S.obj                          464      0         0      
       udivmoddi4.S.obj                       280      0         0      
       aeabi_memset.S.obj                     36       0         0      
       aeabi_uldivmod.S.obj                   36       0         0      
       aeabi_div0.c.obj                       8        0         0      
       aeabi_memcpy.S.obj                     4        0         0      
    +--+--------------------------------------+--------+---------+---------+
       Total:                                 828      0         0      
                                                                        
       Heap:                                  0        0         1024   
       Stack:                                 0        0         8192   
    +--+--------------------------------------+--------+---------+---------+
       Grand Total:                           140944   30768     181801 

VENEERS

callee name               veneer name
   callee addr  veneer addr  call addr  call info
--------------  -----------  ---------  ----------------
HwiP_enableFIQ            $Ven$TA$L$PI$$HwiP_enableFIQ
   700d622c     700d5df4     700d5ddc   freertos.am64x.r5f.ti-arm-clang.release.lib : HwiP_armv7r_vim.obj (.text.hwi)
CacheP_invL1d             $Ven$TA$L$PI$$CacheP_invL1d
   700d62e0     700d66a8     700d66a2   freertos.am64x.r5f.ti-arm-clang.release.lib : CacheP_armv7r.obj (.text.cache)
HwiP_restore              $Ven$TA$L$PI$$HwiP_restore
   700d623c     700d66b0     700d6656   freertos.am64x.r5f.ti-arm-clang.release.lib : CacheP_armv7r.obj (.text.cache)
CacheP_enableL1p          $Ven$TA$L$PI$$CacheP_enableL1p
   700d62c8     700d66b8     700d661c   freertos.am64x.r5f.ti-arm-clang.release.lib : CacheP_armv7r.obj (.text.cache)
                             700d667c                                               : CacheP_armv7r.obj (.text.cache)
MpuP_isEnableAsm          $Ven$TA$L$PI$$MpuP_isEnableAsm
   700d68c4     700d68ec     700d6800   freertos.am64x.r5f.ti-arm-clang.release.lib : MpuP_armv7r.obj (.text.mpu)
HwiP_restore              $Ven$TA$L$PI$$HwiP_restore
   700d623c     700d68f4     700d67b4   freertos.am64x.r5f.ti-arm-clang.release.lib : MpuP_armv7r.obj (.text.mpu)
                             700d67ec                                               : MpuP_armv7r.obj (.text.mpu)
HwiP_disable              $Ven$TA$L$PI$$HwiP_disable
   700d61fc     700a0398     70092c5c   ltoQZamxA (.text.EnetOsalDflt_disableAllIntr)
CacheP_wbInv              $Ven$TA$L$PI$$CacheP_wbInv
   700d63a0     700a03c8     70096d8c   ltoQZamxA (.text.EnetOsalDflt_cacheWbInv)
__aeabi_memclr4           $Ven$TA$L$PI$$__aeabi_memclr4
   700a0fbc     700a03f8     700a119c   ltoQZamxA (.text.OUTLINED_FUNCTION_35)
                             7009d748   ltoQZamxA (.text.OUTLINED_FUNCTION_135)
                             7009b12c   ltoQZamxA (.text.OUTLINED_FUNCTION_116)
CacheP_wb                 $Ven$TA$L$PI$$CacheP_wb
   700d6364     700a0428     7009f8e6   drivers.am64x.r5f.ti-arm-clang.release.lib : udma_ring_lcdma.obj (.text.Udma_lcdmaRingaccMemOps)
                             70094e9c   ltoQZamxA (.text.EnetOsalDflt_cacheWb)
HwiP_enable               $Ven$TA$L$PI$$HwiP_enable
   700d621c     700a0458     7009ea06   ti_dpl_config.obj (.text.Dpl_init)
HwiP_restore              $Ven$TA$L$PI$$HwiP_restore
   700d623c     700a0528     7009d9da   ltoQZamxA (.text.EnetOsalDflt_deleteMutex)
                             7009da28   ltoQZamxA (.text.EnetOsalDflt_unregisterIntr)
                             7009679c   ltoQZamxA (.text.EnetOsalDflt_restoreAllIntr)
PmuP_enableCounters       $Ven$TA$L$PI$$PmuP_enableCounters
   7009ff40     700a0558     7009c660   freertos.am64x.r5f.ti-arm-clang.release.lib : PmuP_armv7r.obj (.text.pmu)

[13 trampolines]
[20 trampoline calls]


GLOBAL SYMBOLS: SORTED ALPHABETICALLY BY Name 

address   name                                                                          
-------   ----                                                                          
7009bfc1  AddrTranslateP_getLocalAddr                                                   
700a10dd  Board_eepromClose                                                             
7009e805  Board_eepromOpen                                                              
700d6a30  C$$EXIT                                                                       
7009d18c  C$$IO$$                                                                       
700a8d90  CMP_EVENT_INTROUTER0_outp_0_15_to_GICSS0_spi_48_63                            
700a8d98  CMP_EVENT_INTROUTER0_outp_16_23_to_R5FSS0_CORE0_intr_48_55                    
700a8da0  CMP_EVENT_INTROUTER0_outp_16_23_to_R5FSS0_CORE1_intr_48_55                    
700a8da8  CMP_EVENT_INTROUTER0_outp_24_31_to_R5FSS1_CORE0_intr_48_55                    
700a8db0  CMP_EVENT_INTROUTER0_outp_24_31_to_R5FSS1_CORE1_intr_48_55                    
700a8db8  CMP_EVENT_INTROUTER0_outp_32_39_to_DMASS0_INTAGGR_0_intaggr_levi_pend_0_7     
700a8dc0  CPSW0_cpts_comp_0_0_to_CMP_EVENT_INTROUTER0_in_80_80                          
700a8dc8  CPSW0_cpts_genf0_1_1_to_TIMESYNC_EVENT_INTROUTER0_in_21_21                    
700a8dd0  CPSW0_cpts_genf1_2_2_to_TIMESYNC_EVENT_INTROUTER0_in_22_22                    
700a8dd8  CPSW0_cpts_sync_3_3_to_TIMESYNC_EVENT_INTROUTER0_in_34_34                     
700a8de0  CPTS0_cpts_comp_0_0_to_CMP_EVENT_INTROUTER0_in_82_82                          
700a8de8  CPTS0_cpts_genf0_1_1_to_TIMESYNC_EVENT_INTROUTER0_in_16_16                    
700a8df0  CPTS0_cpts_genf1_2_2_to_TIMESYNC_EVENT_INTROUTER0_in_17_17                    
700a8df8  CPTS0_cpts_genf2_3_3_to_TIMESYNC_EVENT_INTROUTER0_in_18_18                    
700a8e00  CPTS0_cpts_genf3_4_4_to_TIMESYNC_EVENT_INTROUTER0_in_19_19                    
700a8e08  CPTS0_cpts_genf4_5_5_to_TIMESYNC_EVENT_INTROUTER0_in_20_20                    
700a8e10  CPTS0_cpts_genf5_6_6_to_TIMESYNC_EVENT_INTROUTER0_in_24_24                    
700a8e18  CPTS0_cpts_sync_7_7_to_TIMESYNC_EVENT_INTROUTER0_in_35_35                     
700a0fd1  CSL_armR5GetCpuID                                                             
7009c744  CSL_armR5ReadMpidrReg                                                         
7008fc81  CSL_bcdmaChanOp                                                               
7009f151  CSL_bcdmaGetCfg                                                               
700a0561  CSL_bcdmaGetChanPeerReg                                                       
700a12e1  CSL_bcdmaGetRxRT                                                              
700a1301  CSL_bcdmaGetTxRT                                                              
700a09a1  CSL_bcdmaSetChanPeerReg                                                       
700a1321  CSL_bcdmaSetRxRT                                                              
700a1341  CSL_bcdmaSetTxRT                                                              
700a0c31  CSL_bcdmaTeardownRxChan                                                       
700a0c51  CSL_bcdmaTeardownTxChan                                                       
7009e101  CSL_intaggrClrIntr                                                            
700a0281  CSL_intaggrGetCfg                                                             
7009d371  CSL_intaggrIsIntrPending                                                      
7009ad41  CSL_intaggrSetIntrEnable                                                      
70096e51  CSL_lcdma_ringaccDequeue                                                      
700a1711  CSL_lcdma_ringaccGetForwardRingOcc                                            
700a1531  CSL_lcdma_ringaccGetReverseRingOcc                                            
700a1721  CSL_lcdma_ringaccInitRingObj                                                  
700a15e1  CSL_lcdma_ringaccIsTeardownComplete                                           
700a1471  CSL_lcdma_ringaccPop64                                                        
700a0e11  CSL_lcdma_ringaccPush64                                                       
7009f901  CSL_pktdmaGetCfg                                                              
700a0e31  CSL_pktdmaGetChanPeerReg                                                      
700a0111  CSL_pktdmaGetRxRT                                                             
700a0141  CSL_pktdmaGetTxRT                                                             
700a0e51  CSL_pktdmaSetChanPeerReg                                                      
700a0a91  CSL_pktdmaSetRxRT                                                             
700a0ab1  CSL_pktdmaSetTxRT                                                             
700a1841  CSL_pktdmaTeardownRxChan                                                      
700a1851  CSL_pktdmaTeardownTxChan                                                      
700a1791  CSL_secProxyGetDataAddr                                                       
700d6580  CacheP_configForceWrThru                                                      
700d6621  CacheP_disable                                                                
700d6270  CacheP_disableL1d                                                             
700d6298  CacheP_disableL1p                                                             
700d6661  CacheP_enable                                                                 
700d62b0  CacheP_enableL1d                                                              
700d62c8  CacheP_enableL1p                                                              
700d6574  CacheP_getCacheLevelInfo                                                      
700d653c  CacheP_getEnabled                                                             
700d65b1  CacheP_init                                                                   
700d6681  CacheP_inv                                                                    
700d62e0  CacheP_invL1d                                                                 
700d6354  CacheP_invL1dAll                                                              
700d6318  CacheP_invL1p                                                                 
700d635c  CacheP_invL1pAll                                                              
700d65a0  CacheP_setDLFO                                                                
700d6364  CacheP_wb                                                                     
700d63dc  CacheP_wbAll                                                                  
700d63a0  CacheP_wbInv                                                                  
700d6484  CacheP_wbInvAll                                                               
700d649c  CacheP_wbInvAllAsm                                                            
700a1361  ClockP_Params_init                                                            
70097361  ClockP_construct                                                              
700a0e71  ClockP_destruct                                                               
700a18b1  ClockP_getTicks                                                               
7009ddb1  ClockP_getTimeUsec                                                            
700a18c1  ClockP_getTimerCount                                                          
70092da1  ClockP_init                                                                   
7009f011  ClockP_stop                                                                   
700a15f1  ClockP_ticksToUsec                                                            
700a1381  ClockP_timerCallbackFunction                                                  
700a18d1  ClockP_timerClearOverflowInt                                                  
7009ffc1  ClockP_timerTickIsr                                                           
700a1491  ClockP_usecToTicks                                                            
7009f941  ClockP_usleep                                                                 
7009ff30  CycleCounterP_getCount32                                                      
7009c601  CycleCounterP_init                                                            
7009c611  CycleCounterP_nsToTicks                                                       
7009c641  CycleCounterP_reset                                                           
700a8e20  DMASS0_INTAGGR_0_intaggr_vintr_pend_0_39_to_GICSS0_spi_64_103                 
700a8e28  DMASS0_INTAGGR_0_intaggr_vintr_pend_120_127_to_R5FSS1_CORE0_intr_8_15         
700a8e30  DMASS0_INTAGGR_0_intaggr_vintr_pend_128_135_to_R5FSS1_CORE1_intr_8_15         
700a8e38  DMASS0_INTAGGR_0_intaggr_vintr_pend_152_159_to_PRU_ICSSG0_pr1_slv_intr_16_23  
700a8e40  DMASS0_INTAGGR_0_intaggr_vintr_pend_160_167_to_PRU_ICSSG1_pr1_slv_intr_16_23  
700a8e48  DMASS0_INTAGGR_0_intaggr_vintr_pend_168_183_to_MCU_M4FSS0_CORE0_nvic_32_47    
700a8e50  DMASS0_INTAGGR_0_intaggr_vintr_pend_40_71_to_R5FSS0_CORE0_intr_64_95          
700a8e58  DMASS0_INTAGGR_0_intaggr_vintr_pend_40_71_to_R5FSS0_CORE1_intr_64_95          
700a8e60  DMASS0_INTAGGR_0_intaggr_vintr_pend_72_79_to_R5FSS0_CORE0_intr_8_15           
700a8e68  DMASS0_INTAGGR_0_intaggr_vintr_pend_80_87_to_R5FSS0_CORE1_intr_8_15           
700a8e70  DMASS0_INTAGGR_0_intaggr_vintr_pend_88_119_to_R5FSS1_CORE0_intr_64_95         
700a8e78  DMASS0_INTAGGR_0_intaggr_vintr_pend_88_119_to_R5FSS1_CORE1_intr_64_95         
700a0b11  DebugP_logZoneEnable                                                          
70097991  DebugP_readLine                                                               
7009fe41  DebugP_scanf                                                                  
7009f381  DebugP_uartLogWriterPutChar                                                   
700a1751  DebugP_uartSetDrvIndex                                                        
7009e9d1  Dpl_init                                                                      
700a0cb1  EEPROM_AT24C_close                                                            
7009f9f1  EEPROM_AT24C_open                                                             
70095b81  EEPROM_AT24C_read                                                             
70094aa1  EEPROM_AT24C_write                                                            
700a1731  EEPROM_close                                                                  
7009f3c1  EEPROM_open                                                                   
700a0cd1  EEPROM_read                                                                   
700a8e80  EPWM0_epwm_synco_o_0_0_to_TIMESYNC_EVENT_INTROUTER0_in_39_39                  
700a8e88  EPWM3_epwm_synco_o_0_0_to_TIMESYNC_EVENT_INTROUTER0_in_40_40                  
700a8e90  EPWM6_epwm_synco_o_0_0_to_TIMESYNC_EVENT_INTROUTER0_in_41_41                  
700d5814  FreeRTOS_errno                                                                
700a8e98  GPIO0_gpio_0_89_to_MAIN_GPIOMUX_INTROUTER0_in_0_89                            
700a8ea0  GPIO0_gpio_bank_90_98_to_MAIN_GPIOMUX_INTROUTER0_in_190_198                   
700a8ea8  GPIO1_gpio_0_89_to_MAIN_GPIOMUX_INTROUTER0_in_90_179                          
700a8eb0  GPIO1_gpio_bank_90_98_to_MAIN_GPIOMUX_INTROUTER0_in_180_188                   
700a8eb8  GPMC0_gpmc_sdmareq_0_0_to_DMASS0_INTAGGR_0_intaggr_levi_pend_29_29            
700a8ec0  GTC0_gtc_push_event_0_0_to_TIMESYNC_EVENT_INTROUTER0_in_36_36                 
700d5ac1  HwiP_Params_init                                                              
700d5a71  HwiP_clearInt                                                                 
700d5ae1  HwiP_construct                                                                
700d5fe1  HwiP_data_abort_handler                                                       
700d5c31  HwiP_destruct                                                                 
700d61fc  HwiP_disable                                                                  
700d620c  HwiP_disableFIQ                                                               
700d59d1  HwiP_disableInt                                                               
700d6254  HwiP_disableVIC                                                               
700d621c  HwiP_enable                                                                   
700d622c  HwiP_enableFIQ                                                                
700d59a1  HwiP_enableInt                                                                
700d6244  HwiP_enableVIC                                                                
700d5e91  HwiP_fiq_handler                                                              
700d6264  HwiP_getCPSR                                                                  
700d5de1  HwiP_inISR                                                                    
700d5d11  HwiP_init                                                                     
700d60b8  HwiP_irq_handler                                                              
700d5e01  HwiP_irq_handler_c                                                            
700d5a91  HwiP_post                                                                     
700d5fb1  HwiP_prefetch_abort_handler                                                   
700d5f51  HwiP_reserved_handler                                                         
700d623c  HwiP_restore                                                                  
700d5a11  HwiP_restoreInt                                                               
700d6048  HwiP_svc_handler                                                              
700d5f81  HwiP_undefined_handler                                                        
7009a781  I2CMasterInitExpClk                                                           
700a0eb1  I2C_Transaction_init                                                          
70098311  I2C_close                                                                     
7009cdb1  I2C_completeCurrTransfer                                                      
700949a1  I2C_ctrlInit                                                                  
700a8bb0  I2C_defaultTransaction                                                        
7009ff01  I2C_getHandle                                                                 
700a1141  I2C_hwiFxn                                                                    
7008d8e1  I2C_hwiFxnMaster                                                              
70091f91  I2C_hwiFxnSlave                                                               
7009ead1  I2C_init                                                                      
7008d141  I2C_open                                                                      
70088d71  I2C_primeTransfer                                                             
70096b51  I2C_recoverBus                                                                
70094471  I2C_transfer                                                                  
700a1761  I2C_transferCallback                                                          
7009c881  I2C_waitForPin                                                                
700a8ec8  MAIN_GPIOMUX_INTROUTER0_outp_0_15_to_GICSS0_spi_32_47                         
700a8ed0  MAIN_GPIOMUX_INTROUTER0_outp_0_15_to_R5FSS0_CORE0_intr_32_47                  
700a8ed8  MAIN_GPIOMUX_INTROUTER0_outp_0_15_to_R5FSS0_CORE1_intr_32_47                  
700a8ee0  MAIN_GPIOMUX_INTROUTER0_outp_0_15_to_R5FSS1_CORE0_intr_32_47                  
700a8ee8  MAIN_GPIOMUX_INTROUTER0_outp_0_15_to_R5FSS1_CORE1_intr_32_47                  
700a8ef0  MAIN_GPIOMUX_INTROUTER0_outp_16_17_to_DMASS0_INTAGGR_0_intaggr_levi_pend_24_25
700a8ef8  MAIN_GPIOMUX_INTROUTER0_outp_18_23_to_PRU_ICSSG0_pr1_iep0_cap_intr_req_4_9    
700a8f00  MAIN_GPIOMUX_INTROUTER0_outp_18_23_to_PRU_ICSSG1_pr1_iep0_cap_intr_req_4_9    
700a8f08  MAIN_GPIOMUX_INTROUTER0_outp_24_29_to_PRU_ICSSG0_pr1_iep1_cap_intr_req_10_15  
700a8f10  MAIN_GPIOMUX_INTROUTER0_outp_24_29_to_PRU_ICSSG1_pr1_iep1_cap_intr_req_10_15  
700a8f18  MAIN_GPIOMUX_INTROUTER0_outp_30_37_to_DMASS0_INTAGGR_0_intaggr_levi_pend_16_23
700a8f20  MAIN_GPIOMUX_INTROUTER0_outp_38_45_to_PRU_ICSSG0_pr1_slv_intr_46_53           
700a8f28  MAIN_GPIOMUX_INTROUTER0_outp_46_53_to_PRU_ICSSG1_pr1_slv_intr_46_53           
700a8f30  MCU_GPIO0_gpio_0_29_to_MCU_MCU_GPIOMUX_INTROUTER0_in_0_29                     
700a8f38  MCU_GPIO0_gpio_bank_30_31_to_MCU_MCU_GPIOMUX_INTROUTER0_in_30_31              
700a8f40  MCU_MCU_GPIOMUX_INTROUTER0_outp_0_3_to_GICSS0_spi_104_107                     
700a8f48  MCU_MCU_GPIOMUX_INTROUTER0_outp_0_3_to_R5FSS0_CORE0_intr_104_107              
700a8f50  MCU_MCU_GPIOMUX_INTROUTER0_outp_0_3_to_R5FSS0_CORE1_intr_104_107              
700a8f58  MCU_MCU_GPIOMUX_INTROUTER0_outp_0_3_to_R5FSS1_CORE0_intr_104_107              
700a8f60  MCU_MCU_GPIOMUX_INTROUTER0_outp_0_3_to_R5FSS1_CORE1_intr_104_107              
700a8f68  MCU_MCU_GPIOMUX_INTROUTER0_outp_4_7_to_MCU_M4FSS0_CORE0_nvic_0_3              
700a8f70  MCU_MCU_GPIOMUX_INTROUTER0_outp_8_11_to_MCU_ESM0_esm_pls_event0_88_91         
700a8f78  MCU_MCU_GPIOMUX_INTROUTER0_outp_8_11_to_MCU_ESM0_esm_pls_event1_92_95         
700a8f80  MCU_MCU_GPIOMUX_INTROUTER0_outp_8_11_to_MCU_ESM0_esm_pls_event2_96_99         
700d66c1  MpuP_RegionAttrs_init                                                         
700d67c1  MpuP_disable                                                                  
700d6874  MpuP_disableAsm                                                               
700d688c  MpuP_disableBRAsm                                                             
700d6781  MpuP_enable                                                                   
700d689c  MpuP_enableAsm                                                                
700d68b4  MpuP_enableBRAsm                                                              
700d6811  MpuP_init                                                                     
700d6801  MpuP_isEnable                                                                 
700d68c4  MpuP_isEnableAsm                                                              
700d66d1  MpuP_setRegion                                                                
700d68d8  MpuP_setRegionAsm                                                             
700a8f88  PCIE0_pcie_cpts_comp_0_0_to_CMP_EVENT_INTROUTER0_in_81_81                     
700a8f90  PCIE0_pcie_cpts_genf0_1_1_to_TIMESYNC_EVENT_INTROUTER0_in_23_23               
700a8f98  PCIE0_pcie_cpts_hw1_push_2_2_to_TIMESYNC_EVENT_INTROUTER0_in_37_37            
700a8fa0  PCIE0_pcie_cpts_sync_3_3_to_TIMESYNC_EVENT_INTROUTER0_in_33_33                
700a8fa8  PCIE0_pcie_ptm_valid_pulse_4_4_to_TIMESYNC_EVENT_INTROUTER0_in_38_38          
700a18e1  PRUICSS_init                                                                  
700a8fb0  PRU_ICSSG0_pr1_edc0_sync0_out_0_0_to_TIMESYNC_EVENT_INTROUTER0_in_25_25       
700a8fb8  PRU_ICSSG0_pr1_edc0_sync1_out_1_1_to_TIMESYNC_EVENT_INTROUTER0_in_26_26       
700a8fc0  PRU_ICSSG0_pr1_edc1_sync0_out_2_2_to_TIMESYNC_EVENT_INTROUTER0_in_27_27       
700a8fc8  PRU_ICSSG0_pr1_edc1_sync1_out_3_3_to_TIMESYNC_EVENT_INTROUTER0_in_28_28       
700a8fd0  PRU_ICSSG0_pr1_host_intr_req_4_11_to_CMP_EVENT_INTROUTER0_in_0_7              
700a8fd8  PRU_ICSSG0_pr1_iep0_cmp_intr_req_12_27_to_CMP_EVENT_INTROUTER0_in_16_31       
700a8fe0  PRU_ICSSG0_pr1_iep1_cmp_intr_req_28_43_to_CMP_EVENT_INTROUTER0_in_32_47       
700a8fe8  PRU_ICSSG1_pr1_edc0_sync0_out_0_0_to_TIMESYNC_EVENT_INTROUTER0_in_29_29       
700a8ff0  PRU_ICSSG1_pr1_edc0_sync1_out_1_1_to_TIMESYNC_EVENT_INTROUTER0_in_30_30       
700a8ff8  PRU_ICSSG1_pr1_edc1_sync0_out_2_2_to_TIMESYNC_EVENT_INTROUTER0_in_31_31       
700a9000  PRU_ICSSG1_pr1_edc1_sync1_out_3_3_to_TIMESYNC_EVENT_INTROUTER0_in_32_32       
700a9008  PRU_ICSSG1_pr1_host_intr_req_4_11_to_CMP_EVENT_INTROUTER0_in_8_15             
700a9010  PRU_ICSSG1_pr1_iep0_cmp_intr_req_12_27_to_CMP_EVENT_INTROUTER0_in_48_63       
700a9018  PRU_ICSSG1_pr1_iep1_cmp_intr_req_28_43_to_CMP_EVENT_INTROUTER0_in_64_79       
70096c11  Pinmux_config                                                                 
7009ff58  PmuP_clearOverflowStatus                                                      
7009ff48  PmuP_disableCounters                                                          
7009ff40  PmuP_enableCounters                                                           
7009ff50  PmuP_getOverflowStatus                                                        
7009ff38  PmuP_setup                                                                    
700a0221  SOC_controlModuleLockMMR                                                      
7009f051  SOC_controlModuleUnlockMMR                                                    
700a0bb1  SOC_getSelfCpuClk                                                             
7009be71  SOC_isR5FDualCoreMode                                                         
7009bbe1  SOC_moduleClockEnable                                                         
70093271  SOC_moduleSetClockFrequency                                                   
700901d1  SOC_phyToVirt                                                                 
70090551  SOC_virtToPhy                                                                 
7009db31  Sciclient_getContext                                                          
7009f881  Sciclient_getCurrentContext                                                   
700a11a1  Sciclient_getDevId                                                            
700a1771  Sciclient_getSelfDevIdCore                                                    
70099581  Sciclient_init                                                                
7009c311  Sciclient_pmGetModuleClkFreq                                                  
7009b0b1  Sciclient_pmGetModuleClkNumParent                                             
7009c381  Sciclient_pmGetModuleClkParent                                                
7009bc51  Sciclient_pmGetModuleState                                                    
7009c9a1  Sciclient_pmModuleClkRequest                                                  
7009c521  Sciclient_pmModuleGetClkStatus                                                
70098701  Sciclient_pmQueryModuleClkFreq                                                
70099c31  Sciclient_pmSetModuleClkFreq                                                  
7009ca01  Sciclient_pmSetModuleClkParent                                                
7009e641  Sciclient_pmSetModuleRst                                                      
7009d631  Sciclient_pmSetModuleState                                                    
7009e341  Sciclient_procBootGetProcessorState                                           
70090711  Sciclient_rmClearInterruptRoute                                               
7009d521  Sciclient_rmGetResourceRange                                                  
7009afb1  Sciclient_rmIrOutpIsFree                                                      
700a16b1  Sciclient_rmIrqRelease                                                        
7009e721  Sciclient_rmIrqReleaseRaw                                                     
700a18f1  Sciclient_rmIrqSet                                                            
7009eb51  Sciclient_rmIrqSetRaw                                                         
700a1901  Sciclient_rmIrqTranslateIaOutput                                              
7008e5b1  Sciclient_rmProgramInterruptRoute                                             
7009e771  Sciclient_rmPsilPair                                                          
7009e7c1  Sciclient_rmPsilUnpair                                                        
7009eb91  Sciclient_rmRingCfg                                                           
7009b131  Sciclient_rmTranslateIntOutput                                                
7009ebd1  Sciclient_rmUdmapFlowCfg                                                      
7009ec11  Sciclient_rmUdmapFlowSizeThreshCfg                                            
7009ec51  Sciclient_rmUdmapRxChCfg                                                      
7009ec91  Sciclient_rmUdmapTxChCfg                                                      
7008aa11  Sciclient_service                                                             
7009ba91  SemaphoreP_constructBinary                                                    
7009d031  SemaphoreP_constructCounting                                                  
7009d691  SemaphoreP_constructMutex                                                     
700a1861  SemaphoreP_destruct                                                           
7009d091  SemaphoreP_pend                                                               
7009d6f1  SemaphoreP_post                                                               
70095e05  System_init                                                                   
700a9020  TIMER0_timer_pwm_0_0_to_TIMESYNC_EVENT_INTROUTER0_in_0_0                      
700a9028  TIMER1_timer_pwm_0_0_to_TIMESYNC_EVENT_INTROUTER0_in_1_1                      
700a9030  TIMER2_timer_pwm_0_0_to_TIMESYNC_EVENT_INTROUTER0_in_2_2                      
700a9038  TIMER3_timer_pwm_0_0_to_TIMESYNC_EVENT_INTROUTER0_in_3_3                      
700a9040  TIMESYNC_EVENT_INTROUTER0_outl_0_7_to_DMASS0_INTAGGR_0_intaggr_levi_pend_8_15 
700a9048  TIMESYNC_EVENT_INTROUTER0_outl_10_10_to_PRU_ICSSG0_pr1_edc1_latch0_in_2_2     
700a9050  TIMESYNC_EVENT_INTROUTER0_outl_11_11_to_PRU_ICSSG0_pr1_edc1_latch1_in_3_3     
700a9058  TIMESYNC_EVENT_INTROUTER0_outl_12_12_to_PRU_ICSSG1_pr1_edc0_latch0_in_0_0     
700a9060  TIMESYNC_EVENT_INTROUTER0_outl_13_13_to_PRU_ICSSG1_pr1_edc0_latch1_in_1_1     
700a9068  TIMESYNC_EVENT_INTROUTER0_outl_14_14_to_PRU_ICSSG1_pr1_edc1_latch0_in_2_2     
700a9070  TIMESYNC_EVENT_INTROUTER0_outl_15_15_to_PRU_ICSSG1_pr1_edc1_latch1_in_3_3     
700a9078  TIMESYNC_EVENT_INTROUTER0_outl_16_16_to_CPTS0_cpts_hw1_push_0_0               
700a9080  TIMESYNC_EVENT_INTROUTER0_outl_17_17_to_CPTS0_cpts_hw2_push_1_1               
700a9088  TIMESYNC_EVENT_INTROUTER0_outl_18_18_to_CPTS0_cpts_hw3_push_2_2               
700a9090  TIMESYNC_EVENT_INTROUTER0_outl_19_19_to_CPTS0_cpts_hw4_push_3_3               
700a9098  TIMESYNC_EVENT_INTROUTER0_outl_20_20_to_CPTS0_cpts_hw5_push_4_4               
700a90a0  TIMESYNC_EVENT_INTROUTER0_outl_21_21_to_CPTS0_cpts_hw6_push_5_5               
700a90a8  TIMESYNC_EVENT_INTROUTER0_outl_22_22_to_CPTS0_cpts_hw7_push_6_6               
700a90b0  TIMESYNC_EVENT_INTROUTER0_outl_23_23_to_CPTS0_cpts_hw8_push_7_7               
700a90b8  TIMESYNC_EVENT_INTROUTER0_outl_29_29_to_PCIE0_pcie_cpts_hw2_push_0_0          
700a90c0  TIMESYNC_EVENT_INTROUTER0_outl_30_30_to_CPSW0_cpts_hw1_push_0_0               
700a90c8  TIMESYNC_EVENT_INTROUTER0_outl_31_31_to_CPSW0_cpts_hw2_push_1_1               
700a90d0  TIMESYNC_EVENT_INTROUTER0_outl_32_32_to_CPSW0_cpts_hw3_push_2_2               
700a90d8  TIMESYNC_EVENT_INTROUTER0_outl_33_33_to_CPSW0_cpts_hw4_push_3_3               
700a90e0  TIMESYNC_EVENT_INTROUTER0_outl_34_34_to_CPSW0_cpts_hw5_push_4_4               
700a90e8  TIMESYNC_EVENT_INTROUTER0_outl_35_35_to_CPSW0_cpts_hw6_push_5_5               
700a90f0  TIMESYNC_EVENT_INTROUTER0_outl_36_36_to_CPSW0_cpts_hw7_push_6_6               
700a90f8  TIMESYNC_EVENT_INTROUTER0_outl_37_37_to_CPSW0_cpts_hw8_push_7_7               
700a9100  TIMESYNC_EVENT_INTROUTER0_outl_8_8_to_PRU_ICSSG0_pr1_edc0_latch0_in_0_0       
700a9108  TIMESYNC_EVENT_INTROUTER0_outl_9_9_to_PRU_ICSSG0_pr1_edc0_latch1_in_1_1       
700a1021  TaskP_Params_init                                                             
70091861  TaskP_construct                                                               
7009d751  TaskP_destruct                                                                
700a1871  TaskP_exit                                                                    
70097a41  TaskP_loadUpdateAll                                                           
700a1911  TaskP_yield                                                                   
700a0bd1  TimerP_Params_init                                                            
700a15c1  TimerP_clearOverflowInt                                                       
700a1921  TimerP_getCount                                                               
700a1931  TimerP_getReloadCount                                                         
7008fe51  TimerP_setup                                                                  
700a17a1  TimerP_start                                                                  
70092391  UART_close                                                                    
7009d581  UART_dmaClose                                                                 
7009d251  UART_dmaDisableChannel                                                        
7009f471  UART_dmaOpen                                                                  
700971e1  UART_flushTxFifo                                                              
700a0021  UART_getHandle                                                                
70099af1  UART_init                                                                     
70088881  UART_open                                                                     
7008cc21  UART_read                                                                     
700a1041  UART_readInterruptDma                                                         
7008e7c1  UART_write                                                                    
700a1061  UART_writeInterruptDma                                                        
7009dfc1  UdmaChPrms_init                                                               
7009e2b1  UdmaChRxPrms_init                                                             
7009dc71  UdmaChTxPrms_init                                                             
7009fd91  UdmaEventPrms_init                                                            
7009f091  UdmaFlowPrms_init                                                             
700a0051  UdmaRingPrms_init                                                             
7008c981  UdmaRmInitPrms_init                                                           
700a0f11  UdmaUtils_getRingMemSize                                                      
70099cd1  Udma_chClose                                                                  
700928b1  Udma_chConfigRx                                                               
700959c1  Udma_chConfigTx                                                               
70088351  Udma_chDisable                                                                
700950a1  Udma_chEnable                                                                 
700a03d1  Udma_chGetFqRingHandle                                                        
7009fa31  Udma_chGetNum                                                                 
70089f51  Udma_chOpen                                                                   
700a1981  Udma_defaultPhyToVirtFxn                                                      
700a1941  Udma_defaultVirtToPhyFxn                                                      
700a0081  Udma_eventDisable                                                             
700a0f31  Udma_eventGetGlobalHandle                                                     
70089691  Udma_eventRegister                                                            
7008e3a1  Udma_eventUnRegister                                                          
7009ce11  Udma_flowAttachMapped                                                         
70094da1  Udma_flowConfig                                                               
7009fa71  Udma_flowDetach                                                               
7009dcc1  Udma_getMappedChRingAttributes                                                
70098a51  Udma_init                                                                     
7008d3d1  Udma_initDrvHandle                                                            
700a1951  Udma_isCacheCoherent                                                          
7009f8c1  Udma_lcdmaRingaccMemOps                                                       
700a0251  Udma_phyToVirtFxn                                                             
70090dc1  Udma_ringAlloc                                                                
7009ce71  Udma_ringDequeueRaw                                                           
700a0d91  Udma_ringDequeueRawLcdma                                                      
7009f0d1  Udma_ringFlushRaw                                                             
7009c591  Udma_ringFlushRawLcdma                                                        
7009c6e1  Udma_ringFree                                                                 
700a11c1  Udma_ringGetElementCntLcdma                                                   
700a17d1  Udma_ringGetForwardRingOcc                                                    
700a0401  Udma_ringGetForwardRingOccLcdma                                               
700a17e1  Udma_ringGetMemPtr                                                            
700a11e1  Udma_ringGetMemPtrLcdma                                                       
700a17f1  Udma_ringGetMode                                                              
700a1201  Udma_ringGetModeLcdma                                                         
700a0f51  Udma_ringGetNum                                                               
700a1221  Udma_ringGetRdIdxLcdma                                                        
700a1801  Udma_ringGetReverseRingOcc                                                    
700a0431  Udma_ringGetReverseRingOccLcdma                                               
700a1241  Udma_ringGetWrIdxLcdma                                                        
700a1811  Udma_ringHandleClearRegsLcdma                                                 
700a08c1  Udma_ringPrimeLcdma                                                           
7009f281  Udma_ringPrimeReadLcdma                                                       
7009c751  Udma_ringQueueRaw                                                             
700a0db1  Udma_ringQueueRawLcdma                                                        
7009a0e1  Udma_ringSetCfgLcdma                                                          
7009dee1  Udma_ringSetDoorBellLcdma                                                     
70098af1  Udma_rmAllocBlkCopyCh                                                         
70098b91  Udma_rmAllocBlkCopyHcCh                                                       
70098c31  Udma_rmAllocBlkCopyUhcCh                                                      
7009cc91  Udma_rmAllocEvent                                                             
700a1881  Udma_rmAllocFreeRing                                                          
70098cd1  Udma_rmAllocIrIntr                                                            
70099b91  Udma_rmAllocMappedRing                                                        
70098061  Udma_rmAllocMappedRxCh                                                        
70098111  Udma_rmAllocMappedTxCh                                                        
70098d71  Udma_rmAllocRxCh                                                              
70098e11  Udma_rmAllocRxHcCh                                                            
70098eb1  Udma_rmAllocRxUhcCh                                                           
70098f51  Udma_rmAllocTxCh                                                              
70098ff1  Udma_rmAllocTxHcCh                                                            
70099091  Udma_rmAllocTxUhcCh                                                           
7009ccf1  Udma_rmAllocVintr                                                             
7009b6f1  Udma_rmAllocVintrBit                                                          
7009ecd1  Udma_rmFreeBlkCopyCh                                                          
7009ed11  Udma_rmFreeBlkCopyHcCh                                                        
7009ed51  Udma_rmFreeBlkCopyUhcCh                                                       
7009ed91  Udma_rmFreeEvent                                                              
700a1991  Udma_rmFreeFreeRing                                                           
7009edd1  Udma_rmFreeIrIntr                                                             
7009c941  Udma_rmFreeMappedRing                                                         
7009e011  Udma_rmFreeMappedRxCh                                                         
7009e061  Udma_rmFreeMappedTxCh                                                         
7009ee11  Udma_rmFreeRxCh                                                               
7009ee51  Udma_rmFreeRxHcCh                                                             
7009ee91  Udma_rmFreeRxUhcCh                                                            
7009eed1  Udma_rmFreeTxCh                                                               
7009ef11  Udma_rmFreeTxHcCh                                                             
7009ef51  Udma_rmFreeTxUhcCh                                                            
7009ef91  Udma_rmFreeVintr                                                              
7009db81  Udma_rmFreeVintrBit                                                           
700a1081  Udma_rmGetDefBoardCfgPrms                                                     
7009a5e1  Udma_rmGetSciclientDefaultBoardCfgRmRange                                     
700a0461  Udma_rmGetSharedResPrms                                                       
7008b471  Udma_rmInit                                                                   
70094581  Udma_rmSetSharedResRmInitPrms                                                 
700a16c1  Udma_rmTranslateCoreIntrInput                                                 
700a16d1  Udma_rmTranslateIrOutput                                                      
700a0a11  Udma_virtToPhyFxn                                                             
700cff64  _CIOBUF_                                                                      
7009cd51  _DebugP_assert                                                                
700d6a01  _DebugP_assertNoLog                                                           
7009b421  _DebugP_logZone                                                               
700d7d38  __ABORT_STACK_END                                                             
00000100  __ABORT_STACK_SIZE                                                            
700d7c38  __ABORT_STACK_START                                                           
700d0900  __BSS_END                                                                     
700c0d80  __BSS_START                                                                   
700cff64  __CIOBUF_                                                                     
700d6c38  __FIQ_STACK_END                                                               
00000100  __FIQ_STACK_SIZE                                                              
700d6b38  __FIQ_STACK_START                                                             
700d6b38  __IRQ_STACK_END                                                               
00000100  __IRQ_STACK_SIZE                                                              
700d6a38  __IRQ_STACK_START                                                             
700d2d00  __STACK_END                                                                   
00002000  __STACK_SIZE                                                                  
700d7c38  __SVC_STACK_END                                                               
00001000  __SVC_STACK_SIZE                                                              
700d6c38  __SVC_STACK_START                                                             
00000400  __SYSMEM_SIZE                                                                 
UNDEFED   __TI_CINIT_Base                                                               
UNDEFED   __TI_CINIT_Limit                                                              
UNDEFED   __TI_Handler_Table_Base                                                       
UNDEFED   __TI_Handler_Table_Limit                                                      
7009dc20  __TI_auto_init_nobinit_nopinit                                                
700d54cc  __TI_cleanup_ptr                                                              
700d54c8  __TI_dtors_ptr                                                                
ffffffff  __TI_pprof_out_hndl                                                           
7008c120  __TI_printfi_nofloat                                                          
ffffffff  __TI_prof_data_size                                                           
ffffffff  __TI_prof_data_start                                                          
7009d0e8  __TI_readmsg                                                                  
00000000  __TI_static_base__                                                            
7009d140  __TI_writemsg                                                                 
700d7e38  __UNDEFINED_STACK_END                                                         
00000100  __UNDEFINED_STACK_SIZE                                                        
700d7d38  __UNDEFINED_STACK_START                                                       
700a7fb0  __aeabi_ctype_table_                                                          
700a7fb0  __aeabi_ctype_table_C                                                         
700a1960  __aeabi_idiv0                                                                 
700a1970  __aeabi_ldiv0                                                                 
700a0fbc  __aeabi_memclr                                                                
700a0fbc  __aeabi_memclr4                                                               
700a0fbc  __aeabi_memclr8                                                               
7009cc8c  __aeabi_memcpy                                                                
7009cc8c  __aeabi_memcpy4                                                               
7009cc8c  __aeabi_memcpy8                                                               
700a0fac  __aeabi_memset                                                                
700a0fac  __aeabi_memset4                                                               
700a0fac  __aeabi_memset8                                                               
7008f8d4  __aeabi_uidiv                                                                 
700a0974  __aeabi_uldivmod                                                              
ffffffff  __binit__                                                                     
700d6a1f  __mpu_init                                                                    
700d0d00  __stack                                                                       
70093f0c  __udivmoddi4                                                                  
7008f8d4  __udivsi3                                                                     
700d6924  _c_int00                                                                      
700d6900  _c_int00_sbl                                                                  
700d0900  _sys_memory                                                                   
UNDEFED   _system_post_cinit                                                            
700a0f71  _system_pre_init                                                              
00000000  _vectors                                                                      
700d6a30  abort                                                                         
70091264  aligned_alloc                                                                 
ffffffff  binit                                                                         
700972a1  eTaskGetState                                                                 
700913e4  free                                                                          
70090a71  freertos_main                                                                 
700d58a8  gAddrTranslateConfig                                                          
700a9110  gCacheConfig                                                                  
700a82ec  gCacheL1dCacheLineSize                                                        
700a851c  gCacheL1pCacheLineSize                                                        
700d5850  gClockConfig                                                                  
700d07c0  gClockCtrl                                                                    
700d58e4  gDebugLogZone                                                                 
700d58f8  gDebugP_uartDrvIndex                                                          
700d58b4  gEepromAttrs_AT24C                                                            
700d58c0  gEepromConfig                                                                 
700d58fc  gEepromConfigNum                                                              
700d5878  gEepromFxns_AT24C                                                             
700d08b8  gEepromHandle                                                                 
700cfdb8  gEepromObject_AT24C                                                           
700d58cc  gEepromParams                                                                 
700d5900  gHwiConfig                                                                    
700c9400  gHwiCtrl                                                                      
700d5888  gI2cConfig                                                                    
700d5904  gI2cConfigNum                                                                 
700d08bc  gMainTask                                                                     
700d0650  gMainTaskObj                                                                  
700c5d80  gMainTaskStack                                                                
700a8d7c  gMpuConfig                                                                    
700a8718  gMpuRegionConfig                                                              
700d57f4  gRmIaInstances                                                                
700d5468  gRmIrInstances                                                                
700a8850  gRmIrqTree                                                                    
700a91e8  gRmIrqTreeCount                                                               
700d072c  gRovDummyQueue                                                                
700a7c6c  gSciclientMap                                                                 
700d5818  gSciclientSecProxyCfg                                                         
700d0400  gTaskP_ctrl                                                                   
700d58dc  gUartConfig                                                                   
700d591c  gUartConfigNum                                                                
700d2d00  gUartDmaConfig                                                                
700d5920  gUartDmaConfigNum                                                             
700cce48  gUdmaDrvObj                                                                   
700a8498  gUdmaRmDefBoardCfg_Bcdma                                                      
700a76f4  gUdmaRmDefBoardCfg_Pktdma                                                     
700d5524  gUdmaRmSharedResPrms                                                          
700a8250  gUdmaRxMappedChRingAttributes                                                 
700a79fc  gUdmaTxMappedChRingAttributes                                                 
700d5996  isMapAvailable                                                                
7009c2a1  main                                                                          
7009c6d4  malloc                                                                        
70091264  memalign                                                                      
70091564  memcpy                                                                        
70099130  memset                                                                        
7009c51d  putchar_                                                                      
700a1261  pvTaskIncrementMutexHeldCount                                                 
7009f4b1  pvTimerGetTimerID                                                             
700d5928  pxCurrentTCB                                                                  
7009a171  pxPortInitialiseStack                                                         
7009d198  sprintf                                                                       
700a8cd8  tisci_if_CMP_EVENT_INTROUTER0                                                 
700a8d3c  tisci_if_CPSW0                                                                
700a8c38  tisci_if_CPTS0                                                                
700a8b50  tisci_if_DMASS0_INTAGGR_0                                                     
700a91ec  tisci_if_EPWM0                                                                
700a91f0  tisci_if_EPWM3                                                                
700a91f4  tisci_if_EPWM6                                                                
700a9118  tisci_if_GPIO0                                                                
700a9120  tisci_if_GPIO1                                                                
700a91f8  tisci_if_GPMC0                                                                
700a91fc  tisci_if_GTC0                                                                 
700a8b1c  tisci_if_MAIN_GPIOMUX_INTROUTER0                                              
700a9128  tisci_if_MCU_GPIO0                                                            
700a8bd4  tisci_if_MCU_MCU_GPIOMUX_INTROUTER0                                           
700a8d04  tisci_if_PCIE0                                                                
700a8c58  tisci_if_PRU_ICSSG0                                                           
700a8c74  tisci_if_PRU_ICSSG1                                                           
700a9200  tisci_if_TIMER0                                                               
700a9204  tisci_if_TIMER1                                                               
700a9208  tisci_if_TIMER2                                                               
700a920c  tisci_if_TIMER3                                                               
700a8788  tisci_if_TIMESYNC_EVENT_INTROUTER0                                            
700a1831  uiPortGetRunTimeCounterValue                                                  
700d592c  ulPortInterruptNesting                                                        
700d5930  ulPortSchedularRunning                                                        
700d5934  ulPortTaskHasFPUContext                                                       
700d5938  ulPortYieldRequired                                                           
700a08f1  uxListRemove                                                                  
700a9210  uxTopUsedPriority                                                             
700a0dd1  vApplicationGetIdleTaskMemory                                                 
700a0df1  vApplicationGetTimerTaskMemory                                                
700a17c1  vApplicationIdleHook                                                          
7009f301  vApplicationLoadHook                                                          
7009ff61  vApplicationStackOverflowHook                                                 
700a1451  vListInitialise                                                               
700a18a1  vListInitialiseItem                                                           
7009f4f1  vListInsert                                                                   
700a0f91  vListInsertEnd                                                                
700a19b1  vPortConfigTimerForRunTimeStats                                               
700a10a1  vPortFree                                                                     
700d6010  vPortRestoreTaskContext                                                       
700a0501  vPortTimerTickHandler                                                         
700a19c1  vPortValidateInterruptPriority                                                
700a16f1  vPortYeildFromISR                                                             
700a0531  vQueueAddToRegistry                                                           
7009c671  vQueueDelete                                                                  
7009e391  vQueueWaitForMessageRestricted                                                
7009d2b1  vTaskDelay                                                                    
70095561  vTaskDelete                                                                   
700a0a41  vTaskEnterCritical                                                            
700a00b1  vTaskExitCritical                                                             
700999c1  vTaskGetInfo                                                                  
700a10c1  vTaskInternalSetTimeOutState                                                  
700a1741  vTaskMissedYield                                                              
7009dd11  vTaskPlaceOnEventList                                                         
7009d1f1  vTaskPlaceOnEventListRestricted                                               
70095ee1  vTaskPriorityDisinheritAfterTimeout                                           
70096d91  vTaskStartScheduler                                                           
700a1701  vTaskSuspendAll                                                               
70093841  vTaskSwitchContext                                                            
700d4fb8  vint_usage_count_DMASS0_INTAGGR_0                                             
700d0898  virtToPhymap                                                                  
700a0921  vprintf_                                                                      
700a0bf1  vsnprintf_                                                                    
7009cabc  vsscanf                                                                       
700a12c1  xPortStartScheduler                                                           
7009bb01  xQueueCreateCountingSemaphoreStatic                                           
7009fdd1  xQueueCreateMutexStatic                                                       
70094ca1  xQueueGenericCreateStatic                                                     
7009ac41  xQueueGenericReset                                                            
700908c1  xQueueGenericSend                                                             
70093971  xQueueGenericSendFromISR                                                      
70094691  xQueueGiveFromISR                                                             
7009d7b1  xQueueGiveMutexRecursive                                                      
70090f61  xQueueReceive                                                                 
70094ea1  xQueueReceiveFromISR                                                          
700d0184  xQueueRegistry                                                                
7008fab1  xQueueSemaphoreTake                                                           
7009dd61  xQueueTakeMutexRecursive                                                      
700967a1  xTaskCheckForTimeOut                                                          
70096491  xTaskCreateStatic                                                             
700a1781  xTaskGetCurrentTaskHandle                                                     
7009f341  xTaskGetIdleTaskHandle                                                        
700a0951  xTaskGetSchedulerState                                                        
7009fd21  xTaskGetTickCount                                                             
70091e31  xTaskIncrementTick                                                            
70097af1  xTaskPriorityDisinherit                                                       
70099f31  xTaskPriorityInherit                                                          
70098861  xTaskRemoveFromEventList                                                      
70092771  xTaskResumeAll                                                                
7009acc1  xTimerCreateStatic                                                            
7009a811  xTimerCreateTimerTask                                                         
7009b4a1  xTimerGenericCommand                                                          


GLOBAL SYMBOLS: SORTED BY Symbol Address 

address   name                                                                          
-------   ----                                                                          
00000000  __TI_static_base__                                                            
00000000  _vectors                                                                      
00000100  __ABORT_STACK_SIZE                                                            
00000100  __FIQ_STACK_SIZE                                                              
00000100  __IRQ_STACK_SIZE                                                              
00000100  __UNDEFINED_STACK_SIZE                                                        
00000400  __SYSMEM_SIZE                                                                 
00001000  __SVC_STACK_SIZE                                                              
00002000  __STACK_SIZE                                                                  
70088351  Udma_chDisable                                                                
70088881  UART_open                                                                     
70088d71  I2C_primeTransfer                                                             
70089691  Udma_eventRegister                                                            
70089f51  Udma_chOpen                                                                   
7008aa11  Sciclient_service                                                             
7008b471  Udma_rmInit                                                                   
7008c120  __TI_printfi_nofloat                                                          
7008c981  UdmaRmInitPrms_init                                                           
7008cc21  UART_read                                                                     
7008d141  I2C_open                                                                      
7008d3d1  Udma_initDrvHandle                                                            
7008d8e1  I2C_hwiFxnMaster                                                              
7008e3a1  Udma_eventUnRegister                                                          
7008e5b1  Sciclient_rmProgramInterruptRoute                                             
7008e7c1  UART_write                                                                    
7008f8d4  __aeabi_uidiv                                                                 
7008f8d4  __udivsi3                                                                     
7008fab1  xQueueSemaphoreTake                                                           
7008fc81  CSL_bcdmaChanOp                                                               
7008fe51  TimerP_setup                                                                  
700901d1  SOC_phyToVirt                                                                 
70090551  SOC_virtToPhy                                                                 
70090711  Sciclient_rmClearInterruptRoute                                               
700908c1  xQueueGenericSend                                                             
70090a71  freertos_main                                                                 
70090dc1  Udma_ringAlloc                                                                
70090f61  xQueueReceive                                                                 
70091264  aligned_alloc                                                                 
70091264  memalign                                                                      
700913e4  free                                                                          
70091564  memcpy                                                                        
70091861  TaskP_construct                                                               
70091e31  xTaskIncrementTick                                                            
70091f91  I2C_hwiFxnSlave                                                               
70092391  UART_close                                                                    
70092771  xTaskResumeAll                                                                
700928b1  Udma_chConfigRx                                                               
70092da1  ClockP_init                                                                   
70093271  SOC_moduleSetClockFrequency                                                   
70093841  vTaskSwitchContext                                                            
70093971  xQueueGenericSendFromISR                                                      
70093f0c  __udivmoddi4                                                                  
70094471  I2C_transfer                                                                  
70094581  Udma_rmSetSharedResRmInitPrms                                                 
70094691  xQueueGiveFromISR                                                             
700949a1  I2C_ctrlInit                                                                  
70094aa1  EEPROM_AT24C_write                                                            
70094ca1  xQueueGenericCreateStatic                                                     
70094da1  Udma_flowConfig                                                               
70094ea1  xQueueReceiveFromISR                                                          
700950a1  Udma_chEnable                                                                 
70095561  vTaskDelete                                                                   
700959c1  Udma_chConfigTx                                                               
70095b81  EEPROM_AT24C_read                                                             
70095e05  System_init                                                                   
70095ee1  vTaskPriorityDisinheritAfterTimeout                                           
70096491  xTaskCreateStatic                                                             
700967a1  xTaskCheckForTimeOut                                                          
70096b51  I2C_recoverBus                                                                
70096c11  Pinmux_config                                                                 
70096d91  vTaskStartScheduler                                                           
70096e51  CSL_lcdma_ringaccDequeue                                                      
700971e1  UART_flushTxFifo                                                              
700972a1  eTaskGetState                                                                 
70097361  ClockP_construct                                                              
70097991  DebugP_readLine                                                               
70097a41  TaskP_loadUpdateAll                                                           
70097af1  xTaskPriorityDisinherit                                                       
70098061  Udma_rmAllocMappedRxCh                                                        
70098111  Udma_rmAllocMappedTxCh                                                        
70098311  I2C_close                                                                     
70098701  Sciclient_pmQueryModuleClkFreq                                                
70098861  xTaskRemoveFromEventList                                                      
70098a51  Udma_init                                                                     
70098af1  Udma_rmAllocBlkCopyCh                                                         
70098b91  Udma_rmAllocBlkCopyHcCh                                                       
70098c31  Udma_rmAllocBlkCopyUhcCh                                                      
70098cd1  Udma_rmAllocIrIntr                                                            
70098d71  Udma_rmAllocRxCh                                                              
70098e11  Udma_rmAllocRxHcCh                                                            
70098eb1  Udma_rmAllocRxUhcCh                                                           
70098f51  Udma_rmAllocTxCh                                                              
70098ff1  Udma_rmAllocTxHcCh                                                            
70099091  Udma_rmAllocTxUhcCh                                                           
70099130  memset                                                                        
70099581  Sciclient_init                                                                
700999c1  vTaskGetInfo                                                                  
70099af1  UART_init                                                                     
70099b91  Udma_rmAllocMappedRing                                                        
70099c31  Sciclient_pmSetModuleClkFreq                                                  
70099cd1  Udma_chClose                                                                  
70099f31  xTaskPriorityInherit                                                          
7009a0e1  Udma_ringSetCfgLcdma                                                          
7009a171  pxPortInitialiseStack                                                         
7009a5e1  Udma_rmGetSciclientDefaultBoardCfgRmRange                                     
7009a781  I2CMasterInitExpClk                                                           
7009a811  xTimerCreateTimerTask                                                         
7009ac41  xQueueGenericReset                                                            
7009acc1  xTimerCreateStatic                                                            
7009ad41  CSL_intaggrSetIntrEnable                                                      
7009afb1  Sciclient_rmIrOutpIsFree                                                      
7009b0b1  Sciclient_pmGetModuleClkNumParent                                             
7009b131  Sciclient_rmTranslateIntOutput                                                
7009b421  _DebugP_logZone                                                               
7009b4a1  xTimerGenericCommand                                                          
7009b6f1  Udma_rmAllocVintrBit                                                          
7009ba91  SemaphoreP_constructBinary                                                    
7009bb01  xQueueCreateCountingSemaphoreStatic                                           
7009bbe1  SOC_moduleClockEnable                                                         
7009bc51  Sciclient_pmGetModuleState                                                    
7009be71  SOC_isR5FDualCoreMode                                                         
7009bfc1  AddrTranslateP_getLocalAddr                                                   
7009c2a1  main                                                                          
7009c311  Sciclient_pmGetModuleClkFreq                                                  
7009c381  Sciclient_pmGetModuleClkParent                                                
7009c51d  putchar_                                                                      
7009c521  Sciclient_pmModuleGetClkStatus                                                
7009c591  Udma_ringFlushRawLcdma                                                        
7009c601  CycleCounterP_init                                                            
7009c611  CycleCounterP_nsToTicks                                                       
7009c641  CycleCounterP_reset                                                           
7009c671  vQueueDelete                                                                  
7009c6d4  malloc                                                                        
7009c6e1  Udma_ringFree                                                                 
7009c744  CSL_armR5ReadMpidrReg                                                         
7009c751  Udma_ringQueueRaw                                                             
7009c881  I2C_waitForPin                                                                
7009c941  Udma_rmFreeMappedRing                                                         
7009c9a1  Sciclient_pmModuleClkRequest                                                  
7009ca01  Sciclient_pmSetModuleClkParent                                                
7009cabc  vsscanf                                                                       
7009cc8c  __aeabi_memcpy                                                                
7009cc8c  __aeabi_memcpy4                                                               
7009cc8c  __aeabi_memcpy8                                                               
7009cc91  Udma_rmAllocEvent                                                             
7009ccf1  Udma_rmAllocVintr                                                             
7009cd51  _DebugP_assert                                                                
7009cdb1  I2C_completeCurrTransfer                                                      
7009ce11  Udma_flowAttachMapped                                                         
7009ce71  Udma_ringDequeueRaw                                                           
7009d031  SemaphoreP_constructCounting                                                  
7009d091  SemaphoreP_pend                                                               
7009d0e8  __TI_readmsg                                                                  
7009d140  __TI_writemsg                                                                 
7009d18c  C$$IO$$                                                                       
7009d198  sprintf                                                                       
7009d1f1  vTaskPlaceOnEventListRestricted                                               
7009d251  UART_dmaDisableChannel                                                        
7009d2b1  vTaskDelay                                                                    
7009d371  CSL_intaggrIsIntrPending                                                      
7009d521  Sciclient_rmGetResourceRange                                                  
7009d581  UART_dmaClose                                                                 
7009d631  Sciclient_pmSetModuleState                                                    
7009d691  SemaphoreP_constructMutex                                                     
7009d6f1  SemaphoreP_post                                                               
7009d751  TaskP_destruct                                                                
7009d7b1  xQueueGiveMutexRecursive                                                      
7009db31  Sciclient_getContext                                                          
7009db81  Udma_rmFreeVintrBit                                                           
7009dc20  __TI_auto_init_nobinit_nopinit                                                
7009dc71  UdmaChTxPrms_init                                                             
7009dcc1  Udma_getMappedChRingAttributes                                                
7009dd11  vTaskPlaceOnEventList                                                         
7009dd61  xQueueTakeMutexRecursive                                                      
7009ddb1  ClockP_getTimeUsec                                                            
7009dee1  Udma_ringSetDoorBellLcdma                                                     
7009dfc1  UdmaChPrms_init                                                               
7009e011  Udma_rmFreeMappedRxCh                                                         
7009e061  Udma_rmFreeMappedTxCh                                                         
7009e101  CSL_intaggrClrIntr                                                            
7009e2b1  UdmaChRxPrms_init                                                             
7009e341  Sciclient_procBootGetProcessorState                                           
7009e391  vQueueWaitForMessageRestricted                                                
7009e641  Sciclient_pmSetModuleRst                                                      
7009e721  Sciclient_rmIrqReleaseRaw                                                     
7009e771  Sciclient_rmPsilPair                                                          
7009e7c1  Sciclient_rmPsilUnpair                                                        
7009e805  Board_eepromOpen                                                              
7009e9d1  Dpl_init                                                                      
7009ead1  I2C_init                                                                      
7009eb51  Sciclient_rmIrqSetRaw                                                         
7009eb91  Sciclient_rmRingCfg                                                           
7009ebd1  Sciclient_rmUdmapFlowCfg                                                      
7009ec11  Sciclient_rmUdmapFlowSizeThreshCfg                                            
7009ec51  Sciclient_rmUdmapRxChCfg                                                      
7009ec91  Sciclient_rmUdmapTxChCfg                                                      
7009ecd1  Udma_rmFreeBlkCopyCh                                                          
7009ed11  Udma_rmFreeBlkCopyHcCh                                                        
7009ed51  Udma_rmFreeBlkCopyUhcCh                                                       
7009ed91  Udma_rmFreeEvent                                                              
7009edd1  Udma_rmFreeIrIntr                                                             
7009ee11  Udma_rmFreeRxCh                                                               
7009ee51  Udma_rmFreeRxHcCh                                                             
7009ee91  Udma_rmFreeRxUhcCh                                                            
7009eed1  Udma_rmFreeTxCh                                                               
7009ef11  Udma_rmFreeTxHcCh                                                             
7009ef51  Udma_rmFreeTxUhcCh                                                            
7009ef91  Udma_rmFreeVintr                                                              
7009f011  ClockP_stop                                                                   
7009f051  SOC_controlModuleUnlockMMR                                                    
7009f091  UdmaFlowPrms_init                                                             
7009f0d1  Udma_ringFlushRaw                                                             
7009f151  CSL_bcdmaGetCfg                                                               
7009f281  Udma_ringPrimeReadLcdma                                                       
7009f301  vApplicationLoadHook                                                          
7009f341  xTaskGetIdleTaskHandle                                                        
7009f381  DebugP_uartLogWriterPutChar                                                   
7009f3c1  EEPROM_open                                                                   
7009f471  UART_dmaOpen                                                                  
7009f4b1  pvTimerGetTimerID                                                             
7009f4f1  vListInsert                                                                   
7009f881  Sciclient_getCurrentContext                                                   
7009f8c1  Udma_lcdmaRingaccMemOps                                                       
7009f901  CSL_pktdmaGetCfg                                                              
7009f941  ClockP_usleep                                                                 
7009f9f1  EEPROM_AT24C_open                                                             
7009fa31  Udma_chGetNum                                                                 
7009fa71  Udma_flowDetach                                                               
7009fd21  xTaskGetTickCount                                                             
7009fd91  UdmaEventPrms_init                                                            
7009fdd1  xQueueCreateMutexStatic                                                       
7009fe41  DebugP_scanf                                                                  
7009ff01  I2C_getHandle                                                                 
7009ff30  CycleCounterP_getCount32                                                      
7009ff38  PmuP_setup                                                                    
7009ff40  PmuP_enableCounters                                                           
7009ff48  PmuP_disableCounters                                                          
7009ff50  PmuP_getOverflowStatus                                                        
7009ff58  PmuP_clearOverflowStatus                                                      
7009ff61  vApplicationStackOverflowHook                                                 
7009ffc1  ClockP_timerTickIsr                                                           
700a0021  UART_getHandle                                                                
700a0051  UdmaRingPrms_init                                                             
700a0081  Udma_eventDisable                                                             
700a00b1  vTaskExitCritical                                                             
700a0111  CSL_pktdmaGetRxRT                                                             
700a0141  CSL_pktdmaGetTxRT                                                             
700a0221  SOC_controlModuleLockMMR                                                      
700a0251  Udma_phyToVirtFxn                                                             
700a0281  CSL_intaggrGetCfg                                                             
700a03d1  Udma_chGetFqRingHandle                                                        
700a0401  Udma_ringGetForwardRingOccLcdma                                               
700a0431  Udma_ringGetReverseRingOccLcdma                                               
700a0461  Udma_rmGetSharedResPrms                                                       
700a0501  vPortTimerTickHandler                                                         
700a0531  vQueueAddToRegistry                                                           
700a0561  CSL_bcdmaGetChanPeerReg                                                       
700a08c1  Udma_ringPrimeLcdma                                                           
700a08f1  uxListRemove                                                                  
700a0921  vprintf_                                                                      
700a0951  xTaskGetSchedulerState                                                        
700a0974  __aeabi_uldivmod                                                              
700a09a1  CSL_bcdmaSetChanPeerReg                                                       
700a0a11  Udma_virtToPhyFxn                                                             
700a0a41  vTaskEnterCritical                                                            
700a0a91  CSL_pktdmaSetRxRT                                                             
700a0ab1  CSL_pktdmaSetTxRT                                                             
700a0b11  DebugP_logZoneEnable                                                          
700a0bb1  SOC_getSelfCpuClk                                                             
700a0bd1  TimerP_Params_init                                                            
700a0bf1  vsnprintf_                                                                    
700a0c31  CSL_bcdmaTeardownRxChan                                                       
700a0c51  CSL_bcdmaTeardownTxChan                                                       
700a0cb1  EEPROM_AT24C_close                                                            
700a0cd1  EEPROM_read                                                                   
700a0d91  Udma_ringDequeueRawLcdma                                                      
700a0db1  Udma_ringQueueRawLcdma                                                        
700a0dd1  vApplicationGetIdleTaskMemory                                                 
700a0df1  vApplicationGetTimerTaskMemory                                                
700a0e11  CSL_lcdma_ringaccPush64                                                       
700a0e31  CSL_pktdmaGetChanPeerReg                                                      
700a0e51  CSL_pktdmaSetChanPeerReg                                                      
700a0e71  ClockP_destruct                                                               
700a0eb1  I2C_Transaction_init                                                          
700a0f11  UdmaUtils_getRingMemSize                                                      
700a0f31  Udma_eventGetGlobalHandle                                                     
700a0f51  Udma_ringGetNum                                                               
700a0f71  _system_pre_init                                                              
700a0f91  vListInsertEnd                                                                
700a0fac  __aeabi_memset                                                                
700a0fac  __aeabi_memset4                                                               
700a0fac  __aeabi_memset8                                                               
700a0fbc  __aeabi_memclr                                                                
700a0fbc  __aeabi_memclr4                                                               
700a0fbc  __aeabi_memclr8                                                               
700a0fd1  CSL_armR5GetCpuID                                                             
700a1021  TaskP_Params_init                                                             
700a1041  UART_readInterruptDma                                                         
700a1061  UART_writeInterruptDma                                                        
700a1081  Udma_rmGetDefBoardCfgPrms                                                     
700a10a1  vPortFree                                                                     
700a10c1  vTaskInternalSetTimeOutState                                                  
700a10dd  Board_eepromClose                                                             
700a1141  I2C_hwiFxn                                                                    
700a11a1  Sciclient_getDevId                                                            
700a11c1  Udma_ringGetElementCntLcdma                                                   
700a11e1  Udma_ringGetMemPtrLcdma                                                       
700a1201  Udma_ringGetModeLcdma                                                         
700a1221  Udma_ringGetRdIdxLcdma                                                        
700a1241  Udma_ringGetWrIdxLcdma                                                        
700a1261  pvTaskIncrementMutexHeldCount                                                 
700a12c1  xPortStartScheduler                                                           
700a12e1  CSL_bcdmaGetRxRT                                                              
700a1301  CSL_bcdmaGetTxRT                                                              
700a1321  CSL_bcdmaSetRxRT                                                              
700a1341  CSL_bcdmaSetTxRT                                                              
700a1361  ClockP_Params_init                                                            
700a1381  ClockP_timerCallbackFunction                                                  
700a1451  vListInitialise                                                               
700a1471  CSL_lcdma_ringaccPop64                                                        
700a1491  ClockP_usecToTicks                                                            
700a1531  CSL_lcdma_ringaccGetReverseRingOcc                                            
700a15c1  TimerP_clearOverflowInt                                                       
700a15e1  CSL_lcdma_ringaccIsTeardownComplete                                           
700a15f1  ClockP_ticksToUsec                                                            
700a16b1  Sciclient_rmIrqRelease                                                        
700a16c1  Udma_rmTranslateCoreIntrInput                                                 
700a16d1  Udma_rmTranslateIrOutput                                                      
700a16f1  vPortYeildFromISR                                                             
700a1701  vTaskSuspendAll                                                               
700a1711  CSL_lcdma_ringaccGetForwardRingOcc                                            
700a1721  CSL_lcdma_ringaccInitRingObj                                                  
700a1731  EEPROM_close                                                                  
700a1741  vTaskMissedYield                                                              
700a1751  DebugP_uartSetDrvIndex                                                        
700a1761  I2C_transferCallback                                                          
700a1771  Sciclient_getSelfDevIdCore                                                    
700a1781  xTaskGetCurrentTaskHandle                                                     
700a1791  CSL_secProxyGetDataAddr                                                       
700a17a1  TimerP_start                                                                  
700a17c1  vApplicationIdleHook                                                          
700a17d1  Udma_ringGetForwardRingOcc                                                    
700a17e1  Udma_ringGetMemPtr                                                            
700a17f1  Udma_ringGetMode                                                              
700a1801  Udma_ringGetReverseRingOcc                                                    
700a1811  Udma_ringHandleClearRegsLcdma                                                 
700a1831  uiPortGetRunTimeCounterValue                                                  
700a1841  CSL_pktdmaTeardownRxChan                                                      
700a1851  CSL_pktdmaTeardownTxChan                                                      
700a1861  SemaphoreP_destruct                                                           
700a1871  TaskP_exit                                                                    
700a1881  Udma_rmAllocFreeRing                                                          
700a18a1  vListInitialiseItem                                                           
700a18b1  ClockP_getTicks                                                               
700a18c1  ClockP_getTimerCount                                                          
700a18d1  ClockP_timerClearOverflowInt                                                  
700a18e1  PRUICSS_init                                                                  
700a18f1  Sciclient_rmIrqSet                                                            
700a1901  Sciclient_rmIrqTranslateIaOutput                                              
700a1911  TaskP_yield                                                                   
700a1921  TimerP_getCount                                                               
700a1931  TimerP_getReloadCount                                                         
700a1941  Udma_defaultVirtToPhyFxn                                                      
700a1951  Udma_isCacheCoherent                                                          
700a1960  __aeabi_idiv0                                                                 
700a1970  __aeabi_ldiv0                                                                 
700a1981  Udma_defaultPhyToVirtFxn                                                      
700a1991  Udma_rmFreeFreeRing                                                           
700a19b1  vPortConfigTimerForRunTimeStats                                               
700a19c1  vPortValidateInterruptPriority                                                
700a76f4  gUdmaRmDefBoardCfg_Pktdma                                                     
700a79fc  gUdmaTxMappedChRingAttributes                                                 
700a7c6c  gSciclientMap                                                                 
700a7fb0  __aeabi_ctype_table_                                                          
700a7fb0  __aeabi_ctype_table_C                                                         
700a8250  gUdmaRxMappedChRingAttributes                                                 
700a82ec  gCacheL1dCacheLineSize                                                        
700a8498  gUdmaRmDefBoardCfg_Bcdma                                                      
700a851c  gCacheL1pCacheLineSize                                                        
700a8718  gMpuRegionConfig                                                              
700a8788  tisci_if_TIMESYNC_EVENT_INTROUTER0                                            
700a8850  gRmIrqTree                                                                    
700a8b1c  tisci_if_MAIN_GPIOMUX_INTROUTER0                                              
700a8b50  tisci_if_DMASS0_INTAGGR_0                                                     
700a8bb0  I2C_defaultTransaction                                                        
700a8bd4  tisci_if_MCU_MCU_GPIOMUX_INTROUTER0                                           
700a8c38  tisci_if_CPTS0                                                                
700a8c58  tisci_if_PRU_ICSSG0                                                           
700a8c74  tisci_if_PRU_ICSSG1                                                           
700a8cd8  tisci_if_CMP_EVENT_INTROUTER0                                                 
700a8d04  tisci_if_PCIE0                                                                
700a8d3c  tisci_if_CPSW0                                                                
700a8d7c  gMpuConfig                                                                    
700a8d90  CMP_EVENT_INTROUTER0_outp_0_15_to_GICSS0_spi_48_63                            
700a8d98  CMP_EVENT_INTROUTER0_outp_16_23_to_R5FSS0_CORE0_intr_48_55                    
700a8da0  CMP_EVENT_INTROUTER0_outp_16_23_to_R5FSS0_CORE1_intr_48_55                    
700a8da8  CMP_EVENT_INTROUTER0_outp_24_31_to_R5FSS1_CORE0_intr_48_55                    
700a8db0  CMP_EVENT_INTROUTER0_outp_24_31_to_R5FSS1_CORE1_intr_48_55                    
700a8db8  CMP_EVENT_INTROUTER0_outp_32_39_to_DMASS0_INTAGGR_0_intaggr_levi_pend_0_7     
700a8dc0  CPSW0_cpts_comp_0_0_to_CMP_EVENT_INTROUTER0_in_80_80                          
700a8dc8  CPSW0_cpts_genf0_1_1_to_TIMESYNC_EVENT_INTROUTER0_in_21_21                    
700a8dd0  CPSW0_cpts_genf1_2_2_to_TIMESYNC_EVENT_INTROUTER0_in_22_22                    
700a8dd8  CPSW0_cpts_sync_3_3_to_TIMESYNC_EVENT_INTROUTER0_in_34_34                     
700a8de0  CPTS0_cpts_comp_0_0_to_CMP_EVENT_INTROUTER0_in_82_82                          
700a8de8  CPTS0_cpts_genf0_1_1_to_TIMESYNC_EVENT_INTROUTER0_in_16_16                    
700a8df0  CPTS0_cpts_genf1_2_2_to_TIMESYNC_EVENT_INTROUTER0_in_17_17                    
700a8df8  CPTS0_cpts_genf2_3_3_to_TIMESYNC_EVENT_INTROUTER0_in_18_18                    
700a8e00  CPTS0_cpts_genf3_4_4_to_TIMESYNC_EVENT_INTROUTER0_in_19_19                    
700a8e08  CPTS0_cpts_genf4_5_5_to_TIMESYNC_EVENT_INTROUTER0_in_20_20                    
700a8e10  CPTS0_cpts_genf5_6_6_to_TIMESYNC_EVENT_INTROUTER0_in_24_24                    
700a8e18  CPTS0_cpts_sync_7_7_to_TIMESYNC_EVENT_INTROUTER0_in_35_35                     
700a8e20  DMASS0_INTAGGR_0_intaggr_vintr_pend_0_39_to_GICSS0_spi_64_103                 
700a8e28  DMASS0_INTAGGR_0_intaggr_vintr_pend_120_127_to_R5FSS1_CORE0_intr_8_15         
700a8e30  DMASS0_INTAGGR_0_intaggr_vintr_pend_128_135_to_R5FSS1_CORE1_intr_8_15         
700a8e38  DMASS0_INTAGGR_0_intaggr_vintr_pend_152_159_to_PRU_ICSSG0_pr1_slv_intr_16_23  
700a8e40  DMASS0_INTAGGR_0_intaggr_vintr_pend_160_167_to_PRU_ICSSG1_pr1_slv_intr_16_23  
700a8e48  DMASS0_INTAGGR_0_intaggr_vintr_pend_168_183_to_MCU_M4FSS0_CORE0_nvic_32_47    
700a8e50  DMASS0_INTAGGR_0_intaggr_vintr_pend_40_71_to_R5FSS0_CORE0_intr_64_95          
700a8e58  DMASS0_INTAGGR_0_intaggr_vintr_pend_40_71_to_R5FSS0_CORE1_intr_64_95          
700a8e60  DMASS0_INTAGGR_0_intaggr_vintr_pend_72_79_to_R5FSS0_CORE0_intr_8_15           
700a8e68  DMASS0_INTAGGR_0_intaggr_vintr_pend_80_87_to_R5FSS0_CORE1_intr_8_15           
700a8e70  DMASS0_INTAGGR_0_intaggr_vintr_pend_88_119_to_R5FSS1_CORE0_intr_64_95         
700a8e78  DMASS0_INTAGGR_0_intaggr_vintr_pend_88_119_to_R5FSS1_CORE1_intr_64_95         
700a8e80  EPWM0_epwm_synco_o_0_0_to_TIMESYNC_EVENT_INTROUTER0_in_39_39                  
700a8e88  EPWM3_epwm_synco_o_0_0_to_TIMESYNC_EVENT_INTROUTER0_in_40_40                  
700a8e90  EPWM6_epwm_synco_o_0_0_to_TIMESYNC_EVENT_INTROUTER0_in_41_41                  
700a8e98  GPIO0_gpio_0_89_to_MAIN_GPIOMUX_INTROUTER0_in_0_89                            
700a8ea0  GPIO0_gpio_bank_90_98_to_MAIN_GPIOMUX_INTROUTER0_in_190_198                   
700a8ea8  GPIO1_gpio_0_89_to_MAIN_GPIOMUX_INTROUTER0_in_90_179                          
700a8eb0  GPIO1_gpio_bank_90_98_to_MAIN_GPIOMUX_INTROUTER0_in_180_188                   
700a8eb8  GPMC0_gpmc_sdmareq_0_0_to_DMASS0_INTAGGR_0_intaggr_levi_pend_29_29            
700a8ec0  GTC0_gtc_push_event_0_0_to_TIMESYNC_EVENT_INTROUTER0_in_36_36                 
700a8ec8  MAIN_GPIOMUX_INTROUTER0_outp_0_15_to_GICSS0_spi_32_47                         
700a8ed0  MAIN_GPIOMUX_INTROUTER0_outp_0_15_to_R5FSS0_CORE0_intr_32_47                  
700a8ed8  MAIN_GPIOMUX_INTROUTER0_outp_0_15_to_R5FSS0_CORE1_intr_32_47                  
700a8ee0  MAIN_GPIOMUX_INTROUTER0_outp_0_15_to_R5FSS1_CORE0_intr_32_47                  
700a8ee8  MAIN_GPIOMUX_INTROUTER0_outp_0_15_to_R5FSS1_CORE1_intr_32_47                  
700a8ef0  MAIN_GPIOMUX_INTROUTER0_outp_16_17_to_DMASS0_INTAGGR_0_intaggr_levi_pend_24_25
700a8ef8  MAIN_GPIOMUX_INTROUTER0_outp_18_23_to_PRU_ICSSG0_pr1_iep0_cap_intr_req_4_9    
700a8f00  MAIN_GPIOMUX_INTROUTER0_outp_18_23_to_PRU_ICSSG1_pr1_iep0_cap_intr_req_4_9    
700a8f08  MAIN_GPIOMUX_INTROUTER0_outp_24_29_to_PRU_ICSSG0_pr1_iep1_cap_intr_req_10_15  
700a8f10  MAIN_GPIOMUX_INTROUTER0_outp_24_29_to_PRU_ICSSG1_pr1_iep1_cap_intr_req_10_15  
700a8f18  MAIN_GPIOMUX_INTROUTER0_outp_30_37_to_DMASS0_INTAGGR_0_intaggr_levi_pend_16_23
700a8f20  MAIN_GPIOMUX_INTROUTER0_outp_38_45_to_PRU_ICSSG0_pr1_slv_intr_46_53           
700a8f28  MAIN_GPIOMUX_INTROUTER0_outp_46_53_to_PRU_ICSSG1_pr1_slv_intr_46_53           
700a8f30  MCU_GPIO0_gpio_0_29_to_MCU_MCU_GPIOMUX_INTROUTER0_in_0_29                     
700a8f38  MCU_GPIO0_gpio_bank_30_31_to_MCU_MCU_GPIOMUX_INTROUTER0_in_30_31              
700a8f40  MCU_MCU_GPIOMUX_INTROUTER0_outp_0_3_to_GICSS0_spi_104_107                     
700a8f48  MCU_MCU_GPIOMUX_INTROUTER0_outp_0_3_to_R5FSS0_CORE0_intr_104_107              
700a8f50  MCU_MCU_GPIOMUX_INTROUTER0_outp_0_3_to_R5FSS0_CORE1_intr_104_107              
700a8f58  MCU_MCU_GPIOMUX_INTROUTER0_outp_0_3_to_R5FSS1_CORE0_intr_104_107              
700a8f60  MCU_MCU_GPIOMUX_INTROUTER0_outp_0_3_to_R5FSS1_CORE1_intr_104_107              
700a8f68  MCU_MCU_GPIOMUX_INTROUTER0_outp_4_7_to_MCU_M4FSS0_CORE0_nvic_0_3              
700a8f70  MCU_MCU_GPIOMUX_INTROUTER0_outp_8_11_to_MCU_ESM0_esm_pls_event0_88_91         
700a8f78  MCU_MCU_GPIOMUX_INTROUTER0_outp_8_11_to_MCU_ESM0_esm_pls_event1_92_95         
700a8f80  MCU_MCU_GPIOMUX_INTROUTER0_outp_8_11_to_MCU_ESM0_esm_pls_event2_96_99         
700a8f88  PCIE0_pcie_cpts_comp_0_0_to_CMP_EVENT_INTROUTER0_in_81_81                     
700a8f90  PCIE0_pcie_cpts_genf0_1_1_to_TIMESYNC_EVENT_INTROUTER0_in_23_23               
700a8f98  PCIE0_pcie_cpts_hw1_push_2_2_to_TIMESYNC_EVENT_INTROUTER0_in_37_37            
700a8fa0  PCIE0_pcie_cpts_sync_3_3_to_TIMESYNC_EVENT_INTROUTER0_in_33_33                
700a8fa8  PCIE0_pcie_ptm_valid_pulse_4_4_to_TIMESYNC_EVENT_INTROUTER0_in_38_38          
700a8fb0  PRU_ICSSG0_pr1_edc0_sync0_out_0_0_to_TIMESYNC_EVENT_INTROUTER0_in_25_25       
700a8fb8  PRU_ICSSG0_pr1_edc0_sync1_out_1_1_to_TIMESYNC_EVENT_INTROUTER0_in_26_26       
700a8fc0  PRU_ICSSG0_pr1_edc1_sync0_out_2_2_to_TIMESYNC_EVENT_INTROUTER0_in_27_27       
700a8fc8  PRU_ICSSG0_pr1_edc1_sync1_out_3_3_to_TIMESYNC_EVENT_INTROUTER0_in_28_28       
700a8fd0  PRU_ICSSG0_pr1_host_intr_req_4_11_to_CMP_EVENT_INTROUTER0_in_0_7              
700a8fd8  PRU_ICSSG0_pr1_iep0_cmp_intr_req_12_27_to_CMP_EVENT_INTROUTER0_in_16_31       
700a8fe0  PRU_ICSSG0_pr1_iep1_cmp_intr_req_28_43_to_CMP_EVENT_INTROUTER0_in_32_47       
700a8fe8  PRU_ICSSG1_pr1_edc0_sync0_out_0_0_to_TIMESYNC_EVENT_INTROUTER0_in_29_29       
700a8ff0  PRU_ICSSG1_pr1_edc0_sync1_out_1_1_to_TIMESYNC_EVENT_INTROUTER0_in_30_30       
700a8ff8  PRU_ICSSG1_pr1_edc1_sync0_out_2_2_to_TIMESYNC_EVENT_INTROUTER0_in_31_31       
700a9000  PRU_ICSSG1_pr1_edc1_sync1_out_3_3_to_TIMESYNC_EVENT_INTROUTER0_in_32_32       
700a9008  PRU_ICSSG1_pr1_host_intr_req_4_11_to_CMP_EVENT_INTROUTER0_in_8_15             
700a9010  PRU_ICSSG1_pr1_iep0_cmp_intr_req_12_27_to_CMP_EVENT_INTROUTER0_in_48_63       
700a9018  PRU_ICSSG1_pr1_iep1_cmp_intr_req_28_43_to_CMP_EVENT_INTROUTER0_in_64_79       
700a9020  TIMER0_timer_pwm_0_0_to_TIMESYNC_EVENT_INTROUTER0_in_0_0                      
700a9028  TIMER1_timer_pwm_0_0_to_TIMESYNC_EVENT_INTROUTER0_in_1_1                      
700a9030  TIMER2_timer_pwm_0_0_to_TIMESYNC_EVENT_INTROUTER0_in_2_2                      
700a9038  TIMER3_timer_pwm_0_0_to_TIMESYNC_EVENT_INTROUTER0_in_3_3                      
700a9040  TIMESYNC_EVENT_INTROUTER0_outl_0_7_to_DMASS0_INTAGGR_0_intaggr_levi_pend_8_15 
700a9048  TIMESYNC_EVENT_INTROUTER0_outl_10_10_to_PRU_ICSSG0_pr1_edc1_latch0_in_2_2     
700a9050  TIMESYNC_EVENT_INTROUTER0_outl_11_11_to_PRU_ICSSG0_pr1_edc1_latch1_in_3_3     
700a9058  TIMESYNC_EVENT_INTROUTER0_outl_12_12_to_PRU_ICSSG1_pr1_edc0_latch0_in_0_0     
700a9060  TIMESYNC_EVENT_INTROUTER0_outl_13_13_to_PRU_ICSSG1_pr1_edc0_latch1_in_1_1     
700a9068  TIMESYNC_EVENT_INTROUTER0_outl_14_14_to_PRU_ICSSG1_pr1_edc1_latch0_in_2_2     
700a9070  TIMESYNC_EVENT_INTROUTER0_outl_15_15_to_PRU_ICSSG1_pr1_edc1_latch1_in_3_3     
700a9078  TIMESYNC_EVENT_INTROUTER0_outl_16_16_to_CPTS0_cpts_hw1_push_0_0               
700a9080  TIMESYNC_EVENT_INTROUTER0_outl_17_17_to_CPTS0_cpts_hw2_push_1_1               
700a9088  TIMESYNC_EVENT_INTROUTER0_outl_18_18_to_CPTS0_cpts_hw3_push_2_2               
700a9090  TIMESYNC_EVENT_INTROUTER0_outl_19_19_to_CPTS0_cpts_hw4_push_3_3               
700a9098  TIMESYNC_EVENT_INTROUTER0_outl_20_20_to_CPTS0_cpts_hw5_push_4_4               
700a90a0  TIMESYNC_EVENT_INTROUTER0_outl_21_21_to_CPTS0_cpts_hw6_push_5_5               
700a90a8  TIMESYNC_EVENT_INTROUTER0_outl_22_22_to_CPTS0_cpts_hw7_push_6_6               
700a90b0  TIMESYNC_EVENT_INTROUTER0_outl_23_23_to_CPTS0_cpts_hw8_push_7_7               
700a90b8  TIMESYNC_EVENT_INTROUTER0_outl_29_29_to_PCIE0_pcie_cpts_hw2_push_0_0          
700a90c0  TIMESYNC_EVENT_INTROUTER0_outl_30_30_to_CPSW0_cpts_hw1_push_0_0               
700a90c8  TIMESYNC_EVENT_INTROUTER0_outl_31_31_to_CPSW0_cpts_hw2_push_1_1               
700a90d0  TIMESYNC_EVENT_INTROUTER0_outl_32_32_to_CPSW0_cpts_hw3_push_2_2               
700a90d8  TIMESYNC_EVENT_INTROUTER0_outl_33_33_to_CPSW0_cpts_hw4_push_3_3               
700a90e0  TIMESYNC_EVENT_INTROUTER0_outl_34_34_to_CPSW0_cpts_hw5_push_4_4               
700a90e8  TIMESYNC_EVENT_INTROUTER0_outl_35_35_to_CPSW0_cpts_hw6_push_5_5               
700a90f0  TIMESYNC_EVENT_INTROUTER0_outl_36_36_to_CPSW0_cpts_hw7_push_6_6               
700a90f8  TIMESYNC_EVENT_INTROUTER0_outl_37_37_to_CPSW0_cpts_hw8_push_7_7               
700a9100  TIMESYNC_EVENT_INTROUTER0_outl_8_8_to_PRU_ICSSG0_pr1_edc0_latch0_in_0_0       
700a9108  TIMESYNC_EVENT_INTROUTER0_outl_9_9_to_PRU_ICSSG0_pr1_edc0_latch1_in_1_1       
700a9110  gCacheConfig                                                                  
700a9118  tisci_if_GPIO0                                                                
700a9120  tisci_if_GPIO1                                                                
700a9128  tisci_if_MCU_GPIO0                                                            
700a91e8  gRmIrqTreeCount                                                               
700a91ec  tisci_if_EPWM0                                                                
700a91f0  tisci_if_EPWM3                                                                
700a91f4  tisci_if_EPWM6                                                                
700a91f8  tisci_if_GPMC0                                                                
700a91fc  tisci_if_GTC0                                                                 
700a9200  tisci_if_TIMER0                                                               
700a9204  tisci_if_TIMER1                                                               
700a9208  tisci_if_TIMER2                                                               
700a920c  tisci_if_TIMER3                                                               
700a9210  uxTopUsedPriority                                                             
700c0d80  __BSS_START                                                                   
700c5d80  gMainTaskStack                                                                
700c9400  gHwiCtrl                                                                      
700cce48  gUdmaDrvObj                                                                   
700cfdb8  gEepromObject_AT24C                                                           
700cff64  _CIOBUF_                                                                      
700cff64  __CIOBUF_                                                                     
700d0184  xQueueRegistry                                                                
700d0400  gTaskP_ctrl                                                                   
700d0650  gMainTaskObj                                                                  
700d072c  gRovDummyQueue                                                                
700d07c0  gClockCtrl                                                                    
700d0898  virtToPhymap                                                                  
700d08b8  gEepromHandle                                                                 
700d08bc  gMainTask                                                                     
700d0900  __BSS_END                                                                     
700d0900  _sys_memory                                                                   
700d0d00  __stack                                                                       
700d2d00  __STACK_END                                                                   
700d2d00  gUartDmaConfig                                                                
700d4fb8  vint_usage_count_DMASS0_INTAGGR_0                                             
700d5468  gRmIrInstances                                                                
700d54c8  __TI_dtors_ptr                                                                
700d54cc  __TI_cleanup_ptr                                                              
700d5524  gUdmaRmSharedResPrms                                                          
700d57f4  gRmIaInstances                                                                
700d5814  FreeRTOS_errno                                                                
700d5818  gSciclientSecProxyCfg                                                         
700d5850  gClockConfig                                                                  
700d5878  gEepromFxns_AT24C                                                             
700d5888  gI2cConfig                                                                    
700d58a8  gAddrTranslateConfig                                                          
700d58b4  gEepromAttrs_AT24C                                                            
700d58c0  gEepromConfig                                                                 
700d58cc  gEepromParams                                                                 
700d58dc  gUartConfig                                                                   
700d58e4  gDebugLogZone                                                                 
700d58f8  gDebugP_uartDrvIndex                                                          
700d58fc  gEepromConfigNum                                                              
700d5900  gHwiConfig                                                                    
700d5904  gI2cConfigNum                                                                 
700d591c  gUartConfigNum                                                                
700d5920  gUartDmaConfigNum                                                             
700d5928  pxCurrentTCB                                                                  
700d592c  ulPortInterruptNesting                                                        
700d5930  ulPortSchedularRunning                                                        
700d5934  ulPortTaskHasFPUContext                                                       
700d5938  ulPortYieldRequired                                                           
700d5996  isMapAvailable                                                                
700d59a1  HwiP_enableInt                                                                
700d59d1  HwiP_disableInt                                                               
700d5a11  HwiP_restoreInt                                                               
700d5a71  HwiP_clearInt                                                                 
700d5a91  HwiP_post                                                                     
700d5ac1  HwiP_Params_init                                                              
700d5ae1  HwiP_construct                                                                
700d5c31  HwiP_destruct                                                                 
700d5d11  HwiP_init                                                                     
700d5de1  HwiP_inISR                                                                    
700d5e01  HwiP_irq_handler_c                                                            
700d5e91  HwiP_fiq_handler                                                              
700d5f51  HwiP_reserved_handler                                                         
700d5f81  HwiP_undefined_handler                                                        
700d5fb1  HwiP_prefetch_abort_handler                                                   
700d5fe1  HwiP_data_abort_handler                                                       
700d6010  vPortRestoreTaskContext                                                       
700d6048  HwiP_svc_handler                                                              
700d60b8  HwiP_irq_handler                                                              
700d61fc  HwiP_disable                                                                  
700d620c  HwiP_disableFIQ                                                               
700d621c  HwiP_enable                                                                   
700d622c  HwiP_enableFIQ                                                                
700d623c  HwiP_restore                                                                  
700d6244  HwiP_enableVIC                                                                
700d6254  HwiP_disableVIC                                                               
700d6264  HwiP_getCPSR                                                                  
700d6270  CacheP_disableL1d                                                             
700d6298  CacheP_disableL1p                                                             
700d62b0  CacheP_enableL1d                                                              
700d62c8  CacheP_enableL1p                                                              
700d62e0  CacheP_invL1d                                                                 
700d6318  CacheP_invL1p                                                                 
700d6354  CacheP_invL1dAll                                                              
700d635c  CacheP_invL1pAll                                                              
700d6364  CacheP_wb                                                                     
700d63a0  CacheP_wbInv                                                                  
700d63dc  CacheP_wbAll                                                                  
700d6484  CacheP_wbInvAll                                                               
700d649c  CacheP_wbInvAllAsm                                                            
700d653c  CacheP_getEnabled                                                             
700d6574  CacheP_getCacheLevelInfo                                                      
700d6580  CacheP_configForceWrThru                                                      
700d65a0  CacheP_setDLFO                                                                
700d65b1  CacheP_init                                                                   
700d6621  CacheP_disable                                                                
700d6661  CacheP_enable                                                                 
700d6681  CacheP_inv                                                                    
700d66c1  MpuP_RegionAttrs_init                                                         
700d66d1  MpuP_setRegion                                                                
700d6781  MpuP_enable                                                                   
700d67c1  MpuP_disable                                                                  
700d6801  MpuP_isEnable                                                                 
700d6811  MpuP_init                                                                     
700d6874  MpuP_disableAsm                                                               
700d688c  MpuP_disableBRAsm                                                             
700d689c  MpuP_enableAsm                                                                
700d68b4  MpuP_enableBRAsm                                                              
700d68c4  MpuP_isEnableAsm                                                              
700d68d8  MpuP_setRegionAsm                                                             
700d6900  _c_int00_sbl                                                                  
700d6924  _c_int00                                                                      
700d6a01  _DebugP_assertNoLog                                                           
700d6a1f  __mpu_init                                                                    
700d6a30  C$$EXIT                                                                       
700d6a30  abort                                                                         
700d6a38  __IRQ_STACK_START                                                             
700d6b38  __FIQ_STACK_START                                                             
700d6b38  __IRQ_STACK_END                                                               
700d6c38  __FIQ_STACK_END                                                               
700d6c38  __SVC_STACK_START                                                             
700d7c38  __ABORT_STACK_START                                                           
700d7c38  __SVC_STACK_END                                                               
700d7d38  __ABORT_STACK_END                                                             
700d7d38  __UNDEFINED_STACK_START                                                       
700d7e38  __UNDEFINED_STACK_END                                                         
ffffffff  __TI_pprof_out_hndl                                                           
ffffffff  __TI_prof_data_size                                                           
ffffffff  __TI_prof_data_start                                                          
ffffffff  __binit__                                                                     
ffffffff  binit                                                                         
UNDEFED   __TI_CINIT_Base                                                               
UNDEFED   __TI_CINIT_Limit                                                              
UNDEFED   __TI_Handler_Table_Base                                                       
UNDEFED   __TI_Handler_Table_Limit                                                      
UNDEFED   _system_post_cinit                                                            

[655 symbols]
