******************************************************************************
            TI ARM Clang Linker Unix v2.1.2                    
******************************************************************************
>> Linked Mon Nov  6 10:49:28 2023

OUTPUT FILE NAME:   <embedded_kafka.release.out>
ENTRY POINT SYMBOL: "_c_int00"  address: 0001241b


MEMORY CONFIGURATION

         name            origin    length      used     unused   attr    fill
----------------------  --------  ---------  --------  --------  ----  --------
  M4F_VECS              00000000   00000200  00000140  000000c0  RWIX
  M4F_IRAM              00000200   0002fe00  00021db8  0000e048  RWIX
  M4F_DRAM              00030000   00010000  0000fdd0  00000230  RWIX
  DDR_0                 a4100000   00100000  00001000  000ff000  RWIX
  IPC_VRING_MEM         a5000000   00800000  00006680  007f9980  RWIX
  USER_SHM_MEM          a5800000   00000080  00000000  00000080  RWIX
  LOG_SHM_MEM           a5800080   00003f80  00000000  00003f80  RWIX


SEGMENT ALLOCATION MAP

run origin  load origin   length   init length attrs members
----------  ----------- ---------- ----------- ----- -------
00000000    00000000    00000140   00000140    rw-
  00000000    00000000    00000140   00000140    rw- .vectors
00000000    00000000    000005c0   000005c0    rw-
  00000000    00000000    000005c0   000005c0    rw- .data
00000200    00000200    00015db0   00015db0    r-x
  00000200    00000200    00015db0   00015db0    r-x .text
00015fb0    00015fb0    0000c000   00000000    rw-
  00015fb0    00015fb0    00008000   00000000    rw- .sysmem
  0001dfb0    0001dfb0    00004000   00000000    rw- .stack
00021fb0    00021fb0    00000008   00000008    r--
  00021fb0    00021fb0    00000008   00000008    r-- .ARM.exidx
00030000    00030000    000080d0   000080d0    r--
  00030000    00030000    000080d0   000080d0    r-- .rodata
00038100    00038100    00007d00   00000000    rw-
  00038100    00038100    00007d00   00000000    rw- .bss
a4100000    a4100000    00001000   00001000    r--
  a4100000    a4100000    00001000   00001000    r-- .resource_table


SECTION ALLOCATION MAP

 output                                  attributes/
section   page    origin      length       input sections
--------  ----  ----------  ----------   ----------------
.vectors   0    00000000    00000140     
                  00000000    00000140     freertos.am64x.m4f.ti-arm-clang.release.lib : HwiP_armv7m_handlers_freertos.obj (.vectors)

.data      0    00000000    000005c0     FAILED TO ALLOCATE
.text      0    00000200    00015db0     
                  00000200    000009d4     libc.a : _printfi.c.obj (.text:__TI_printfi)
                  00000bd4    000007e0     Configurer.obj (.text._ZN8nlohmann16json_abi_v3_11_26detail10serializerINS0_10basic_jsonINSt3__13mapENS4_6vectorENS4_12basic_stringIcNS4_11char_traitsIcEENS4_9allocatorIcEEEEbxydSA_NS0_14adl_serializerENS6_IhNSA_IhEEEEvEEE4dumpERKSG_bbjj)
                  000013b4    000005a6     Configurer.obj (.text._ZN8nlohmann16json_abi_v3_11_26detail5lexerINS0_10basic_jsonINSt3__13mapENS4_6vectorENS4_12basic_stringIcNS4_11char_traitsIcEENS4_9allocatorIcEEEEbxydSA_NS0_14adl_serializerENS6_IhNSA_IhEEEEvEENS1_22iterator_input_adapterIPcEEE11scan_stringEv)
                  0000195a    00000002     ti_board_open_close.obj (.text.Board_driversClose)
                  0000195c    00000570     freertos.am64x.m4f.ti-arm-clang.release.lib : printf.obj (.text._vsnprintf)
                  00001ecc    00000004     ti_board_open_close.obj (.text.Board_driversOpen)
                  00001ed0    000004b8     Configurer.obj (.text._ZN8nlohmann16json_abi_v3_11_26detail6parserINS0_10basic_jsonINSt3__13mapENS4_6vectorENS4_12basic_stringIcNS4_11char_traitsIcEENS4_9allocatorIcEEEEbxydSA_NS0_14adl_serializerENS6_IhNSA_IhEEEEvEENS1_22iterator_input_adapterIPcEEE18sax_parse_internalINS1_28json_sax_dom_callback_parserISG_EEEEbPT_)
                  00002388    000004a8     freertos.am64x.m4f.ti-arm-clang.release.lib : printf.obj (.text._etoa)
                  00002830    0000049c     Configurer.obj (.text._ZN8nlohmann16json_abi_v3_11_26detail6parserINS0_10basic_jsonINSt3__13mapENS4_6vectorENS4_12basic_stringIcNS4_11char_traitsIcEENS4_9allocatorIcEEEEbxydSA_NS0_14adl_serializerENS6_IhNSA_IhEEEEvEENS1_22iterator_input_adapterIPcEEE18sax_parse_internalINS1_19json_sax_dom_parserISG_EEEEbPT_)
                  00002ccc    00000004     freertos.am64x.m4f.ti-arm-clang.release.lib : ClockP_freertos_m4.obj (.text.ClockP_getTimerCount)
                  00002cd0    00000474     libc.a : strtod.c.obj (.text.strtod)
                  00003144    00000004     drivers.am64x.m4f.ti-arm-clang.release.lib : ipc_rpmsg.obj (.text.RPMessage_getLocalEndPt)
                  00003148    00000438     freertos.am64x.m4f.ti-arm-clang.release.lib : printf.obj (.text._ftoa)
                  00003580    000003a8     Configurer.obj (.text._ZN8nlohmann16json_abi_v3_11_26detail9dtoa_impl16grisu2_digit_genEPcRiS4_NS2_5diyfpES5_S5_)
                  00003928    000003a4     freertos.am64x.m4f.ti-arm-clang.release.lib : HwiP_armv7m.obj (.text.hwi)
                  00003ccc    0000039e     Configurer.obj (.text._ZN8nlohmann16json_abi_v3_11_210basic_jsonINSt3__13mapENS2_6vectorENS2_12basic_stringIcNS2_11char_traitsIcEENS2_9allocatorIcEEEEbxydS8_NS0_14adl_serializerENS4_IhNS8_IhEEEEvE10json_value7destroyENS0_6detail7value_tE)
                  0000406a    00000002     ti_board_config.obj (.text.Board_init)
                  0000406c    00000384     drivers.am64x.m4f.ti-arm-clang.release.lib : ipc_notify_v0.obj (.text.IpcNotify_init)
                  000043f0    0000035a                                                : sciclient.obj (.text.Sciclient_service)
                  0000474a    00000002     freertos.am64x.m4f.ti-arm-clang.release.lib : CacheP_null.obj (.text.CacheP_wbInv)
                  0000474c    000002bc     Configurer.obj (.text._ZN8nlohmann16json_abi_v3_11_26detail5lexerINS0_10basic_jsonINSt3__13mapENS4_6vectorENS4_12basic_stringIcNS4_11char_traitsIcEENS4_9allocatorIcEEEEbxydSA_NS0_14adl_serializerENS6_IhNSA_IhEEEEvEENS1_22iterator_input_adapterIPcEEE11scan_numberEv)
                  00004a08    000002b8     libc.a : _printfi.c.obj (.text._pconv_a)
                  00004cc0    000002a8     Configurer.obj (.text._ZN8nlohmann16json_abi_v3_11_26detail10serializerINS0_10basic_jsonINSt3__13mapENS4_6vectorENS4_12basic_stringIcNS4_11char_traitsIcEENS4_9allocatorIcEEEEbxydSA_NS0_14adl_serializerENS6_IhNSA_IhEEEEvEEE12dump_escapedERKSC_b)
                  00004f68    000002a8     Configurer.obj (.text._ZN8nlohmann16json_abi_v3_11_26detail6parserINS0_10basic_jsonINSt3__13mapENS4_6vectorENS4_12basic_stringIcNS4_11char_traitsIcEENS4_9allocatorIcEEEEbxydSA_NS0_14adl_serializerENS6_IhNSA_IhEEEEvEENS1_22iterator_input_adapterIPcEEE5parseEbRSG_)
                  00005210    00000260     TopicProxy.obj (.text._ZN10TopicProxy4pollE16ConsumerMetadata)
                  00005470    00000244     Configurer.obj (.text._ZNSt3__113__tree_removeIPNS_16__tree_node_baseIPvEEEEvT_S5_)
                  000056b4    00000240     freertos.am64x.m4f.ti-arm-clang.release.lib : timers.obj (.text.prvTimerTask)
                  000058f4    0000023a     libc++.a : charconv.cpp.obj (.text._ZNSt3__16__itoa8__u32toaEjPc)
                  00005b2e    00000002     freertos.am64x.m4f.ti-arm-clang.release.lib : ClockP_freertos_m4.obj (.text.ClockP_timerClearOverflowInt)
                  00005b30    00000238     libc.a : _printfi.c.obj (.text._pconv_g)
                  00005d68    0000020e     Configurer.obj (.text._ZN8nlohmann16json_abi_v3_11_26detail6parserINS0_10basic_jsonINSt3__13mapENS4_6vectorENS4_12basic_stringIcNS4_11char_traitsIcEENS4_9allocatorIcEEEEbxydSA_NS0_14adl_serializerENS6_IhNSA_IhEEEEvEENS1_22iterator_input_adapterIPcEEE17exception_messageENS1_10lexer_baseISG_E10token_typeERKSC_)
                  00005f76    00000202     SystemManager.obj (.text._ZN13SystemManager4initEv)
                  00006178    000001fc     Configurer.obj (.text._ZN8nlohmann16json_abi_v3_11_26detail28json_sax_dom_callback_parserINS0_10basic_jsonINSt3__13mapENS4_6vectorENS4_12basic_stringIcNS4_11char_traitsIcEENS4_9allocatorIcEEEEbxydSA_NS0_14adl_serializerENS6_IhNSA_IhEEEEvEEE12handle_valueIRSC_EENS4_4pairIbPSG_EEOT_b)
                  00006374    000001fc     freertos.am64x.m4f.ti-arm-clang.release.lib : queue.obj (.text.xQueueSemaphoreTake)
                  00006570    000001fa     Configurer.obj (.text._ZN8nlohmann16json_abi_v3_11_26detail28json_sax_dom_callback_parserINS0_10basic_jsonINSt3__13mapENS4_6vectorENS4_12basic_stringIcNS4_11char_traitsIcEENS4_9allocatorIcEEEEbxydSA_NS0_14adl_serializerENS6_IhNSA_IhEEEEvEEE12handle_valueIDnEENS4_4pairIbPSG_EEOT_b)
                  0000676a    00000002     ti_drivers_open_close.obj (.text.Drivers_open)
                  0000676c    000001f8     BrokerMetadata.obj (.text._ZN14BrokerMetadata9from_jsonERKN8nlohmann16json_abi_v3_11_210basic_jsonINSt3__13mapENS3_6vectorENS3_12basic_stringIcNS3_11char_traitsIcEENS3_9allocatorIcEEEEbxydS9_NS1_14adl_serializerENS5_IhNS9_IhEEEEvEE)
                  00006964    000001f8     Configurer.obj (.text._ZN8nlohmann16json_abi_v3_11_26detail28json_sax_dom_callback_parserINS0_10basic_jsonINSt3__13mapENS4_6vectorENS4_12basic_stringIcNS4_11char_traitsIcEENS4_9allocatorIcEEEEbxydSA_NS0_14adl_serializerENS6_IhNSA_IhEEEEvEEE12handle_valueINS1_7value_tEEENS4_4pairIbPSG_EEOT_b)
                  00006b5c    000001ee     Configurer.obj (.text._ZN8nlohmann16json_abi_v3_11_26detail10serializerINS0_10basic_jsonINSt3__13mapENS4_6vectorENS4_12basic_stringIcNS4_11char_traitsIcEENS4_9allocatorIcEEEEbxydSA_NS0_14adl_serializerENS6_IhNSA_IhEEEEvEEE12dump_integerIxLi0EEEvT_)
                  00006d4a    000001ea     Configurer.obj (.text._ZN8nlohmann16json_abi_v3_11_26detail28json_sax_dom_callback_parserINS0_10basic_jsonINSt3__13mapENS4_6vectorENS4_12basic_stringIcNS4_11char_traitsIcEENS4_9allocatorIcEEEEbxydSA_NS0_14adl_serializerENS6_IhNSA_IhEEEEvEEE12handle_valueIRbEENS4_4pairIbPSG_EEOT_b)
                  00006f34    000001ea     Configurer.obj (.text._ZN8nlohmann16json_abi_v3_11_26detail28json_sax_dom_callback_parserINS0_10basic_jsonINSt3__13mapENS4_6vectorENS4_12basic_stringIcNS4_11char_traitsIcEENS4_9allocatorIcEEEEbxydSA_NS0_14adl_serializerENS6_IhNSA_IhEEEEvEEE12handle_valueIRdEENS4_4pairIbPSG_EEOT_b)
                  0000711e    000001ea     Configurer.obj (.text._ZN8nlohmann16json_abi_v3_11_26detail28json_sax_dom_callback_parserINS0_10basic_jsonINSt3__13mapENS4_6vectorENS4_12basic_stringIcNS4_11char_traitsIcEENS4_9allocatorIcEEEEbxydSA_NS0_14adl_serializerENS6_IhNSA_IhEEEEvEEE12handle_valueIRxEENS4_4pairIbPSG_EEOT_b)
                  00007308    000001ea     Configurer.obj (.text._ZN8nlohmann16json_abi_v3_11_26detail28json_sax_dom_callback_parserINS0_10basic_jsonINSt3__13mapENS4_6vectorENS4_12basic_stringIcNS4_11char_traitsIcEENS4_9allocatorIcEEEEbxydSA_NS0_14adl_serializerENS6_IhNSA_IhEEEEvEEE12handle_valueIRyEENS4_4pairIbPSG_EEOT_b)
                  000074f2    00000002     UDPEndpoint.obj (.text._ZN11UDPEndpointD2Ev)
                  000074f4    000001e8     freertos.am64x.m4f.ti-arm-clang.release.lib : queue.obj (.text.xQueueGenericSend)
                  000076dc    000001e2     TopicFactory.obj (.text._ZN12TopicFactory12createTopicsEv)
                  000078be    000001d2     TopicProxy.obj (.text._ZN10TopicProxy7publishE16ProducerMetadata6Record)
                  00007a90    000001d0     Configurer.obj (.text._ZN8nlohmann16json_abi_v3_11_26detail9dtoa_impl13format_bufferEPciiii)
                  00007c60    000001c6     UDPEndpoint.obj (.text._ZNK11UDPEndpoint7to_jsonERN8nlohmann16json_abi_v3_11_210basic_jsonINSt3__13mapENS3_6vectorENS3_12basic_stringIcNS3_11char_traitsIcEENS3_9allocatorIcEEEEbxydS9_NS1_14adl_serializerENS5_IhNS9_IhEEEEvEE)
                  00007e26    00000002     RPMessageEndpoint.obj (.text._ZN17RPMessageEndpointD2Ev)
                  00007e28    000001c0     libc.a : strtoll.c.obj (.text.strtoll)
                  00007fe8    000001be     freertos.am64x.m4f.ti-arm-clang.release.lib : MpuP_armv7m.obj (.text.mpu)
                  000081a6    00000002     Topic.obj (.text._ZN5TopicD0Ev)
                  000081a8    000001ba     freertos.am64x.m4f.ti-arm-clang.release.lib : queue.obj (.text.xQueueReceive)
                  00008362    00000002     Configurer.obj (.text._ZN8nlohmann16json_abi_v3_11_26detail23output_adapter_protocolIcED2Ev)
                  00008364    000001b6     RPMessageEndpoint.obj (.text._ZNK17RPMessageEndpoint7to_jsonERN8nlohmann16json_abi_v3_11_210basic_jsonINSt3__13mapENS3_6vectorENS3_12basic_stringIcNS3_11char_traitsIcEENS3_9allocatorIcEEEEbxydS9_NS1_14adl_serializerENS5_IhNS9_IhEEEEvEE)
                  0000851a    00000002     libc++abi.a : private_typeinfo.cpp.obj (.text._ZNK10__cxxabiv116__shim_type_info5noop1Ev)
                  0000851c    000001b6     libclang_rt.builtins.a : adddf3.S.obj (.text)
                  000086d2    00000002     libc++abi.a : private_typeinfo.cpp.obj (.text._ZNK10__cxxabiv116__shim_type_info5noop2Ev)
                  000086d4    000001ae     Configurer.obj (.text._ZNSt3__116__copy_unalignedINS_6vectorIbNS_9allocatorIbEEEELb0EEENS_14__bit_iteratorIT_Lb0ELi0EEENS5_IS6_XT0_ELi0EEES8_S7_)
                  00008882    00000006     freertos.am64x.m4f.ti-arm-clang.release.lib : SemaphoreP_freertos.obj (.text.SemaphoreP_destruct)
                  00008888    000001a0     Configurer.obj (.text._ZN8nlohmann16json_abi_v3_11_26detail8to_charsIdEEPcS3_PKcT_)
                  00008a28    000001a0     libc.a : _printfi.c.obj (.text.fcvt)
                  00008bc8    00000184     TopicProxy.obj (.text._ZN10TopicProxy11unsubscribeE16ConsumerMetadata)
                  00008d4c    00000184     TopicProxy.obj (.text._ZN10TopicProxy9subscribeE16ConsumerMetadata)
                  00008ed0    00000180     libc.a : _printfi.c.obj (.text._pconv_e)
                  00009050    00000178     ClusterMetadata.obj (.text._ZN15ClusterMetadata9from_jsonERKN8nlohmann16json_abi_v3_11_210basic_jsonINSt3__13mapENS3_6vectorENS3_12basic_stringIcNS3_11char_traitsIcEENS3_9allocatorIcEEEEbxydS9_NS1_14adl_serializerENS5_IhNS9_IhEEEEvEE)
                  000091c8    00000178     Configurer.obj (.text._ZN8nlohmann16json_abi_v3_11_26detail28json_sax_dom_callback_parserINS0_10basic_jsonINSt3__13mapENS4_6vectorENS4_12basic_stringIcNS4_11char_traitsIcEENS4_9allocatorIcEEEEbxydSA_NS0_14adl_serializerENS6_IhNSA_IhEEEEvEEE10end_objectEv)
                  00009340    0000016a     freertos.am64x.m4f.ti-arm-clang.release.lib : tasks.obj (.text.xTaskIncrementTick)
                  000094aa    00000002     TopicMetadata.obj (.text._ZNK13TopicMetadata7getNameEv)
                  000094ac    00000166     libc++abi.a : private_typeinfo.cpp.obj (.text._ZNK10__cxxabiv120__si_class_type_info16search_below_dstEPNS_19__dynamic_cast_infoEPKvib)
                  00009612    00000164     SystemManager.obj (.text._ZN13SystemManager8askForIDEv)
                  00009776    00000002     Record.obj (.text._ZNK6Record7getDataEv)
                  00009778    00000164     Configurer.obj (.text._ZN8nlohmann16json_abi_v3_11_26detail9dtoa_impl12grisu2_roundEPciyyyy)
                  000098dc    00000162     embedded_kafka_m4.obj (.text._Z8consumeriiNSt3__112basic_stringIcNS_11char_traitsIcEENS_9allocatorIcEEEE)
                  00009a3e    00000002     libc++.a : memory.cpp.obj (.text._ZNSt3__114__shared_countD2Ev)
                  00009a40    00000158     Configurer.obj (.text._ZN8nlohmann16json_abi_v3_11_26detail5lexerINS0_10basic_jsonINSt3__13mapENS4_6vectorENS4_12basic_stringIcNS4_11char_traitsIcEENS4_9allocatorIcEEEEbxydSA_NS0_14adl_serializerENS6_IhNSA_IhEEEEvEENS1_22iterator_input_adapterIPcEEE4scanEv)
                  00009b98    00000158     Configurer.obj (.text._ZN8nlohmann16json_abi_v3_11_26detail9dtoa_impl18compute_boundariesIdEENS2_10boundariesET_)
                  00009cf0    00000156     Configurer.obj (.text._ZN8nlohmann16json_abi_v3_11_26detail10serializerINS0_10basic_jsonINSt3__13mapENS4_6vectorENS4_12basic_stringIcNS4_11char_traitsIcEENS4_9allocatorIcEEEEbxydSA_NS0_14adl_serializerENS6_IhNSA_IhEEEEvEEE12dump_integerIyLi0EEEvT_)
                  00009e46    00000154     Configurer.obj (.text._ZN8nlohmann16json_abi_v3_11_26detail9dtoa_impl6grisu2EPcRiS4_NS2_5diyfpES5_S5_)
                  00009f9a    00000150     Configurer.obj (.text._ZN8nlohmann16json_abi_v3_11_26detail19json_sax_dom_parserINS0_10basic_jsonINSt3__13mapENS4_6vectorENS4_12basic_stringIcNS4_11char_traitsIcEENS4_9allocatorIcEEEEbxydSA_NS0_14adl_serializerENS6_IhNSA_IhEEEEvEEE12handle_valueIRbEEPSG_OT_)
                  0000a0ea    00000150     Configurer.obj (.text._ZN8nlohmann16json_abi_v3_11_26detail19json_sax_dom_parserINS0_10basic_jsonINSt3__13mapENS4_6vectorENS4_12basic_stringIcNS4_11char_traitsIcEENS4_9allocatorIcEEEEbxydSA_NS0_14adl_serializerENS6_IhNSA_IhEEEEvEEE12handle_valueIRdEEPSG_OT_)
                  0000a23a    00000150     Configurer.obj (.text._ZN8nlohmann16json_abi_v3_11_26detail19json_sax_dom_parserINS0_10basic_jsonINSt3__13mapENS4_6vectorENS4_12basic_stringIcNS4_11char_traitsIcEENS4_9allocatorIcEEEEbxydSA_NS0_14adl_serializerENS6_IhNSA_IhEEEEvEEE12handle_valueIRxEEPSG_OT_)
                  0000a38a    00000150     Configurer.obj (.text._ZN8nlohmann16json_abi_v3_11_26detail19json_sax_dom_parserINS0_10basic_jsonINSt3__13mapENS4_6vectorENS4_12basic_stringIcNS4_11char_traitsIcEENS4_9allocatorIcEEEEbxydSA_NS0_14adl_serializerENS6_IhNSA_IhEEEEvEEE12handle_valueIRyEEPSG_OT_)
                  0000a4da    00000002     libc++abi.a : stdlib_exception.cpp.obj (.text._ZNSt9exceptionD2Ev)
                  0000a4dc    0000014c     libc.a : strtoull.c.obj (.text.strtoull)
                  0000a628    0000013e     freertos.am64x.m4f.ti-arm-clang.release.lib : tasks.obj (.text.xTaskResumeAll)
                  0000a766    00000002     libc++abi.a : stdlib_typeinfo.cpp.obj (.text._ZNSt9type_infoD2Ev)
                  0000a768    00000138     libc++.a : string.cpp.obj (.text._ZNSt3__112basic_stringIcNS_11char_traitsIcEENS_9allocatorIcEEEaSERKS5_)
                  0000a8a0    00000136     drivers.am64x.m4f.ti-arm-clang.release.lib : ipc_rpmsg.obj (.text.RPMessage_recv)
                  0000a9d6    00000002     libclang_rt.builtins.a : aeabi_div0.c.obj (.text.__aeabi_ldiv0)
                  0000a9d8    00000136     Configurer.obj (.text._ZNSt3__127__tree_balance_after_insertIPNS_16__tree_node_baseIPvEEEEvT_S5_)
                  0000ab0e    00000002     libc.a : _lock.c.obj (.text._nop)
                  0000ab10    00000136     libclang_rt.builtins.a : divdf3.S.obj (.text)
                  0000ac46    00000002     freertos.am64x.m4f.ti-arm-clang.release.lib : printf.obj (.text._out_null)
                  0000ac48    00000134     drivers.am64x.m4f.ti-arm-clang.release.lib : soc.obj (.text.SOC_moduleSetClockFrequency)
                  0000ad7c    00000130     freertos.am64x.m4f.ti-arm-clang.release.lib : ClockP_freertos_m4.obj (.text.ClockP_init)
                  0000aeac    0000012c                                                 : queue.obj (.text.xQueueGenericSendFromISR)
                  0000afd8    0000012a     ConsumerMetadata.obj (.text._ZNK16ConsumerMetadata7to_jsonERN8nlohmann16json_abi_v3_11_210basic_jsonINSt3__13mapENS3_6vectorENS3_12basic_stringIcNS3_11char_traitsIcEENS3_9allocatorIcEEEEbxydS9_NS1_14adl_serializerENS5_IhNS9_IhEEEEvEE)
                  0000b102    00000126     Configurer.obj (.text._ZN8nlohmann16json_abi_v3_11_26detail12out_of_range6createIDnLi0EEES2_iRKNSt3__112basic_stringIcNS4_11char_traitsIcEENS4_9allocatorIcEEEET_)
                  0000b228    00000122     freertos.am64x.m4f.ti-arm-clang.release.lib : tasks.obj (.text.vTaskDelete)
                  0000b34a    00000002                                                 : port.obj (.text.vPortConfigTimerForRunTimeStats)
                  0000b34c    00000120     libc++abi.a : private_typeinfo.cpp.obj (.text._ZNK10__cxxabiv117__class_type_info9can_catchEPKNS_16__shim_type_infoERPv)
                  0000b46c    00000120     libc.a : memory.c.obj (.text.aligned_alloc)
                  0000b58c    0000011c     freertos.am64x.m4f.ti-arm-clang.release.lib : printf.obj (.text._ntoa_format)
                  0000b6a8    0000011a                                                 : tasks.obj (.text.prvAddNewTaskToReadyList)
                  0000b7c2    00000002     --HOLE-- [fill = 0]
                  0000b7c4    00000114     libc++abi.a : private_typeinfo.cpp.obj (.text._ZNK10__cxxabiv117__class_type_info16search_below_dstEPNS_19__dynamic_cast_infoEPKvib)
                  0000b8d8    0000010c     drivers.am64x.m4f.ti-arm-clang.release.lib : ipc_rpmsg.obj (.text.RPMessage_recvHandler)
                  0000b9e4    0000010c     Configurer.obj (.text._ZN8nlohmann16json_abi_v3_11_26detail19json_sax_dom_parserINS0_10basic_jsonINSt3__13mapENS4_6vectorENS4_12basic_stringIcNS4_11char_traitsIcEENS4_9allocatorIcEEEEbxydSA_NS0_14adl_serializerENS6_IhNSA_IhEEEEvEEE12handle_valueIRSC_EEPSG_OT_)
                  0000baf0    0000010c     Configurer.obj (.text._ZN8nlohmann16json_abi_v3_11_26detail9dtoa_impl36get_cached_power_for_binary_exponentEi)
                  0000bbfc    00000004     libc++abi.a : private_typeinfo.cpp.obj (.text._ZN10__cxxabiv116__shim_type_infoD2Ev)
                  0000bc00    0000010c     libc.a : s_scalbn.c.obj (.text.scalbn)
                  0000bd0c    0000010c     freertos.am64x.m4f.ti-arm-clang.release.lib : queue.obj (.text.xQueueGiveFromISR)
                  0000be18    00000108                                                 : SysTickTimerP.obj (.text.SysTickTimerP_setup)
                  0000bf20    00000108     Configurer.obj (.text._ZN8nlohmann16json_abi_v3_11_26detail19json_sax_dom_parserINS0_10basic_jsonINSt3__13mapENS4_6vectorENS4_12basic_stringIcNS4_11char_traitsIcEENS4_9allocatorIcEEEEbxydSA_NS0_14adl_serializerENS6_IhNSA_IhEEEEvEEE12handle_valueIDnEEPSG_OT_)
                  0000c028    00000108     Configurer.obj (.text._ZN8nlohmann16json_abi_v3_11_26detail9dtoa_impl6grisu2IdEEvPcRiS5_T_)
                  0000c130    00000108     Configurer.obj (.text._ZNSt3__16__treeINS_12__value_typeINS_12basic_stringIcNS_11char_traitsIcEENS_9allocatorIcEEEEN8nlohmann16json_abi_v3_11_210basic_jsonINS_3mapENS_6vectorES7_bxydS5_NS9_14adl_serializerENSC_IhNS5_IhEEEEvEEEENS_19__map_value_compareIS7_SH_NS_4lessIvEELb1EEENS5_ISH_EEE12__find_equalIS7_EERPNS_16__tree_node_baseIPvEENS_21__tree_const_iteratorISH_PNS_11__tree_nodeISH_SQ_EEiEERPNS_15__tree_end_nodeISS_EEST_RKT_)
                  0000c238    00000100     ti_drivers_config.obj (.text.System_init)
                  0000c338    00000100     Configurer.obj (.text._ZN8nlohmann16json_abi_v3_11_26detail19json_sax_dom_parserINS0_10basic_jsonINSt3__13mapENS4_6vectorENS4_12basic_stringIcNS4_11char_traitsIcEENS4_9allocatorIcEEEEbxydSA_NS0_14adl_serializerENS6_IhNSA_IhEEEEvEEE12handle_valueINS1_7value_tEEEPSG_OT_)
                  0000c438    00000100     freertos.am64x.m4f.ti-arm-clang.release.lib : queue.obj (.text.xQueueReceiveFromISR)
                  0000c538    000000fe     Configurer.obj (.text._ZN8nlohmann16json_abi_v3_11_26detail28json_sax_dom_callback_parserINS0_10basic_jsonINSt3__13mapENS4_6vectorENS4_12basic_stringIcNS4_11char_traitsIcEENS4_9allocatorIcEEEEbxydSA_NS0_14adl_serializerENS6_IhNSA_IhEEEEvEEE11start_arrayEj)
                  0000c636    00000002     --HOLE-- [fill = 0]
                  0000c638    000000fe     Configurer.obj (.text._ZN8nlohmann16json_abi_v3_11_26detail6concatINSt3__112basic_stringIcNS3_11char_traitsIcEENS3_9allocatorIcEEEEJS9_RA12_KcS9_RA3_SA_S9_RKS9_EEET_DpOT0_)
                  0000c736    000000fe     freertos.am64x.m4f.ti-arm-clang.release.lib : queue.obj (.text.xQueueGenericCreateStatic)
                  0000c834    000000fc     drivers.am64x.m4f.ti-arm-clang.release.lib : ipc_rpmsg.obj (.text.RPMessage_send)
                  0000c930    000000fc     Configurer.obj (.text._ZN8nlohmann16json_abi_v3_11_26detail28json_sax_dom_callback_parserINS0_10basic_jsonINSt3__13mapENS4_6vectorENS4_12basic_stringIcNS4_11char_traitsIcEENS4_9allocatorIcEEEEbxydSA_NS0_14adl_serializerENS6_IhNSA_IhEEEEvEEE12start_objectEj)
                  0000ca2c    000000fc     libc++.a : string.cpp.obj (.text._ZNSt3__112basic_stringIcNS_11char_traitsIcEENS_9allocatorIcEEE6resizeEjc)
                  0000cb28    000000fc     libclang_rt.builtins.a : muldf3.S.obj (.text)
                  0000cc24    000000fa     Configurer.obj (.text._ZN8nlohmann16json_abi_v3_11_210basic_jsonINSt3__13mapENS2_6vectorENS2_12basic_stringIcNS2_11char_traitsIcEENS2_9allocatorIcEEEEbxydS8_NS0_14adl_serializerENS4_IhNS8_IhEEEEvE5eraseINS0_6detail9iter_implISE_EELi0EEET_SJ_)
                  0000cd1e    00000002     --HOLE-- [fill = 0]
                  0000cd20    000000fa     Record.obj (.text._ZN8nlohmann16json_abi_v3_11_210basic_jsonINSt3__13mapENS2_6vectorENS2_12basic_stringIcNS2_11char_traitsIcEENS2_9allocatorIcEEEEbxydS8_NS0_14adl_serializerENS4_IhNS8_IhEEEEvEC2ESt16initializer_listINS0_6detail8json_refISE_EEEbNSG_7value_tE)
                  0000ce1a    00000002     --HOLE-- [fill = 0]
                  0000ce1c    000000f8     TopicFactory.obj (.text._ZNSt3__16vectorI14BrokerMetadataNS_9allocatorIS1_EEE6assignIPS1_EENS_9enable_ifIXaasr27__is_cpp17_forward_iteratorIT_EE5valuesr16is_constructibleIS1_NS_15iterator_traitsIS8_E9referenceEEE5valueEvE4typeES8_S8_)
                  0000cf14    000000f8     libc.a : memory.c.obj (.text.free)
                  0000d00c    000000f8     freertos.am64x.m4f.ti-arm-clang.release.lib : tasks.obj (.text.vTaskSwitchContext)
                  0000d104    000000f4     TopicFactory.obj (.text._ZNSt3__16vectorI13TopicMetadataNS_9allocatorIS1_EEE6assignIPS1_EENS_9enable_ifIXaasr27__is_cpp17_forward_iteratorIT_EE5valuesr16is_constructibleIS1_NS_15iterator_traitsIS8_E9referenceEEE5valueEvE4typeES8_S8_)
                  0000d1f8    000000f0     libc++.a : string.cpp.obj (.text._ZNSt3__112basic_stringIcNS_11char_traitsIcEENS_9allocatorIcEEE6appendEPKc)
                  0000d2e8    000000f0     libc.a : fputs.c.obj (.text.fputs)
                  0000d3d8    000000ee     drivers.am64x.m4f.ti-arm-clang.release.lib : ipc_rpmsg.obj (.text.RPMessage_init)
                  0000d4c6    00000002     --HOLE-- [fill = 0]
                  0000d4c8    000000ec     libc++.a : string.cpp.obj (.text._ZNSt3__112basic_stringIcNS_11char_traitsIcEENS_9allocatorIcEEE6appendEPKcj)
                  0000d5b4    000000ea     Configurer.obj (.text._ZN8nlohmann16json_abi_v3_11_26detail11parse_error6createIDnLi0EEES2_iRKNS1_10position_tERKNSt3__112basic_stringIcNS7_11char_traitsIcEENS7_9allocatorIcEEEET_)
                  0000d69e    00000002     --HOLE-- [fill = 0]
                  0000d6a0    000000e0     libc++.a : string.cpp.obj (.text._ZNSt3__112basic_stringIcNS_11char_traitsIcEENS_9allocatorIcEEE7reserveEj)
                  0000d780    000000dc     libc++abi.a : private_typeinfo.cpp.obj (.text._ZNK10__cxxabiv117__class_type_info16search_above_dstEPNS_19__dynamic_cast_infoEPKvS4_ib)
                  0000d85c    000000da     freertos.am64x.m4f.ti-arm-clang.release.lib : tasks.obj (.text.vTaskPriorityDisinheritAfterTimeout)
                  0000d936    00000002     --HOLE-- [fill = 0]
                  0000d938    000000d8     libc.a : setvbuf.c.obj (.text.setvbuf)
                  0000da10    000000d4     Configurer.obj (.text._ZN8nlohmann16json_abi_v3_11_26detail19json_sax_dom_parserINS0_10basic_jsonINSt3__13mapENS4_6vectorENS4_12basic_stringIcNS4_11char_traitsIcEENS4_9allocatorIcEEEEbxydSA_NS0_14adl_serializerENS6_IhNSA_IhEEEEvEEE11start_arrayEj)
                  0000dae4    000000d2     TopicFactory.obj (.text._ZN12TopicFactory9findTopicE13TopicMetadata)
                  0000dbb6    000000d0     Configurer.obj (.text._ZN8nlohmann16json_abi_v3_11_26detail19json_sax_dom_parserINS0_10basic_jsonINSt3__13mapENS4_6vectorENS4_12basic_stringIcNS4_11char_traitsIcEENS4_9allocatorIcEEEEbxydSA_NS0_14adl_serializerENS6_IhNSA_IhEEEEvEEE12start_objectEj)
                  0000dc86    00000002     --HOLE-- [fill = 0]
                  0000dc88    000000ce     Configurer.obj (.text._ZNSt3__16vectorI13TopicMetadataNS_9allocatorIS1_EEE21__push_back_slow_pathIRKS1_EEvOT_)
                  0000dd56    00000002     --HOLE-- [fill = 0]
                  0000dd58    000000cc     drivers.am64x.m4f.ti-arm-clang.release.lib : ipc_notify_v0.obj (.text.IpcNotify_isr)
                  0000de24    000000cc     libc++abi.a : private_typeinfo.cpp.obj (.text._ZNK10__cxxabiv120__si_class_type_info16search_above_dstEPNS_19__dynamic_cast_infoEPKvS4_ib)
                  0000def0    000000cc     TopicMetadata.obj (.text._ZNK13TopicMetadata7to_jsonERN8nlohmann16json_abi_v3_11_210basic_jsonINSt3__13mapENS3_6vectorENS3_12basic_stringIcNS3_11char_traitsIcEENS3_9allocatorIcEEEEbxydS9_NS1_14adl_serializerENS5_IhNS9_IhEEEEvEE)
                  0000dfbc    000000cc     freertos.am64x.m4f.ti-arm-clang.release.lib : timers.obj (.text.prvSampleTimeNow)
                  0000e088    000000ca     drivers.am64x.m4f.ti-arm-clang.release.lib : ipc_notify_v0.obj (.text.IpcNotify_sendMsg)
                  0000e152    000000ca     Configurer.obj (.text._ZNSt3__114__copy_alignedINS_6vectorIbNS_9allocatorIbEEEELb0EEENS_14__bit_iteratorIT_Lb0ELi0EEENS5_IS6_XT0_ELi0EEES8_S7_)
                  0000e21c    000000ca     freertos.am64x.m4f.ti-arm-clang.release.lib : tasks.obj (.text.xTaskPriorityDisinherit)
                  0000e2e6    000000c6     Configurer.obj (.text._ZN8nlohmann16json_abi_v3_11_26detail5lexerINS0_10basic_jsonINSt3__13mapENS4_6vectorENS4_12basic_stringIcNS4_11char_traitsIcEENS4_9allocatorIcEEEEbxydSA_NS0_14adl_serializerENS6_IhNSA_IhEEEEvEENS1_22iterator_input_adapterIPcEEE3getEv)
                  0000e3ac    000000c4     Configurer.obj (.text._ZNSt3__120back_insert_iteratorINS_6vectorIN8nlohmann16json_abi_v3_11_210basic_jsonINS_3mapES1_NS_12basic_stringIcNS_11char_traitsIcEENS_9allocatorIcEEEEbxydS9_NS3_14adl_serializerENS1_IhNS9_IhEEEEvEENS9_ISF_EEEEEaSEOSF_)
                  0000e470    000000c4     freertos.am64x.m4f.ti-arm-clang.release.lib : tasks.obj (.text.vTaskStartScheduler)
                  0000e534    000000c2     Configurer.obj (.text._ZN8nlohmann16json_abi_v3_11_26detail28json_sax_dom_callback_parserINS0_10basic_jsonINSt3__13mapENS4_6vectorENS4_12basic_stringIcNS4_11char_traitsIcEENS4_9allocatorIcEEEEbxydSA_NS0_14adl_serializerENS6_IhNSA_IhEEEEvEEE9end_arrayEv)
                  0000e5f6    00000002     --HOLE-- [fill = 0]
                  0000e5f8    000000c2     freertos.am64x.m4f.ti-arm-clang.release.lib : tasks.obj (.text.prvInitialiseNewTask)
                  0000e6ba    000000c2                                                 : tasks.obj (.text.xTaskCreateStatic)
                  0000e77c    000000c0     Configurer.obj (.text._ZN8nlohmann16json_abi_v3_11_26detail28json_sax_dom_callback_parserINS0_10basic_jsonINSt3__13mapENS4_6vectorENS4_12basic_stringIcNS4_11char_traitsIcEENS4_9allocatorIcEEEEbxydSA_NS0_14adl_serializerENS6_IhNSA_IhEEEEvEEE3keyERSC_)
                  0000e83c    000000c0     libc++.a : string.cpp.obj (.text._ZNSt3__19to_stringEi)
                  0000e8fc    000000be     drivers.am64x.m4f.ti-arm-clang.release.lib : pinmux.obj (.text.Pinmux_config)
                  0000e9ba    000000bc     Configurer.obj (.text._ZNSt3__16vectorIN8nlohmann16json_abi_v3_11_210basic_jsonINS_3mapES0_NS_12basic_stringIcNS_11char_traitsIcEENS_9allocatorIcEEEEbxydS8_NS2_14adl_serializerENS0_IhNS8_IhEEEEvEENS8_ISE_EEE12emplace_backIJSE_EEEvDpOT_)
                  0000ea76    000000b8     drivers.am64x.m4f.ti-arm-clang.release.lib : ipc_rpmsg_vring.obj (.text.RPMessage_vringReset)
                  0000eb2e    00000002     --HOLE-- [fill = 0]
                  0000eb30    000000b8     ProducerMetadata.obj (.text._ZNK16ProducerMetadata7to_jsonERN8nlohmann16json_abi_v3_11_210basic_jsonINSt3__13mapENS3_6vectorENS3_12basic_stringIcNS3_11char_traitsIcEENS3_9allocatorIcEEEEbxydS9_NS1_14adl_serializerENS5_IhNS9_IhEEEEvEE)
                  0000ebe8    000000b0     freertos.am64x.m4f.ti-arm-clang.release.lib : AddrTranslateP.obj (.text.AddrTranslateP_init)
                  0000ec98    000000b0                                                 : DebugP_memTraceLogWriter.obj (.text.DebugP_memLogWriterPutChar)
                  0000ed48    000000b0                                                 : TaskP_freertos.obj (.text.TaskP_loadUpdateAll)
                  0000edf8    000000b0     Configurer.obj (.text._ZN8nlohmann16json_abi_v3_11_26detail10serializerINS0_10basic_jsonINSt3__13mapENS4_6vectorENS4_12basic_stringIcNS4_11char_traitsIcEENS4_9allocatorIcEEEEbxydSA_NS0_14adl_serializerENS6_IhNSA_IhEEEEvEEE10dump_floatEd)
                  0000eea8    000000b0     Configurer.obj (.text._ZN8nlohmann16json_abi_v3_11_26detail6concatINSt3__112basic_stringIcNS3_11char_traitsIcEENS3_9allocatorIcEEEEJRA17_KcRKS9_cS9_RA3_SA_EEET_DpOT0_)
                  0000ef58    000000b0     libclang_rt.builtins.a : udivmoddi4.S.obj (.text)
                  0000f008    000000ae     Configurer.obj (.text._ZNK8nlohmann16json_abi_v3_11_210basic_jsonINSt3__13mapENS2_6vectorENS2_12basic_stringIcNS2_11char_traitsIcEENS2_9allocatorIcEEEEbxydS8_NS0_14adl_serializerENS4_IhNS8_IhEEEEvE4dumpEicbNS0_6detail15error_handler_tE)
                  0000f0b6    00000002     --HOLE-- [fill = 0]
                  0000f0b8    000000ac     libc++.a : string.cpp.obj (.text._ZNSt3__112basic_stringIcNS_11char_traitsIcEENS_9allocatorIcEEE9push_backEc)
                  0000f164    000000a8     freertos.am64x.m4f.ti-arm-clang.release.lib : tasks.obj (.text.xTaskPriorityInherit)
                  0000f20c    000000a6                                                 : HwiP_armv7m_handlers_freertos.obj (.text.hwi)
                  0000f2b2    000000a4     drivers.am64x.m4f.ti-arm-clang.release.lib : ipc_rpmsg_vring.obj (.text.RPMessage_vringGetFullRxBuf)
                  0000f356    000000a4     Configurer.obj (.text._ZNSt3__16vectorIN8nlohmann16json_abi_v3_11_210basic_jsonINS_3mapES0_NS_12basic_stringIcNS_11char_traitsIcEENS_9allocatorIcEEEEbxydS8_NS2_14adl_serializerENS0_IhNS8_IhEEEEvEENS8_ISE_EEE12emplace_backIJRSA_EEEvDpOT_)
                  0000f3fa    00000002     --HOLE-- [fill = 0]
                  0000f3fc    000000a4     freertos.am64x.m4f.ti-arm-clang.release.lib : printf.obj (.text._ntoa_long_long)
                  0000f4a0    000000a4                                                 : printf.obj (.text._out_rev)
                  0000f544    000000a4                                                 : tasks.obj (.text.xTaskRemoveFromEventList)
                  0000f5e8    000000a2     Configurer.obj (.text._ZN8nlohmann16json_abi_v3_11_26detail5lexerINS0_10basic_jsonINSt3__13mapENS4_6vectorENS4_12basic_stringIcNS4_11char_traitsIcEENS4_9allocatorIcEEEEbxydSA_NS0_14adl_serializerENS6_IhNSA_IhEEEEvEENS1_22iterator_input_adapterIPcEEE13get_codepointEv)
                  0000f68a    000000a0     freertos.am64x.m4f.ti-arm-clang.release.lib : tasks.obj (.text.eTaskGetState)
                  0000f72a    000000a0                                                 : tasks.obj (.text.prvAddCurrentTaskToDelayedList)
                  0000f7ca    0000009e     drivers.am64x.m4f.ti-arm-clang.release.lib : ipc_rpmsg_vring.obj (.text.RPMessage_vringPutEmptyRxBuf)
                  0000f868    0000009e                                                : sciclient_pm.obj (.text.Sciclient_pmQueryModuleClkFreq)
                  0000f906    0000009e     freertos.am64x.m4f.ti-arm-clang.release.lib : tasks.obj (.text.xTaskCheckForTimeOut)
                  0000f9a4    0000009a     drivers.am64x.m4f.ti-arm-clang.release.lib : sciclient.obj (.text.Sciclient_init)
                  0000fa3e    00000002     --HOLE-- [fill = 0]
                  0000fa40    0000009a                                                : sciclient.obj (.text.Sciclient_sendMessage)
                  0000fada    00000002     --HOLE-- [fill = 0]
                  0000fadc    0000009a     Configurer.obj (.text._ZN8nlohmann16json_abi_v3_11_26detail6concatINSt3__112basic_stringIcNS3_11char_traitsIcEENS3_9allocatorIcEEEEJRA10_KcS9_SC_S9_EEET_DpOT0_)
                  0000fb76    0000009a     Configurer.obj (.text._ZNSt3__16vectorIN8nlohmann16json_abi_v3_11_210basic_jsonINS_3mapES0_NS_12basic_stringIcNS_11char_traitsIcEENS_9allocatorIcEEEEbxydS8_NS2_14adl_serializerENS0_IhNS8_IhEEEEvEENS8_ISE_EEE12emplace_backIJDnEEEvDpOT_)
                  0000fc10    00000098     drivers.am64x.m4f.ti-arm-clang.release.lib : ipc_rpmsg.obj (.text.RPMessage_coreInit)
                  0000fca8    00000098     Configurer.obj (.text._ZNSt3__16vectorIN8nlohmann16json_abi_v3_11_210basic_jsonINS_3mapES0_NS_12basic_stringIcNS_11char_traitsIcEENS_9allocatorIcEEEEbxydS8_NS2_14adl_serializerENS0_IhNS8_IhEEEEvEENS8_ISE_EEE12emplace_backIJNS2_6detail7value_tEEEEvDpOT_)
                  0000fd40    00000096     freertos.am64x.m4f.ti-arm-clang.release.lib : tasks.obj (.text.vTaskGetInfo)
                  0000fdd6    00000002     --HOLE-- [fill = 0]
                  0000fdd8    00000094     UDPEndpoint.obj (.text._ZN11UDPEndpoint9from_jsonERKN8nlohmann16json_abi_v3_11_210basic_jsonINSt3__13mapENS3_6vectorENS3_12basic_stringIcNS3_11char_traitsIcEENS3_9allocatorIcEEEEbxydS9_NS1_14adl_serializerENS5_IhNS9_IhEEEEvEE)
                  0000fe6c    00000094     freertos.am64x.m4f.ti-arm-clang.release.lib : printf.obj (.text._ntoa_long)
                  0000ff00    00000092     drivers.am64x.m4f.ti-arm-clang.release.lib : ipc_rpmsg_vring.obj (.text.RPMessage_vringGetEmptyTxBuf)
                  0000ff92    00000092     Configurer.obj (.text._ZNK8nlohmann16json_abi_v3_11_210basic_jsonINSt3__13mapENS2_6vectorENS2_12basic_stringIcNS2_11char_traitsIcEENS2_9allocatorIcEEEEbxydS8_NS0_14adl_serializerENS4_IhNS8_IhEEEEvE16assert_invariantEb)
                  00010024    00000092     freertos.am64x.m4f.ti-arm-clang.release.lib : queue.obj (.text.xQueueGenericReset)
                  000100b6    00000002     --HOLE-- [fill = 0]
                  000100b8    00000090     drivers.am64x.m4f.ti-arm-clang.release.lib : ipc_rpmsg_vring.obj (.text.RPMessage_vringResetInternal)
                  00010148    0000008e     Broker.obj (.text._ZN8nlohmann16json_abi_v3_11_210basic_jsonINSt3__13mapENS2_6vectorENS2_12basic_stringIcNS2_11char_traitsIcEENS2_9allocatorIcEEEEbxydS8_NS0_14adl_serializerENS4_IhNS8_IhEEEEvE5parseIRA1024_cEESE_OT_NS2_8functionIFbiNS0_6detail13parse_event_tERSE_EEEbb)
                  000101d6    0000008c     drivers.am64x.m4f.ti-arm-clang.release.lib : sciclient_pm.obj (.text.Sciclient_pmSetModuleClkFreq)
                  00010262    0000008a     TopicProxy.obj (.text._ZN10TopicProxyC2E17CommunicationType14BrokerMetadata13TopicMetadataRK6Logger)
                  000102ec    0000008a     Configurer.obj (.text._ZN8nlohmann16json_abi_v3_11_26detail10serializerINS0_10basic_jsonINSt3__13mapENS4_6vectorENS4_12basic_stringIcNS4_11char_traitsIcEENS4_9allocatorIcEEEEbxydSA_NS0_14adl_serializerENS6_IhNSA_IhEEEEvEEEC2ENS4_10shared_ptrINS1_23output_adapter_protocolIcEEEEcNS1_15error_handler_tE)
                  00010376    0000008a     Configurer.obj (.text._ZN8nlohmann16json_abi_v3_11_26detail9dtoa_impl5diyfp12normalize_toERKS3_i)
                  00010400    0000008a     Configurer.obj (.text._ZNSt3__16vectorIbNS_9allocatorIbEEE18__construct_at_endINS_14__bit_iteratorIS3_Lb0ELj0EEEEENS_9enable_ifIXsr27__is_cpp17_forward_iteratorIT_EE5valueEvE4typeES8_S8_)
                  0001048a    00000002     --HOLE-- [fill = 0]
                  0001048c    00000088     freertos.am64x.m4f.ti-arm-clang.release.lib : DebugP_memTraceLogWriter.obj (.text.DebugP_memTraceLogWriterPutLine)
                  00010514    00000088     ClusterMetadata.obj (.text._ZN15ClusterMetadata17addBrokerMetadataE14BrokerMetadata)
                  0001059c    00000088     BrokerMetadata.obj (.text._ZNK8nlohmann16json_abi_v3_11_26detail9iter_implIKNS0_10basic_jsonINSt3__13mapENS4_6vectorENS4_12basic_stringIcNS4_11char_traitsIcEENS4_9allocatorIcEEEEbxydSA_NS0_14adl_serializerENS6_IhNSA_IhEEEEvEEEdeEv)
                  00010624    00000086     Configurer.obj (.text._ZNK8nlohmann16json_abi_v3_11_26detail9iter_implINS0_10basic_jsonINSt3__13mapENS4_6vectorENS4_12basic_stringIcNS4_11char_traitsIcEENS4_9allocatorIcEEEEbxydSA_NS0_14adl_serializerENS6_IhNSA_IhEEEEvEEEptEv)
                  000106aa    00000086     freertos.am64x.m4f.ti-arm-clang.release.lib : timers.obj (.text.xTimerCreateTimerTask)
                  00010730    00000082     main.obj (.text.main)
                  000107b2    00000080     RPMessageCommunication.obj (.text._ZN22RPMessageCommunicationC2ERK17RPMessageEndpointRK6Logger)
                  00010832    00000080     Consumer.obj (.text._ZN8ConsumerC2E17CommunicationTypeRK6Logger14BrokerMetadatab)
                  000108b2    00000080     Configurer.obj (.text._ZN8nlohmann16json_abi_v3_11_26detail19json_sax_dom_parserINS0_10basic_jsonINSt3__13mapENS4_6vectorENS4_12basic_stringIcNS4_11char_traitsIcEENS4_9allocatorIcEEEEbxydSA_NS0_14adl_serializerENS6_IhNSA_IhEEEEvEEE3keyERSC_)
                  00010932    0000007e     Configurer.obj (.text._ZN8nlohmann16json_abi_v3_11_26detail10serializerINS0_10basic_jsonINSt3__13mapENS4_6vectorENS4_12basic_stringIcNS4_11char_traitsIcEENS4_9allocatorIcEEEEbxydSA_NS0_14adl_serializerENS6_IhNSA_IhEEEEvEEE12dump_integerIhLi0EEEvT_)
                  000109b0    0000007a     drivers.am64x.m4f.ti-arm-clang.release.lib : sciclient_pm.obj (.text.Sciclient_pmGetModuleClkNumParent)
                  00010a2a    00000002     --HOLE-- [fill = 0]
                  00010a2c    0000007a     Configurer.obj (.text._ZN8nlohmann16json_abi_v3_11_26detail5lexerINS0_10basic_jsonINSt3__13mapENS4_6vectorENS4_12basic_stringIcNS4_11char_traitsIcEENS4_9allocatorIcEEEEbxydSA_NS0_14adl_serializerENS6_IhNSA_IhEEEEvEENS1_22iterator_input_adapterIPcEEE18next_byte_in_rangeESt16initializer_listIiE)
                  00010aa6    0000007a     freertos.am64x.m4f.ti-arm-clang.release.lib : timers.obj (.text.prvCheckForValidListAndQueue)
                  00010b20    0000007a                                                 : port.obj (.text.xPortStartScheduler)
                  00010b9a    00000078     drivers.am64x.m4f.ti-arm-clang.release.lib : ipc_rpmsg.obj (.text.RPMessage_construct)
                  00010c12    00000078     freertos.am64x.m4f.ti-arm-clang.release.lib : queue.obj (.text.prvCopyDataToQueue)
                  00010c8a    00000078                                                 : timers.obj (.text.xTimerGenericCommand)
                  00010d02    00000076                                                 : DebugP_freertos.obj (.text._DebugP_logZone)
                  00010d78    00000076     RPMessageCommunication.obj (.text._ZN22RPMessageCommunication5writeEPKcjRK8Endpoint)
                  00010dee    00000002     --HOLE-- [fill = 0]
                  00010df0    00000074     libc.a : fclose.c.obj (.text.__TI_closefile)
                  00010e64    00000074            : fflush.c.obj (.text.fflush)
                  00010ed8    00000072     drivers.am64x.m4f.ti-arm-clang.release.lib : soc.obj (.text.SOC_moduleClockEnable)
                  00010f4a    00000002     --HOLE-- [fill = 0]
                  00010f4c    00000072     freertos.am64x.m4f.ti-arm-clang.release.lib : queue.obj (.text.prvUnlockQueue)
                  00010fbe    00000070                                                 : SemaphoreP_freertos.obj (.text.SemaphoreP_constructBinary)
                  0001102e    00000002     --HOLE-- [fill = 0]
                  00011030    00000070                                                 : tasks.obj (.text.prvIdleTask)
                  000110a0    0000006e     drivers.am64x.m4f.ti-arm-clang.release.lib : ipc_rpmsg.obj (.text.RPMessage_getEndPtMsg)
                  0001110e    0000006e                                                : sciclient_pm.obj (.text.Sciclient_pmGetModuleState)
                  0001117c    0000006e     Configurer.obj (.text._ZN8nlohmann16json_abi_v3_11_26detail5lexerINS0_10basic_jsonINSt3__13mapENS4_6vectorENS4_12basic_stringIcNS4_11char_traitsIcEENS4_9allocatorIcEEEEbxydSA_NS0_14adl_serializerENS6_IhNSA_IhEEEEvEENS1_22iterator_input_adapterIPcEEE12scan_commentEv)
                  000111ea    00000002     --HOLE-- [fill = 0]
                  000111ec    0000006e     TI_DebugLogger.obj (.text._ZNK14TI_DebugLogger3logEPKcz)
                  0001125a    00000002     --HOLE-- [fill = 0]
                  0001125c    0000006e     TI_DebugLogger.obj (.text._ZNK14TI_DebugLogger8logErrorEPKcz)
                  000112ca    00000002     --HOLE-- [fill = 0]
                  000112cc    0000006e     libclang_rt.builtins.a : comparedf2.c.obj (.text.__gedf2)
                  0001133a    00000002     --HOLE-- [fill = 0]
                  0001133c    0000006e                            : comparedf2.c.obj (.text.__ledf2)
                  000113aa    00000002     --HOLE-- [fill = 0]
                  000113ac    0000006c     Configurer.obj (.text._ZN8nlohmann16json_abi_v3_11_210basic_jsonINSt3__13mapENS2_6vectorENS2_12basic_stringIcNS2_11char_traitsIcEENS2_9allocatorIcEEEEbxydS8_NS0_14adl_serializerENS4_IhNS8_IhEEEEvEC2ERKSE_)
                  00011418    0000006c     Configurer.obj (.text._ZNSt3__16vectorIbNS_9allocatorIbEEE9push_backERKb)
                  00011484    0000006c     libc.a : _printfi.c.obj (.text._mcpy)
                  000114f0    0000006c            : memory.c.obj (.text.split)
                  0001155c    0000006a     freertos.am64x.m4f.ti-arm-clang.release.lib : AddrTranslateP.obj (.text.AddrTranslateP_getLocalAddr)
                  000115c6    0000006a     Configurer.obj (.text._ZN8nlohmann16json_abi_v3_11_26detail9dtoa_impl5diyfp3subERKS3_S5_)
                  00011630    0000006a     libc++.a : stdexcept.cpp.obj (.text._ZNSt13runtime_errorC2EPKc)
                  0001169a    00000068     Configurer.obj (.text._ZN8nlohmann16json_abi_v3_11_26detail5lexerINS0_10basic_jsonINSt3__13mapENS4_6vectorENS4_12basic_stringIcNS4_11char_traitsIcEENS4_9allocatorIcEEEEbxydSA_NS0_14adl_serializerENS6_IhNSA_IhEEEEvEENS1_22iterator_input_adapterIPcEEE5resetEv)
                  00011702    00000068     Configurer.obj (.text._ZN8nlohmann16json_abi_v3_11_26detail6parserINS0_10basic_jsonINSt3__13mapENS4_6vectorENS4_12basic_stringIcNS4_11char_traitsIcEENS4_9allocatorIcEEEEbxydSA_NS0_14adl_serializerENS6_IhNSA_IhEEEEvEENS1_22iterator_input_adapterIPcEEEC2EOSJ_NS4_8functionIFbiNS1_13parse_event_tERSG_EEEbb)
                  0001176a    00000068     Configurer.obj (.text._ZNSt3__16vectorIbNS_9allocatorIbEEE7reserveEj)
                  000117d2    00000002     --HOLE-- [fill = 0]
                  000117d4    00000068     libc++.a : string.cpp.obj (.text._ZNSt3__19to_stringEj)
                  0001183c    00000004     UDPEndpoint.obj (.text._ZN11UDPEndpointD0Ev)
                  00011840    00000068     libc.a : s_frexp.c.obj (.text.frexp)
                  000118a8    00000068            : fseek.c.obj (.text.fseeko)
                  00011910    00000068            : getdevice.c.obj (.text.getdevice)
                  00011978    00000066     drivers.am64x.m4f.ti-arm-clang.release.lib : sciclient_pm.obj (.text.Sciclient_pmGetModuleClkParent)
                  000119de    00000066     freertos.am64x.m4f.ti-arm-clang.release.lib : SemaphoreP_freertos.obj (.text.SemaphoreP_pend)
                  00011a44    00000066                                                 : SemaphoreP_freertos.obj (.text.SemaphoreP_post)
                  00011aaa    00000066     RPMessageCommunication.obj (.text._ZN22RPMessageCommunication4readEPcjR8Endpoint)
                  00011b10    00000064     libsysbm.a : hostrename.c.obj (.text.HOSTrename)
                  00011b74    00000064     drivers.am64x.m4f.ti-arm-clang.release.lib : sciclient_pm.obj (.text.Sciclient_pmModuleGetClkStatus)
                  00011bd8    00000064     libc++.a : string.cpp.obj (.text._ZNKSt3__112basic_stringIcNS_11char_traitsIcEENS_9allocatorIcEEE7compareEjjPKcj)
                  00011c3c    00000064              : string.cpp.obj (.text._ZNSt3__112basic_stringIcNS_11char_traitsIcEENS_9allocatorIcEEEC2ERKS5_)
                  00011ca0    00000064     freertos.am64x.m4f.ti-arm-clang.release.lib : queue.obj (.text.vQueueDelete)
                  00011d04    0000000c     drivers.am64x.m4f.ti-arm-clang.release.lib : ipc_notify_v0.obj (.text.IpcNotify_getSelfCoreId)
                  00011d10    00000064     freertos.am64x.m4f.ti-arm-clang.release.lib : port.obj (.text.xPortPendSVHandler)
                  00011d74    00000062     TopicFactory.obj (.text._ZN12TopicFactoryC2E17CommunicationTypeRK6Logger14BrokerMetadatab)
                  00011dd6    00000002     --HOLE-- [fill = 0]
                  00011dd8    00000062     Configurer.obj (.text._ZNSt3__16__treeINS_12__value_typeINS_12basic_stringIcNS_11char_traitsIcEENS_9allocatorIcEEEEN8nlohmann16json_abi_v3_11_210basic_jsonINS_3mapENS_6vectorES7_bxydS5_NS9_14adl_serializerENSC_IhNS5_IhEEEEvEEEENS_19__map_value_compareIS7_SH_NS_4lessIvEELb1EEENS5_ISH_EEE12__find_equalIS7_EERPNS_16__tree_node_baseIPvEERPNS_15__tree_end_nodeISS_EERKT_)
                  00011e3a    00000002     --HOLE-- [fill = 0]
                  00011e3c    00000062     libclang_rt.builtins.a : aeabi_dcmp.S.obj (.text)
                  00011e9e    00000002     --HOLE-- [fill = 0]
                  00011ea0    00000060     Configurer.obj (.text._ZNSt3__13mapINS_12basic_stringIcNS_11char_traitsIcEENS_9allocatorIcEEEEN8nlohmann16json_abi_v3_11_210basic_jsonIS0_NS_6vectorES6_bxydS4_NS8_14adl_serializerENSA_IhNS4_IhEEEEvEENS_4lessIvEENS4_INS_4pairIKS6_SE_EEEEE6insertINS_20__map_const_iteratorINS_21__tree_const_iteratorINS_12__value_typeIS6_SE_EEPNS_11__tree_nodeISQ_PvEEiEEEEEEvT_SX_)
                  00011f00    00000060     libc.a : _io_perm.c.obj (.text.__TI_wrt_ok)
                  00011f60    00000060     libsysbm.a : close.c.obj (.text.close)
                  00011fc0    0000005e     drivers.am64x.m4f.ti-arm-clang.release.lib : ipc_rpmsg_vring.obj (.text.RPMessage_vringPutFullTxBuf)
                  0001201e    0000005e                                                : sciclient_pm.obj (.text.Sciclient_pmSetModuleClkParent)
                  0001207c    0000005e     freertos.am64x.m4f.ti-arm-clang.release.lib : DebugP_log.obj (.text._DebugP_assert)
                  000120da    00000002     --HOLE-- [fill = 0]
                  000120dc    0000005e     Configurer.obj (.text._ZN8nlohmann16json_abi_v3_11_26detail5lexerINS0_10basic_jsonINSt3__13mapENS4_6vectorENS4_12basic_stringIcNS4_11char_traitsIcEENS4_9allocatorIcEEEEbxydSA_NS0_14adl_serializerENS6_IhNSA_IhEEEEvEENS1_22iterator_input_adapterIPcEEE12scan_literalEPKcjNS1_10lexer_baseISG_E10token_typeE)
                  0001213a    0000005e     Configurer.obj (.text._ZNSt3__16__treeINS_12__value_typeINS_12basic_stringIcNS_11char_traitsIcEENS_9allocatorIcEEEEN8nlohmann16json_abi_v3_11_210basic_jsonINS_3mapENS_6vectorES7_bxydS5_NS9_14adl_serializerENSC_IhNS5_IhEEEEvEEEENS_19__map_value_compareIS7_SH_NS_4lessIvEELb1EEENS5_ISH_EEE30__emplace_hint_unique_key_argsIS7_JRKNS_4pairIKS7_SG_EEEEENSP_INS_15__tree_iteratorISH_PNS_11__tree_nodeISH_PvEEiEEbEENS_21__tree_const_iteratorISH_SY_iEERKT_DpOT0_)
                  00012198    0000005e     freertos.am64x.m4f.ti-arm-clang.release.lib : port.obj (.text.vPortEnterCritical)
                  000121f6    0000005c     drivers.am64x.m4f.ti-arm-clang.release.lib : sciclient_pm.obj (.text.Sciclient_pmModuleClkRequest)
                  00012252    00000002     --HOLE-- [fill = 0]
                  00012254    0000005c     Configurer.obj (.text._ZNK8nlohmann16json_abi_v3_11_26detail5lexerINS0_10basic_jsonINSt3__13mapENS4_6vectorENS4_12basic_stringIcNS4_11char_traitsIcEENS4_9allocatorIcEEEEbxydSA_NS0_14adl_serializerENS6_IhNSA_IhEEEEvEENS1_22iterator_input_adapterIPcEEE16get_token_stringEv)
                  000122b0    0000005c     Record.obj (.text._ZNSt3__16__treeINS_12__value_typeINS_12basic_stringIcNS_11char_traitsIcEENS_9allocatorIcEEEEN8nlohmann16json_abi_v3_11_210basic_jsonINS_3mapENS_6vectorES7_bxydS5_NS9_14adl_serializerENSC_IhNS5_IhEEEEvEEEENS_19__map_value_compareIS7_SH_NS_4lessIvEELb1EEENS5_ISH_EEE16__construct_nodeIJS7_SG_EEENS_10unique_ptrINS_11__tree_nodeISH_PvEENS_22__tree_node_destructorINS5_ISS_EEEEEEDpOT_)
                  0001230c    0000005a     drivers.am64x.m4f.ti-arm-clang.release.lib : ipc_rpmsg_vring.obj (.text.RPMessage_vringIsFullRxBuf)
                  00012366    0000005a     Consumer.obj (.text._ZN8Consumer9subscribeE13TopicMetadata)
                  000123c0    0000005a     Configurer.obj (.text._ZNSt3__146__construct_backward_with_exception_guaranteesINS_9allocatorIN8nlohmann16json_abi_v3_11_210basic_jsonINS_3mapENS_6vectorENS_12basic_stringIcNS_11char_traitsIcEENS1_IcEEEEbxydS1_NS3_14adl_serializerENS6_IhNS1_IhEEEEvEEEEPSF_EEvRT_T0_SK_RSK_)
                  0001241a    0000005a     freertos.am64x.m4f.ti-arm-clang.release.lib : boot_armv7m.obj (.text:_c_int00)
                  00012474    00000058     libsysbm.a : hostlseek.c.obj (.text.HOSTlseek)
                  000124cc    00000058                : hostopen.c.obj (.text.HOSTopen)
                  00012524    00000058     Configurer.obj (.text._ZN8nlohmann16json_abi_v3_11_26detail11parse_error15position_stringERKNS1_10position_tE)
                  0001257c    00000058     Configurer.obj (.text._ZN8nlohmann16json_abi_v3_11_26detail6concatINSt3__112basic_stringIcNS3_11char_traitsIcEENS3_9allocatorIcEEEEJRA26_KcS9_cEEET_DpOT0_)
                  000125d4    00000058     libc++abi.a : private_typeinfo.cpp.obj (.text._ZNK10__cxxabiv120__si_class_type_info27has_unambiguous_public_baseEPNS_19__dynamic_cast_infoEPvi)
                  0001262c    00000058     libc++.a : string.cpp.obj (.text._ZNKSt3__112basic_stringIcNS_11char_traitsIcEENS_9allocatorIcEEE7compareEPKc)
                  00012684    00000058     freertos.am64x.m4f.ti-arm-clang.release.lib : tasks.obj (.text.vTaskPlaceOnEventListRestricted)
                  000126dc    00000056     Configurer.obj (.text._ZN8nlohmann16json_abi_v3_11_210basic_jsonINSt3__13mapENS2_6vectorENS2_12basic_stringIcNS2_11char_traitsIcEENS2_9allocatorIcEEEEbxydS8_NS0_14adl_serializerENS4_IhNS8_IhEEEEvE6parserINS0_6detail22iterator_input_adapterIPcEEEENSG_6parserISE_T_EESL_NS2_8functionIFbiNSG_13parse_event_tERSE_EEEbb)
                  00012732    00000056     libc.a : _ltoa.c.obj (.text.__TI_ltoa)
                  00012788    00000056     freertos.am64x.m4f.ti-arm-clang.release.lib : port.obj (.text.prvTaskExitError)
                  000127de    00000002     --HOLE-- [fill = 0]
                  000127e0    00000054     libsysbm.a : hostread.c.obj (.text.HOSTread)
                  00012834    00000054                : hostwrite.c.obj (.text.HOSTwrite)
                  00012888    00000054     embedded_kafka_m4.obj (.text._Z21communication_main_m4Pv)
                  000128dc    00000054     Configurer.obj (.text._ZN8nlohmann16json_abi_v3_11_26detail10serializerINS0_10basic_jsonINSt3__13mapENS4_6vectorENS4_12basic_stringIcNS4_11char_traitsIcEENS4_9allocatorIcEEEEbxydSA_NS0_14adl_serializerENS6_IhNSA_IhEEEEvEEE6decodeERhRjh)
                  00012930    00000054     Configurer.obj (.text._ZN8nlohmann16json_abi_v3_11_26detail28json_sax_dom_callback_parserINS0_10basic_jsonINSt3__13mapENS4_6vectorENS4_12basic_stringIcNS4_11char_traitsIcEENS4_9allocatorIcEEEEbxydSA_NS0_14adl_serializerENS6_IhNSA_IhEEEEvEEEC2ERSG_NS4_8functionIFbiNS1_13parse_event_tESI_EEEb)
                  00012984    00000054     Configurer.obj (.text._ZNKSt3__14lessIvEclIRKNS_12basic_stringIcNS_11char_traitsIcEENS_9allocatorIcEEEESA_EEDTltclsr3stdE7forwardIT_Efp_Eclsr3stdE7forwardIT0_Efp0_EEOSB_OSC_)
                  000129d8    00000054     embedded_kafka_m4.obj (.text._ZNSt3__112basic_stringIcNS_11char_traitsIcEENS_9allocatorIcEEEC2IDnEEPKc)
                  00012a2c    00000054     libc.a : _printfi.c.obj (.text._pconv_f)
                  00012a80    00000052     drivers.am64x.m4f.ti-arm-clang.release.lib : sciclient_pm.obj (.text.Sciclient_pmSetModuleState)
                  00012ad2    00000052     RPMessageEndpoint.obj (.text._ZN17RPMessageEndpoint9from_jsonERKN8nlohmann16json_abi_v3_11_210basic_jsonINSt3__13mapENS3_6vectorENS3_12basic_stringIcNS3_11char_traitsIcEENS3_9allocatorIcEEEEbxydS9_NS1_14adl_serializerENS5_IhNS9_IhEEEEvEE)
                  00012b24    00000052     Configurer.obj (.text._ZN8nlohmann16json_abi_v3_11_26detail19json_sax_dom_parserINS0_10basic_jsonINSt3__13mapENS4_6vectorENS4_12basic_stringIcNS4_11char_traitsIcEENS4_9allocatorIcEEEEbxydSA_NS0_14adl_serializerENS6_IhNSA_IhEEEEvEEE10end_objectEv)
                  00012b76    00000052     Configurer.obj (.text._ZN8nlohmann16json_abi_v3_11_26detail19json_sax_dom_parserINS0_10basic_jsonINSt3__13mapENS4_6vectorENS4_12basic_stringIcNS4_11char_traitsIcEENS4_9allocatorIcEEEEbxydSA_NS0_14adl_serializerENS6_IhNSA_IhEEEEvEEE9end_arrayEv)
                  00012bc8    00000052     Configurer.obj (.text._ZN8nlohmann16json_abi_v3_11_26detail9dtoa_impl5diyfp9normalizeES3_)
                  00012c1a    00000052     BrokerMetadata.obj (.text._ZNK8nlohmann16json_abi_v3_11_26detail9iter_implIKNS0_10basic_jsonINSt3__13mapENS4_6vectorENS4_12basic_stringIcNS4_11char_traitsIcEENS4_9allocatorIcEEEEbxydSA_NS0_14adl_serializerENS6_IhNSA_IhEEEEvEEEeqISI_LDn0EEEbRKT_)
                  00012c6c    00000052     Configurer.obj (.text._ZNK8nlohmann16json_abi_v3_11_26detail9iter_implINS0_10basic_jsonINSt3__13mapENS4_6vectorENS4_12basic_stringIcNS4_11char_traitsIcEENS4_9allocatorIcEEEEbxydSA_NS0_14adl_serializerENS6_IhNSA_IhEEEEvEEEeqISH_LDn0EEEbRKT_)
                  00012cbe    00000052     freertos.am64x.m4f.ti-arm-clang.release.lib : queue.obj (.text.xQueueGiveMutexRecursive)
                  00012d10    00000050     drivers.am64x.m4f.ti-arm-clang.release.lib : ipc_rpmsg.obj (.text.RPMessage_notifyCallback)
                  00012d60    00000050                                                : sciclient_soc_priv.obj (.text.Sciclient_getContext)
                  00012db0    00000050     freertos.am64x.m4f.ti-arm-clang.release.lib : SemaphoreP_freertos.obj (.text.SemaphoreP_constructMutex)
                  00012e00    00000050     EndpointFactory.obj (.text._ZN15EndpointFactory15getFreeEndpointEv)
                  00012e50    00000050     freertos.am64x.m4f.ti-arm-clang.release.lib : tasks.obj (.text.prvDeleteTCB)
                  00012ea0    00000050                                                 : queue.obj (.text.xQueueTakeMutexRecursive)
                  00012ef0    0000004e     Record.obj (.text._ZN8nlohmann16json_abi_v3_11_210basic_jsonINSt3__13mapENS2_6vectorENS2_12basic_stringIcNS2_11char_traitsIcEENS2_9allocatorIcEEEEbxydS8_NS0_14adl_serializerENS4_IhNS8_IhEEEEvEC2INS0_6detail8json_refISE_EELi0EEERKT_)
                  00012f3e    0000004e     Configurer.obj (.text._ZN8nlohmann16json_abi_v3_11_26detail28json_sax_dom_callback_parserINS0_10basic_jsonINSt3__13mapENS4_6vectorENS4_12basic_stringIcNS4_11char_traitsIcEENS4_9allocatorIcEEEEbxydSA_NS0_14adl_serializerENS6_IhNSA_IhEEEEvEEED2Ev)
                  00012f8c    0000004e     Configurer.obj (.text._ZN8nlohmann16json_abi_v3_11_26detail5lexerINS0_10basic_jsonINSt3__13mapENS4_6vectorENS4_12basic_stringIcNS4_11char_traitsIcEENS4_9allocatorIcEEEEbxydSA_NS0_14adl_serializerENS6_IhNSA_IhEEEEvEENS1_22iterator_input_adapterIPcEEE5ungetEv)
                  00012fda    0000004e     Configurer.obj (.text._ZN8nlohmann16json_abi_v3_11_26detail9iter_implINS0_10basic_jsonINSt3__13mapENS4_6vectorENS4_12basic_stringIcNS4_11char_traitsIcEENS4_9allocatorIcEEEEbxydSA_NS0_14adl_serializerENS6_IhNSA_IhEEEEvEEEC2EPSG_)
                  00013028    0000004e     libc.a : fflush.c.obj (.text.__TI_doflush)
                  00013076    0000004e            : _printfi.c.obj (.text._ecpy)
                  000130c4    0000004e     freertos.am64x.m4f.ti-arm-clang.release.lib : tasks.obj (.text.vTaskPlaceOnEventList)
                  00013112    00000002     --HOLE-- [fill = 0]
                  00013114    0000004c                                                 : ClockP_freertos.obj (.text.ClockP_getTimeUsec)
                  00013160    0000004c     drivers.am64x.m4f.ti-arm-clang.release.lib : ipc_rpmsg.obj (.text.RPMessage_allocEndPtMsg)
                  000131ac    0000004c     CommunicationUtils.obj (.text._ZN18CommunicationUtils7requestEP13Communication17CommunicationTypeP8EndpointPKcjPcj)
                  000131f8    0000004c     Configurer.obj (.text._ZN8nlohmann16json_abi_v3_11_210basic_jsonINSt3__13mapENS2_6vectorENS2_12basic_stringIcNS2_11char_traitsIcEENS2_9allocatorIcEEEEbxydS8_NS0_14adl_serializerENS4_IhNS8_IhEEEEvE10json_valueC2ENS0_6detail7value_tE)
                  00013244    0000004c     Configurer.obj (.text._ZN8nlohmann16json_abi_v3_11_26detail9exception4nameERKNSt3__112basic_stringIcNS3_11char_traitsIcEENS3_9allocatorIcEEEEi)
                  00013290    0000004a     ti_dpl_config.obj (.text.Dpl_init)
                  000132da    0000004a     SystemManager.obj (.text._ZN13SystemManagerC2E17CommunicationTypeRK6Logger14BrokerMetadatab)
                  00013324    0000004a     Configurer.obj (.text._ZNSt3__16__treeINS_12__value_typeINS_12basic_stringIcNS_11char_traitsIcEENS_9allocatorIcEEEEN8nlohmann16json_abi_v3_11_210basic_jsonINS_3mapENS_6vectorES7_bxydS5_NS9_14adl_serializerENSC_IhNS5_IhEEEEvEEEENS_19__map_value_compareIS7_SH_NS_4lessIvEELb1EEENS5_ISH_EEE21__remove_node_pointerEPNS_11__tree_nodeISH_PvEE)
                  0001336e    0000004a     Configurer.obj (.text._ZNSt3__16__treeINS_12__value_typeINS_12basic_stringIcNS_11char_traitsIcEENS_9allocatorIcEEEEN8nlohmann16json_abi_v3_11_210basic_jsonINS_3mapENS_6vectorES7_bxydS5_NS9_14adl_serializerENSC_IhNS5_IhEEEEvEEEENS_19__map_value_compareIS7_SH_NS_4lessIvEELb1EEENS5_ISH_EEE25__emplace_unique_key_argsIS7_JRKNS_21piecewise_construct_tENS_5tupleIJRKS7_EEENSS_IJEEEEEENS_4pairINS_15__tree_iteratorISH_PNS_11__tree_nodeISH_PvEEiEEbEERKT_DpOT0_)
                  000133b8    0000004a     embedded_kafka_m4.obj (.text._ZNSt3__16vectorI13TopicMetadataNS_9allocatorIS1_EEEC2ERKS4_)
                  00013402    00000048     BrokerMetadata.obj (.text._ZN8nlohmann16json_abi_v3_11_26detail9iter_implIKNS0_10basic_jsonINSt3__13mapENS4_6vectorENS4_12basic_stringIcNS4_11char_traitsIcEENS4_9allocatorIcEEEEbxydSA_NS0_14adl_serializerENS6_IhNSA_IhEEEEvEEE9set_beginEv)
                  0001344a    00000048     Configurer.obj (.text._ZN8nlohmann16json_abi_v3_11_26detail9iter_implINS0_10basic_jsonINSt3__13mapENS4_6vectorENS4_12basic_stringIcNS4_11char_traitsIcEENS4_9allocatorIcEEEEbxydSA_NS0_14adl_serializerENS6_IhNSA_IhEEEEvEEE9set_beginEv)
                  00013492    00000002     --HOLE-- [fill = 0]
                  00013494    00000048     libc++abi.a : private_typeinfo.cpp.obj (.text._ZNK10__cxxabiv117__class_type_info27has_unambiguous_public_baseEPNS_19__dynamic_cast_infoEPvi)
                  000134dc    00000048     libc.a : aeabi_portable.c.obj (.text.__aeabi_assert)
                  00013524    00000048            : atoi.c.obj (.text.atoi)
                  0001356c    00000048     libclang_rt.builtins.a : fixdfsi.S.obj (.text)
                  000135b4    00000046     BrokerMetadata.obj (.text._ZN8nlohmann16json_abi_v3_11_26detail9iter_implIKNS0_10basic_jsonINSt3__13mapENS4_6vectorENS4_12basic_stringIcNS4_11char_traitsIcEENS4_9allocatorIcEEEEbxydSA_NS0_14adl_serializerENS6_IhNSA_IhEEEEvEEEppEv)
                  000135fa    00000046     Configurer.obj (.text._ZN8nlohmann16json_abi_v3_11_26detail9iter_implINS0_10basic_jsonINSt3__13mapENS4_6vectorENS4_12basic_stringIcNS4_11char_traitsIcEENS4_9allocatorIcEEEEbxydSA_NS0_14adl_serializerENS6_IhNSA_IhEEEEvEEEppEv)
                  00013640    00000046     Configurer.obj (.text._ZNSt3__114__split_bufferI13TopicMetadataRNS_9allocatorIS1_EEEC2EjjS4_)
                  00013686    00000046     Configurer.obj (.text._ZNSt3__16__treeINS_12__value_typeINS_12basic_stringIcNS_11char_traitsIcEENS_9allocatorIcEEEEN8nlohmann16json_abi_v3_11_210basic_jsonINS_3mapENS_6vectorES7_bxydS5_NS9_14adl_serializerENSC_IhNS5_IhEEEEvEEEENS_19__map_value_compareIS7_SH_NS_4lessIvEELb1EEENS5_ISH_EEE16__construct_nodeIJS7_DnEEENS_10unique_ptrINS_11__tree_nodeISH_PvEENS_22__tree_node_destructorINS5_ISS_EEEEEEDpOT_)
                  000136cc    00000046     SystemManager.obj (.text._ZNSt3__16vectorI14BrokerMetadataNS_9allocatorIS1_EEEC2ERKS4_)
                  00013712    00000046     freertos.am64x.m4f.ti-arm-clang.release.lib : queue.obj (.text.vQueueWaitForMessageRestricted)
                  00013758    00000044     libsysbm.a : hosttime.c.obj (.text.HOSTtime64)
                  0001379c    00000044                : hostunlink.c.obj (.text.HOSTunlink)
                  000137e0    00000044     drivers.am64x.m4f.ti-arm-clang.release.lib : sciclient_pm.obj (.text.Sciclient_pmSetModuleRst)
                  00013824    00000044     Configurer.obj (.text._ZN8nlohmann16json_abi_v3_11_210basic_jsonINSt3__13mapENS2_6vectorENS2_12basic_stringIcNS2_11char_traitsIcEENS2_9allocatorIcEEEEbxydS8_NS0_14adl_serializerENS4_IhNS8_IhEEEEvEixESA_)
                  00013868    00000044     libc++abi.a : stdlib_stdexcept.cpp.obj (.text._ZNSt13runtime_errorD0Ev)
                  000138ac    00000044     Configurer.obj (.text._ZNSt3__16__treeINS_12__value_typeINS_12basic_stringIcNS_11char_traitsIcEENS_9allocatorIcEEEEN8nlohmann16json_abi_v3_11_210basic_jsonINS_3mapENS_6vectorES7_bxydS5_NS9_14adl_serializerENSC_IhNS5_IhEEEEvEEEENS_19__map_value_compareIS7_SH_NS_4lessIvEELb1EEENS5_ISH_EEE7destroyEPNS_11__tree_nodeISH_PvEE)
                  000138f0    00000044     libc.a : snprintf.c.obj (.text.snprintf)
                  00013934    00000044     freertos.am64x.m4f.ti-arm-clang.release.lib : port.obj (.text.vPortExitCritical)
                  00013978    00000044     libclang_rt.builtins.a : fixunsdfsi.S.obj (.text)
                  000139bc    00000042     Configurer.obj (.text._ZN8nlohmann16json_abi_v3_11_210basic_jsonINSt3__13mapENS2_6vectorENS2_12basic_stringIcNS2_11char_traitsIcEENS2_9allocatorIcEEEEbxydS8_NS0_14adl_serializerENS4_IhNS8_IhEEEEvE6createINS3_ISA_SE_NS2_4lessIvEENS8_INS2_4pairIKSA_SE_EEEEEEJRKSM_EEEPT_DpOT0_)
                  000139fe    00000042     Configurer.obj (.text._ZN8nlohmann16json_abi_v3_11_210basic_jsonINSt3__13mapENS2_6vectorENS2_12basic_stringIcNS2_11char_traitsIcEENS2_9allocatorIcEEEEbxydS8_NS0_14adl_serializerENS4_IhNS8_IhEEEEvEC2IRddLi0EEEOT_)
                  00013a40    00000042     BrokerMetadata.obj (.text._ZN8nlohmann16json_abi_v3_11_26detail9iter_implIKNS0_10basic_jsonINSt3__13mapENS4_6vectorENS4_12basic_stringIcNS4_11char_traitsIcEENS4_9allocatorIcEEEEbxydSA_NS0_14adl_serializerENS6_IhNSA_IhEEEEvEEE7set_endEv)
                  00013a82    00000042     Configurer.obj (.text._ZN8nlohmann16json_abi_v3_11_26detail9iter_implINS0_10basic_jsonINSt3__13mapENS4_6vectorENS4_12basic_stringIcNS4_11char_traitsIcEENS4_9allocatorIcEEEEbxydSA_NS0_14adl_serializerENS6_IhNSA_IhEEEEvEEE7set_endEv)
                  00013ac4    00000042     ClusterMetadata.obj (.text._ZNSt3__146__construct_backward_with_exception_guaranteesINS_9allocatorI14BrokerMetadataEEPS2_EEvRT_T0_S7_RS7_)
                  00013b06    00000002     --HOLE-- [fill = 0]
                  00013b08    00000042     RPMessageEndpoint.obj (.text._ZNSt3__16__treeINS_12__value_typeINS_12basic_stringIcNS_11char_traitsIcEENS_9allocatorIcEEEEN8nlohmann16json_abi_v3_11_210basic_jsonINS_3mapENS_6vectorES7_bxydS5_NS9_14adl_serializerENSC_IhNS5_IhEEEEvEEEENS_19__map_value_compareIS7_SH_NS_4lessIvEELb1EEENS5_ISH_EEE4findIA16_cEENS_15__tree_iteratorISH_PNS_11__tree_nodeISH_PvEEiEERKT_)
                  00013b4a    00000002     --HOLE-- [fill = 0]
                  00013b4c    00000042     UDPEndpoint.obj (.text._ZNSt3__16__treeINS_12__value_typeINS_12basic_stringIcNS_11char_traitsIcEENS_9allocatorIcEEEEN8nlohmann16json_abi_v3_11_210basic_jsonINS_3mapENS_6vectorES7_bxydS5_NS9_14adl_serializerENSC_IhNS5_IhEEEEvEEEENS_19__map_value_compareIS7_SH_NS_4lessIvEELb1EEENS5_ISH_EEE4findIA3_cEENS_15__tree_iteratorISH_PNS_11__tree_nodeISH_PvEEiEERKT_)
                  00013b8e    00000002     --HOLE-- [fill = 0]
                  00013b90    00000042     Record.obj (.text._ZNSt3__16__treeINS_12__value_typeINS_12basic_stringIcNS_11char_traitsIcEENS_9allocatorIcEEEEN8nlohmann16json_abi_v3_11_210basic_jsonINS_3mapENS_6vectorES7_bxydS5_NS9_14adl_serializerENSC_IhNS5_IhEEEEvEEEENS_19__map_value_compareIS7_SH_NS_4lessIvEELb1EEENS5_ISH_EEE4findIA5_cEENS_15__tree_iteratorISH_PNS_11__tree_nodeISH_PvEEiEERKT_)
                  00013bd2    00000002     --HOLE-- [fill = 0]
                  00013bd4    00000042     BrokerMetadata.obj (.text._ZNSt3__16__treeINS_12__value_typeINS_12basic_stringIcNS_11char_traitsIcEENS_9allocatorIcEEEEN8nlohmann16json_abi_v3_11_210basic_jsonINS_3mapENS_6vectorES7_bxydS5_NS9_14adl_serializerENSC_IhNS5_IhEEEEvEEEENS_19__map_value_compareIS7_SH_NS_4lessIvEELb1EEENS5_ISH_EEE4findIA7_cEENS_15__tree_iteratorISH_PNS_11__tree_nodeISH_PvEEiEERKT_)
                  00013c16    00000002     --HOLE-- [fill = 0]
                  00013c18    00000042     ClusterMetadata.obj (.text._ZNSt3__16__treeINS_12__value_typeINS_12basic_stringIcNS_11char_traitsIcEENS_9allocatorIcEEEEN8nlohmann16json_abi_v3_11_210basic_jsonINS_3mapENS_6vectorES7_bxydS5_NS9_14adl_serializerENSC_IhNS5_IhEEEEvEEEENS_19__map_value_compareIS7_SH_NS_4lessIvEELb1EEENS5_ISH_EEE4findIA8_cEENS_15__tree_iteratorISH_PNS_11__tree_nodeISH_PvEEiEERKT_)
                  00013c5a    00000002     --HOLE-- [fill = 0]
                  00013c5c    00000042     BrokerMetadata.obj (.text._ZNSt3__16__treeINS_12__value_typeINS_12basic_stringIcNS_11char_traitsIcEENS_9allocatorIcEEEEN8nlohmann16json_abi_v3_11_210basic_jsonINS_3mapENS_6vectorES7_bxydS5_NS9_14adl_serializerENSC_IhNS5_IhEEEEvEEEENS_19__map_value_compareIS7_SH_NS_4lessIvEELb1EEENS5_ISH_EEE4findIA9_cEENS_15__tree_iteratorISH_PNS_11__tree_nodeISH_PvEEiEERKT_)
                  00013c9e    00000002     --HOLE-- [fill = 0]
                  00013ca0    00000042     Record.obj (.text._ZNSt3__16vectorIN8nlohmann16json_abi_v3_11_210basic_jsonINS_3mapES0_NS_12basic_stringIcNS_11char_traitsIcEENS_9allocatorIcEEEEbxydS8_NS2_14adl_serializerENS0_IhNS8_IhEEEEvEENS8_ISE_EEEC2IPKNS2_6detail8json_refISE_EEEET_NS_9enable_ifIXaasr27__is_cpp17_forward_iteratorISN_EE5valuesr16is_constructibleISE_NS_15iterator_traitsISN_E9referenceEEE5valueESN_E4typeE)
                  00013ce2    00000040     drivers.am64x.m4f.ti-arm-clang.release.lib : ipc_rpmsg.obj (.text.RPMessage_destruct)
                  00013d22    00000040     Configurer.obj (.text._ZNSt3__16__treeINS_12__value_typeINS_12basic_stringIcNS_11char_traitsIcEENS_9allocatorIcEEEEN8nlohmann16json_abi_v3_11_210basic_jsonINS_3mapENS_6vectorES7_bxydS5_NS9_14adl_serializerENSC_IhNS5_IhEEEEvEEEENS_19__map_value_compareIS7_SH_NS_4lessIvEELb1EEENS5_ISH_EEE25__emplace_unique_key_argsIS7_JS7_DnEEENS_4pairINS_15__tree_iteratorISH_PNS_11__tree_nodeISH_PvEEiEEbEERKT_DpOT0_)
                  00013d62    00000040     Record.obj (.text._ZNSt3__16__treeINS_12__value_typeINS_12basic_stringIcNS_11char_traitsIcEENS_9allocatorIcEEEEN8nlohmann16json_abi_v3_11_210basic_jsonINS_3mapENS_6vectorES7_bxydS5_NS9_14adl_serializerENSC_IhNS5_IhEEEEvEEEENS_19__map_value_compareIS7_SH_NS_4lessIvEELb1EEENS5_ISH_EEE25__emplace_unique_key_argsIS7_JS7_SG_EEENS_4pairINS_15__tree_iteratorISH_PNS_11__tree_nodeISH_PvEEiEEbEERKT_DpOT0_)
                  00013da2    00000040     Configurer.obj (.text._ZNSt3__16vectorIN8nlohmann16json_abi_v3_11_210basic_jsonINS_3mapES0_NS_12basic_stringIcNS_11char_traitsIcEENS_9allocatorIcEEEEbxydS8_NS2_14adl_serializerENS0_IhNS8_IhEEEEvEENS8_ISE_EEE7reserveEj)
                  00013de2    00000002     --HOLE-- [fill = 0]
                  00013de4    00000040     Configurer.obj (.text._ZNSt3__16vectorIN8nlohmann16json_abi_v3_11_210basic_jsonINS_3mapES0_NS_12basic_stringIcNS_11char_traitsIcEENS_9allocatorIcEEEEbxydS8_NS2_14adl_serializerENS0_IhNS8_IhEEEEvEENS8_ISE_EEED2Ev)
                  00013e24    00000040     freertos.am64x.m4f.ti-arm-clang.release.lib : timers.obj (.text.prvInsertTimerInActiveList)
                  00013e64    0000003e     drivers.am64x.m4f.ti-arm-clang.release.lib : ipc_notify_v0.obj (.text.IpcNotify_registerClient)
                  00013ea2    0000003e     Configurer.obj (.text._ZN8nlohmann16json_abi_v3_11_210basic_jsonINSt3__13mapENS2_6vectorENS2_12basic_stringIcNS2_11char_traitsIcEENS2_9allocatorIcEEEEbxydS8_NS0_14adl_serializerENS4_IhNS8_IhEEEEvE6createINS0_27byte_container_with_subtypeISD_EEJRKSH_EEEPT_DpOT0_)
                  00013ee0    0000003e     ProducerMetadata.obj (.text._ZN8nlohmann16json_abi_v3_11_210basic_jsonINSt3__13mapENS2_6vectorENS2_12basic_stringIcNS2_11char_traitsIcEENS2_9allocatorIcEEEEbxydS8_NS0_14adl_serializerENS4_IhNS8_IhEEEEvEC2IRKiiLi0EEEOT_)
                  00013f1e    0000003e     Configurer.obj (.text._ZN8nlohmann16json_abi_v3_11_210basic_jsonINSt3__13mapENS2_6vectorENS2_12basic_stringIcNS2_11char_traitsIcEENS2_9allocatorIcEEEEbxydS8_NS0_14adl_serializerENS4_IhNS8_IhEEEEvEC2IRxxLi0EEEOT_)
                  00013f5c    0000003e     Configurer.obj (.text._ZN8nlohmann16json_abi_v3_11_210basic_jsonINSt3__13mapENS2_6vectorENS2_12basic_stringIcNS2_11char_traitsIcEENS2_9allocatorIcEEEEbxydS8_NS0_14adl_serializerENS4_IhNS8_IhEEEEvEC2IRyyLi0EEEOT_)
                  00013f9a    00000002     --HOLE-- [fill = 0]
                  00013f9c    0000003e     Configurer.obj (.text._ZNSt3__16vectorIN8nlohmann16json_abi_v3_11_210basic_jsonINS_3mapES0_NS_12basic_stringIcNS_11char_traitsIcEENS_9allocatorIcEEEEbxydS8_NS2_14adl_serializerENS0_IhNS8_IhEEEEvEENS8_ISE_EEEC2ERKSG_)
                  00013fda    0000003e     freertos.am64x.m4f.ti-arm-clang.release.lib : TaskP_freertos.obj (.text.vApplicationLoadHook)
                  00014018    0000003e                                                 : port.obj (.text.vPortTimerTickHandler)
                  00014056    0000003e                                                 : tasks.obj (.text.xTaskGetIdleTaskHandle)
                  00014094    0000003c     libsysbm.a : hostclose.c.obj (.text.HOSTclose)
                  000140d0    0000003c     TopicMetadata.obj (.text._ZN13TopicMetadata9from_jsonERKN8nlohmann16json_abi_v3_11_210basic_jsonINSt3__13mapENS3_6vectorENS3_12basic_stringIcNS3_11char_traitsIcEENS3_9allocatorIcEEEEbxydS9_NS1_14adl_serializerENS5_IhNS9_IhEEEEvEE)
                  0001410c    0000003c     Record.obj (.text._ZN6Record9from_jsonERKN8nlohmann16json_abi_v3_11_210basic_jsonINSt3__13mapENS3_6vectorENS3_12basic_stringIcNS3_11char_traitsIcEENS3_9allocatorIcEEEEbxydS9_NS1_14adl_serializerENS5_IhNS9_IhEEEEvEE)
                  00014148    0000003c     UDPEndpoint.obj (.text._ZN8nlohmann16json_abi_v3_11_210basic_jsonINSt3__13mapENS2_6vectorENS2_12basic_stringIcNS2_11char_traitsIcEENS2_9allocatorIcEEEEbxydS8_NS0_14adl_serializerENS4_IhNS8_IhEEEEvEC2IRKjjLi0EEEOT_)
                  00014184    0000003c     RPMessageEndpoint.obj (.text._ZN8nlohmann16json_abi_v3_11_210basic_jsonINSt3__13mapENS2_6vectorENS2_12basic_stringIcNS2_11char_traitsIcEENS2_9allocatorIcEEEEbxydS8_NS0_14adl_serializerENS4_IhNS8_IhEEEEvEC2IRKttLi0EEEOT_)
                  000141c0    0000003c     Configurer.obj (.text._ZN8nlohmann16json_abi_v3_11_210basic_jsonINSt3__13mapENS2_6vectorENS2_12basic_stringIcNS2_11char_traitsIcEENS2_9allocatorIcEEEEbxydS8_NS0_14adl_serializerENS4_IhNS8_IhEEEEvEC2IRbbLi0EEEOT_)
                  000141fc    0000003c     libc++abi.a : stdlib_stdexcept.cpp.obj (.text._ZNSt13runtime_errorD2Ev)
                  00014238    0000003c     libc.a : vsnprintf.c.obj (.text.vsnprintf)
                  00014274    0000003a     Consumer.obj (.text._ZN8Consumer4readE13TopicMetadata)
                  000142ae    00000002     --HOLE-- [fill = 0]
                  000142b0    0000003a     freertos.am64x.m4f.ti-arm-clang.release.lib : list.obj (.text.vListInsert)
                  000142ea    00000002     --HOLE-- [fill = 0]
                  000142ec    00000038     ti_power_clock_config.obj (.text.Module_clockSetFrequency)
                  00014324    00000038     drivers.am64x.m4f.ti-arm-clang.release.lib : ipc_rpmsg_vring.obj (.text.RPMessage_vringCheckEmptyTxBuf)
                  0001435c    00000038                                                : sciclient.obj (.text.Sciclient_getCurrentContext)
                  00014394    00000038     TopicFactory.obj (.text._ZN12TopicFactory8getTopicE13TopicMetadata)
                  000143cc    00000038     Record.obj (.text._ZNK8nlohmann16json_abi_v3_11_26detail8json_refINS0_10basic_jsonINSt3__13mapENS4_6vectorENS4_12basic_stringIcNS4_11char_traitsIcEENS4_9allocatorIcEEEEbxydSA_NS0_14adl_serializerENS6_IhNSA_IhEEEEvEEE15moved_or_copiedEv)
                  00014404    00000038     Configurer.obj (.text._ZNSt3__16vectorIhNS_9allocatorIhEEEC2ERKS3_)
                  0001443c    00000038     libc.a : sprintf.c.obj (.text.sprintf)
                  00014474    00000038            : autoinit.c.obj (.text:__TI_auto_init_nobinit_nopinit)
                  000144ac    00000036     Configurer.obj (.text._ZN8nlohmann16json_abi_v3_11_210basic_jsonINSt3__13mapENS2_6vectorENS2_12basic_stringIcNS2_11char_traitsIcEENS2_9allocatorIcEEEEbxydS8_NS0_14adl_serializerENS4_IhNS8_IhEEEEvE6createINS0_27byte_container_with_subtypeISD_EEJEEEPT_DpOT0_)
                  000144e2    00000002     --HOLE-- [fill = 0]
                  000144e4    00000036     TopicFactory.obj (.text._ZNSt3__16vectorI14BrokerMetadataNS_9allocatorIS1_EEE13__vdeallocateEv)
                  0001451a    00000034     Configurer.obj (.text._ZN8nlohmann16json_abi_v3_11_210basic_jsonINSt3__13mapENS2_6vectorENS2_12basic_stringIcNS2_11char_traitsIcEENS2_9allocatorIcEEEEbxydS8_NS0_14adl_serializerENS4_IhNS8_IhEEEEvE6createINS3_ISA_SE_NS2_4lessIvEENS8_INS2_4pairIKSA_SE_EEEEEEJEEEPT_DpOT0_)
                  0001454e    00000034     Record.obj (.text._ZN8nlohmann16json_abi_v3_11_210basic_jsonINSt3__13mapENS2_6vectorENS2_12basic_stringIcNS2_11char_traitsIcEENS2_9allocatorIcEEEEbxydS8_NS0_14adl_serializerENS4_IhNS8_IhEEEEvE6createINS4_ISE_NS8_ISE_EEEEJPKNS0_6detail8json_refISE_EESM_EEEPT_DpOT0_)
                  00014582    00000034     Configurer.obj (.text._ZN8nlohmann16json_abi_v3_11_26detail5lexerINS0_10basic_jsonINSt3__13mapENS4_6vectorENS4_12basic_stringIcNS4_11char_traitsIcEENS4_9allocatorIcEEEEbxydSA_NS0_14adl_serializerENS6_IhNSA_IhEEEEvEENS1_22iterator_input_adapterIPcEEE8skip_bomEv)
                  000145b6    00000034     ClusterMetadata.obj (.text._ZNSt3__114__split_bufferI14BrokerMetadataRNS_9allocatorIS1_EEEC2EjjS4_)
                  000145ea    00000034     Configurer.obj (.text._ZNSt3__114__split_bufferIN8nlohmann16json_abi_v3_11_210basic_jsonINS_3mapENS_6vectorENS_12basic_stringIcNS_11char_traitsIcEENS_9allocatorIcEEEEbxydS9_NS2_14adl_serializerENS5_IhNS9_IhEEEEvEERNS9_ISF_EEEC2EjjSH_)
                  0001461e    00000002     --HOLE-- [fill = 0]
                  00014620    00000034     Configurer.obj (.text._ZNSt3__16vectorIN8nlohmann16json_abi_v3_11_210basic_jsonINS_3mapES0_NS_12basic_stringIcNS_11char_traitsIcEENS_9allocatorIcEEEEbxydS8_NS2_14adl_serializerENS0_IhNS8_IhEEEEvEENS8_ISE_EEE22__base_destruct_at_endEPSE_)
                  00014654    00000034     Configurer.obj (.text._ZNSt3__16vectorIN8nlohmann16json_abi_v3_11_210basic_jsonINS_3mapES0_NS_12basic_stringIcNS_11char_traitsIcEENS_9allocatorIcEEEEbxydS8_NS2_14adl_serializerENS0_IhNS8_IhEEEEvEENS8_ISE_EEE5clearEv)
                  00014688    00000034     libc.a : fopen.c.obj (.text.__TI_cleanup)
                  000146bc    00000034     libsysbm.a : trgmsg.c.obj (.text.__TI_writemsg)
                  000146f0    00000034     libc.a : _printfi.c.obj (.text._fcpy)
                  00014724    00000034            : getdevice.c.obj (.text.finddevice)
                  00014758    00000034            : rand.c.obj (.text.rand)
                  0001478c    00000032     Configurer.obj (.text._ZN8nlohmann16json_abi_v3_11_210basic_jsonINSt3__13mapENS2_6vectorENS2_12basic_stringIcNS2_11char_traitsIcEENS2_9allocatorIcEEEEbxydS8_NS0_14adl_serializerENS4_IhNS8_IhEEEEvEaSESE_)
                  000147be    00000032     freertos.am64x.m4f.ti-arm-clang.release.lib : printf.obj (.text.snprintf_)
                  000147f0    00000030     Configurer.obj (.text._ZN8nlohmann16json_abi_v3_11_210basic_jsonINSt3__13mapENS2_6vectorENS2_12basic_stringIcNS2_11char_traitsIcEENS2_9allocatorIcEEEEbxydS8_NS0_14adl_serializerENS4_IhNS8_IhEEEEvE6createINS4_ISE_NS8_ISE_EEEEJEEEPT_DpOT0_)
                  00014820    00000030     Configurer.obj (.text._ZN8nlohmann16json_abi_v3_11_210basic_jsonINSt3__13mapENS2_6vectorENS2_12basic_stringIcNS2_11char_traitsIcEENS2_9allocatorIcEEEEbxydS8_NS0_14adl_serializerENS4_IhNS8_IhEEEEvE6createINS4_ISE_NS8_ISE_EEEEJRKSH_EEEPT_DpOT0_)
                  00014850    00000030     Configurer.obj (.text._ZN8nlohmann16json_abi_v3_11_210basic_jsonINSt3__13mapENS2_6vectorENS2_12basic_stringIcNS2_11char_traitsIcEENS2_9allocatorIcEEEEbxydS8_NS0_14adl_serializerENS4_IhNS8_IhEEEEvE6createISA_JRA10_KcEEEPT_DpOT0_)
                  00014880    00000030     TopicProxy.obj (.text._ZN8nlohmann16json_abi_v3_11_210basic_jsonINSt3__13mapENS2_6vectorENS2_12basic_stringIcNS2_11char_traitsIcEENS2_9allocatorIcEEEEbxydS8_NS0_14adl_serializerENS4_IhNS8_IhEEEEvE6createISA_JRA12_KcEEEPT_DpOT0_)
                  000148b0    00000030     UDPEndpoint.obj (.text._ZN8nlohmann16json_abi_v3_11_210basic_jsonINSt3__13mapENS2_6vectorENS2_12basic_stringIcNS2_11char_traitsIcEENS2_9allocatorIcEEEEbxydS8_NS0_14adl_serializerENS4_IhNS8_IhEEEEvE6createISA_JRA16_KcEEEPT_DpOT0_)
                  000148e0    00000030     Configurer.obj (.text._ZN8nlohmann16json_abi_v3_11_210basic_jsonINSt3__13mapENS2_6vectorENS2_12basic_stringIcNS2_11char_traitsIcEENS2_9allocatorIcEEEEbxydS8_NS0_14adl_serializerENS4_IhNS8_IhEEEEvE6createISA_JRA1_KcEEEPT_DpOT0_)
                  00014910    00000030     Configurer.obj (.text._ZN8nlohmann16json_abi_v3_11_210basic_jsonINSt3__13mapENS2_6vectorENS2_12basic_stringIcNS2_11char_traitsIcEENS2_9allocatorIcEEEEbxydS8_NS0_14adl_serializerENS4_IhNS8_IhEEEEvE6createISA_JRA22_KcEEEPT_DpOT0_)
                  00014940    00000030     UDPEndpoint.obj (.text._ZN8nlohmann16json_abi_v3_11_210basic_jsonINSt3__13mapENS2_6vectorENS2_12basic_stringIcNS2_11char_traitsIcEENS2_9allocatorIcEEEEbxydS8_NS0_14adl_serializerENS4_IhNS8_IhEEEEvE6createISA_JRA3_KcEEEPT_DpOT0_)
                  00014970    00000030     Record.obj (.text._ZN8nlohmann16json_abi_v3_11_210basic_jsonINSt3__13mapENS2_6vectorENS2_12basic_stringIcNS2_11char_traitsIcEENS2_9allocatorIcEEEEbxydS8_NS0_14adl_serializerENS4_IhNS8_IhEEEEvE6createISA_JRA5_KcEEEPT_DpOT0_)
                  000149a0    00000030     BrokerMetadata.obj (.text._ZN8nlohmann16json_abi_v3_11_210basic_jsonINSt3__13mapENS2_6vectorENS2_12basic_stringIcNS2_11char_traitsIcEENS2_9allocatorIcEEEEbxydS8_NS0_14adl_serializerENS4_IhNS8_IhEEEEvE6createISA_JRA7_KcEEEPT_DpOT0_)
                  000149d0    00000030     TopicProxy.obj (.text._ZN8nlohmann16json_abi_v3_11_210basic_jsonINSt3__13mapENS2_6vectorENS2_12basic_stringIcNS2_11char_traitsIcEENS2_9allocatorIcEEEEbxydS8_NS0_14adl_serializerENS4_IhNS8_IhEEEEvE6createISA_JRA8_KcEEEPT_DpOT0_)
                  00014a00    00000030     SystemManager.obj (.text._ZN8nlohmann16json_abi_v3_11_210basic_jsonINSt3__13mapENS2_6vectorENS2_12basic_stringIcNS2_11char_traitsIcEENS2_9allocatorIcEEEEbxydS8_NS0_14adl_serializerENS4_IhNS8_IhEEEEvE6createISA_JRA9_KcEEEPT_DpOT0_)
                  00014a30    00000030     Configurer.obj (.text._ZN8nlohmann16json_abi_v3_11_210basic_jsonINSt3__13mapENS2_6vectorENS2_12basic_stringIcNS2_11char_traitsIcEENS2_9allocatorIcEEEEbxydS8_NS0_14adl_serializerENS4_IhNS8_IhEEEEvE6createISA_JRKSA_EEEPT_DpOT0_)
                  00014a60    00000030     SystemManager.obj (.text._ZNK8nlohmann16json_abi_v3_11_26detail12from_json_fnclINS0_10basic_jsonINSt3__13mapENS5_6vectorENS5_12basic_stringIcNS5_11char_traitsIcEENS5_9allocatorIcEEEEbxydSB_NS0_14adl_serializerENS7_IhNSB_IhEEEEvEERiEEDTcl9from_jsonfp_clsr3stdE7forwardIT0_Efp0_EEERKT_OSJ_)
                  00014a90    00000030     Configurer.obj (.text._ZNSt3__114__split_bufferI13TopicMetadataRNS_9allocatorIS1_EEE17__destruct_at_endEPS1_)
                  00014ac0    00000030     Configurer.obj (.text._ZNSt3__114__split_bufferIN8nlohmann16json_abi_v3_11_210basic_jsonINS_3mapENS_6vectorENS_12basic_stringIcNS_11char_traitsIcEENS_9allocatorIcEEEEbxydS9_NS2_14adl_serializerENS5_IhNS9_IhEEEEvEERNS9_ISF_EEE17__destruct_at_endEPSF_)
                  00014af0    00000030     ClusterMetadata.obj (.text._ZNSt3__16vectorI14BrokerMetadataNS_9allocatorIS1_EEE26__swap_out_circular_bufferERNS_14__split_bufferIS1_RS3_EE)
                  00014b20    00000030     Configurer.obj (.text._ZNSt3__16vectorI14BrokerMetadataNS_9allocatorIS1_EEED2Ev)
                  00014b50    00000030     Configurer.obj (.text._ZNSt3__16vectorIN8nlohmann16json_abi_v3_11_210basic_jsonINS_3mapES0_NS_12basic_stringIcNS_11char_traitsIcEENS_9allocatorIcEEEEbxydS8_NS2_14adl_serializerENS0_IhNS8_IhEEEEvEENS8_ISE_EEE26__swap_out_circular_bufferERNS_14__split_bufferISE_RSF_EE)
                  00014b80    00000030     libsysbm.a : trgmsg.c.obj (.text.__TI_readmsg)
                  00014bb0    00000030     libclang_rt.builtins.a : comparedf2.c.obj (.text.__unorddf2)
                  00014be0    00000030     libc.a : snprintf.c.obj (.text._outs)
                  00014c10    00000030            : vsnprintf.c.obj (.text._outs)
                  00014c40    00000030            : exit.c.obj (.text.exit)
                  00014c70    00000030     freertos.am64x.m4f.ti-arm-clang.release.lib : port.obj (.text.prvPortStartFirstTask)
                  00014ca0    00000030                                                 : port.obj (.text.vApplicationStackOverflowHook)
                  00014cd0    00000030                                                 : queue.obj (.text.xQueueCreateMutexStatic)
                  00014d00    0000002e                                                 : ClockP_freertos.obj (.text.ClockP_timerTickIsr)
                  00014d2e    00000002     --HOLE-- [fill = 0]
                  00014d30    0000002e     ti_power_clock_config.obj (.text.Module_clockEnable)
                  00014d5e    0000002e     Configurer.obj (.text._ZN8nlohmann16json_abi_v3_11_26detail5lexerINS0_10basic_jsonINSt3__13mapENS4_6vectorENS4_12basic_stringIcNS4_11char_traitsIcEENS4_9allocatorIcEEEEbxydSA_NS0_14adl_serializerENS6_IhNSA_IhEEEEvEENS1_22iterator_input_adapterIPcEEE17get_decimal_pointEv)
                  00014d8c    0000002e     libclang_rt.builtins.a : floatsidf.S.obj (.text)
                  00014dba    0000002c     RPMessageCommunication.obj (.text._ZN22RPMessageCommunicationD0Ev)
                  00014de6    0000002c     Configurer.obj (.text._ZN8nlohmann16json_abi_v3_11_210basic_jsonINSt3__13mapENS2_6vectorENS2_12basic_stringIcNS2_11char_traitsIcEENS2_9allocatorIcEEEEbxydS8_NS0_14adl_serializerENS4_IhNS8_IhEEEEvEixIKcEERSE_PT_)
                  00014e12    0000002c     Configurer.obj (.text._ZNSt3__110__function12__value_funcIFbiN8nlohmann16json_abi_v3_11_26detail13parse_event_tERNS3_10basic_jsonINS_3mapENS_6vectorENS_12basic_stringIcNS_11char_traitsIcEENS_9allocatorIcEEEEbxydSC_NS3_14adl_serializerENS8_IhNSC_IhEEEEvEEEEC2ERKSL_)
                  00014e3e    00000002     --HOLE-- [fill = 0]
                  00014e40    0000002c     Configurer.obj (.text._ZNSt3__115__tree_iteratorINS_12__value_typeINS_12basic_stringIcNS_11char_traitsIcEENS_9allocatorIcEEEEN8nlohmann16json_abi_v3_11_210basic_jsonINS_3mapENS_6vectorES7_bxydS5_NS9_14adl_serializerENSC_IhNS5_IhEEEEvEEEEPNS_11__tree_nodeISH_PvEEiEppEv)
                  00014e6c    0000002c     libsysbm.a : lseek.c.obj (.text.lseek)
                  00014e98    0000002c                : unlink.c.obj (.text.unlink)
                  00014ec4    0000002c                : write.c.obj (.text.write)
                  00014ef0    0000002a     TopicFactory.obj (.text._ZN12TopicFactory26retrieveClusterInformationEv)
                  00014f1a    0000002a     SystemManager.obj (.text._ZN13SystemManagerD2Ev)
                  00014f44    0000002a     EndpointFactory.obj (.text._ZN15EndpointFactory14createEndpointE17CommunicationType)
                  00014f6e    0000002a     Configurer.obj (.text._ZNSt3__116allocator_traitsINS_9allocatorINS_11__tree_nodeINS_12__value_typeINS_12basic_stringIcNS_11char_traitsIcEENS1_IcEEEEN8nlohmann16json_abi_v3_11_210basic_jsonINS_3mapENS_6vectorES8_bxydS1_NSA_14adl_serializerENSD_IhNS1_IhEEEEvEEEEPvEEEEE7destroyINS_4pairIKS8_SH_EEvvEEvRSL_PT_)
                  00014f98    0000002a     embedded_kafka_m4.obj (.text._ZNSt3__16vectorI13TopicMetadataNS_9allocatorIS1_EEE11__vallocateEj)
                  00014fc2    00000002     --HOLE-- [fill = 0]
                  00014fc4    0000002a     embedded_kafka_m4.obj (.text._ZNSt3__16vectorI13TopicMetadataNS_9allocatorIS1_EEE22__base_destruct_at_endEPS1_)
                  00014fee    00000028     drivers.am64x.m4f.ti-arm-clang.release.lib : ipc_rpmsg.obj (.text.RPMessage_Params_init)
                  00015016    00000028     TopicProxy.obj (.text._ZN10TopicProxyD0Ev)
                  0001503e    00000028     UDPEndpoint.obj (.text._ZN11UDPEndpointC2Ev)
                  00015066    00000028     Configurer.obj (.text._ZN8nlohmann16json_abi_v3_11_26detail11parse_errorD0Ev)
                  0001508e    00000028     Configurer.obj (.text._ZN8nlohmann16json_abi_v3_11_26detail12out_of_rangeD0Ev)
                  000150b6    00000028     Configurer.obj (.text._ZN8nlohmann16json_abi_v3_11_26detail20external_constructorILNS1_7value_tE3EE9constructINS0_10basic_jsonINSt3__13mapENS7_6vectorENS7_12basic_stringIcNS7_11char_traitsIcEENS7_9allocatorIcEEEEbxydSD_NS0_14adl_serializerENS9_IhNSD_IhEEEEvEEA10_cLi0EEEvRT_RKT0_)
                  000150de    00000028     TopicProxy.obj (.text._ZN8nlohmann16json_abi_v3_11_26detail20external_constructorILNS1_7value_tE3EE9constructINS0_10basic_jsonINSt3__13mapENS7_6vectorENS7_12basic_stringIcNS7_11char_traitsIcEENS7_9allocatorIcEEEEbxydSD_NS0_14adl_serializerENS9_IhNSD_IhEEEEvEEA12_cLi0EEEvRT_RKT0_)
                  00015106    00000028     UDPEndpoint.obj (.text._ZN8nlohmann16json_abi_v3_11_26detail20external_constructorILNS1_7value_tE3EE9constructINS0_10basic_jsonINSt3__13mapENS7_6vectorENS7_12basic_stringIcNS7_11char_traitsIcEENS7_9allocatorIcEEEEbxydSD_NS0_14adl_serializerENS9_IhNSD_IhEEEEvEEA16_cLi0EEEvRT_RKT0_)
                  0001512e    00000028     Configurer.obj (.text._ZN8nlohmann16json_abi_v3_11_26detail20external_constructorILNS1_7value_tE3EE9constructINS0_10basic_jsonINSt3__13mapENS7_6vectorENS7_12basic_stringIcNS7_11char_traitsIcEENS7_9allocatorIcEEEEbxydSD_NS0_14adl_serializerENS9_IhNSD_IhEEEEvEEA22_cLi0EEEvRT_RKT0_)
                  00015156    00000028     UDPEndpoint.obj (.text._ZN8nlohmann16json_abi_v3_11_26detail20external_constructorILNS1_7value_tE3EE9constructINS0_10basic_jsonINSt3__13mapENS7_6vectorENS7_12basic_stringIcNS7_11char_traitsIcEENS7_9allocatorIcEEEEbxydSD_NS0_14adl_serializerENS9_IhNSD_IhEEEEvEEA3_cLi0EEEvRT_RKT0_)
                  0001517e    00000028     Record.obj (.text._ZN8nlohmann16json_abi_v3_11_26detail20external_constructorILNS1_7value_tE3EE9constructINS0_10basic_jsonINSt3__13mapENS7_6vectorENS7_12basic_stringIcNS7_11char_traitsIcEENS7_9allocatorIcEEEEbxydSD_NS0_14adl_serializerENS9_IhNSD_IhEEEEvEEA5_cLi0EEEvRT_RKT0_)
                  000151a6    00000028     BrokerMetadata.obj (.text._ZN8nlohmann16json_abi_v3_11_26detail20external_constructorILNS1_7value_tE3EE9constructINS0_10basic_jsonINSt3__13mapENS7_6vectorENS7_12basic_stringIcNS7_11char_traitsIcEENS7_9allocatorIcEEEEbxydSD_NS0_14adl_serializerENS9_IhNSD_IhEEEEvEEA7_cLi0EEEvRT_RKT0_)
                  000151ce    00000028     TopicProxy.obj (.text._ZN8nlohmann16json_abi_v3_11_26detail20external_constructorILNS1_7value_tE3EE9constructINS0_10basic_jsonINSt3__13mapENS7_6vectorENS7_12basic_stringIcNS7_11char_traitsIcEENS7_9allocatorIcEEEEbxydSD_NS0_14adl_serializerENS9_IhNSD_IhEEEEvEEA8_cLi0EEEvRT_RKT0_)
                  000151f6    00000028     SystemManager.obj (.text._ZN8nlohmann16json_abi_v3_11_26detail20external_constructorILNS1_7value_tE3EE9constructINS0_10basic_jsonINSt3__13mapENS7_6vectorENS7_12basic_stringIcNS7_11char_traitsIcEENS7_9allocatorIcEEEEbxydSD_NS0_14adl_serializerENS9_IhNSD_IhEEEEvEEA9_cLi0EEEvRT_RKT0_)
                  0001521e    00000028     Configurer.obj (.text._ZN8nlohmann16json_abi_v3_11_26detail20external_constructorILNS1_7value_tE3EE9constructINS0_10basic_jsonINSt3__13mapENS7_6vectorENS7_12basic_stringIcNS7_11char_traitsIcEENS7_9allocatorIcEEEEbxydSD_NS0_14adl_serializerENS9_IhNSD_IhEEEEvEEEEvRT_RKNSK_8string_tE)
                  00015246    00000028     Configurer.obj (.text._ZN8nlohmann16json_abi_v3_11_26detail9exceptionD0Ev)
                  0001526e    00000002     --HOLE-- [fill = 0]
                  00015270    00000028     ClusterMetadata.obj (.text._ZNSt3__114__split_bufferI14BrokerMetadataRNS_9allocatorIS1_EEED2Ev)
                  00015298    00000028     Configurer.obj (.text._ZNSt3__16__treeINS_12__value_typeINS_12basic_stringIcNS_11char_traitsIcEENS_9allocatorIcEEEEN8nlohmann16json_abi_v3_11_210basic_jsonINS_3mapENS_6vectorES7_bxydS5_NS9_14adl_serializerENSC_IhNS5_IhEEEEvEEEENS_19__map_value_compareIS7_SH_NS_4lessIvEELb1EEENS5_ISH_EEE16__insert_node_atEPNS_15__tree_end_nodeIPNS_16__tree_node_baseIPvEEEERSS_SS_)
                  000152c0    00000028     libc.a : memory.c.obj (.text.free_list_insert)
                  000152e8    00000028            : memmov.c.obj (.text.memmove)
                  00015310    00000028     freertos.am64x.m4f.ti-arm-clang.release.lib : port.obj (.text.pxPortInitialiseStack)
                  00015338    00000028                                                 : queue.obj (.text.vQueueAddToRegistry)
                  00015360    00000026     drivers.am64x.m4f.ti-arm-clang.release.lib : ipc_rpmsg.obj (.text.RPMessage_controlEndPtHandler)
                  00015386    00000026     TopicProxy.obj (.text._ZN10TopicProxy4readE16ConsumerMetadata)
                  000153ac    00000026     RPMessageCommunication.obj (.text._ZN22RPMessageCommunicationD2Ev)
                  000153d2    00000026     Configurer.obj (.text._ZNSt3__14pairIKNS_12basic_stringIcNS_11char_traitsIcEENS_9allocatorIcEEEEN8nlohmann16json_abi_v3_11_210basic_jsonINS_3mapENS_6vectorES6_bxydS4_NS9_14adl_serializerENSC_IhNS4_IhEEEEvEEEC2IJRS7_EJEEENS_21piecewise_construct_tENS_5tupleIJDpT_EEENSL_IJDpT0_EEE)
                  000153f8    00000024     TopicProxy.obj (.text._ZN10TopicProxyD2Ev)
                  0001541c    00000024     Configurer.obj (.text._ZN8nlohmann16json_abi_v3_11_26detail9exceptionD2Ev)
                  00015440    00000024     Configurer.obj (.text._ZNKSt3__18functionIFbiN8nlohmann16json_abi_v3_11_26detail13parse_event_tERNS2_10basic_jsonINS_3mapENS_6vectorENS_12basic_stringIcNS_11char_traitsIcEENS_9allocatorIcEEEEbxydSB_NS2_14adl_serializerENS7_IhNSB_IhEEEEvEEEEclEiS4_SI_)
                  00015464    00000024     libc++abi.a : stdlib_new_delete.cpp.obj (.text._Znwj)
                  00015488    00000024     libc.a : rand.c.obj (.text.srand)
                  000154ac    00000024     freertos.am64x.m4f.ti-arm-clang.release.lib : list.obj (.text.uxListRemove)
                  000154d0    00000024                                                 : port.obj (.text.vPortSVCHandler)
                  000154f4    00000024                                                 : printf.obj (.text.vprintf_)
                  00015518    00000024                                                 : tasks.obj (.text.xTaskGetSchedulerState)
                  0001553c    00000022     ti_pinmux_config.obj (.text.Pinmux_init)
                  0001555e    00000022     drivers.am64x.m4f.ti-arm-clang.release.lib : ipc_rpmsg.obj (.text.RPMessage_isLinuxCore)
                  00015580    00000022     Configurer.obj (.text._ZNSt3__110shared_ptrIN8nlohmann16json_abi_v3_11_26detail21output_string_adapterIcNS_12basic_stringIcNS_11char_traitsIcEENS_9allocatorIcEEEEEEED2Ev)
                  000155a2    00000022     Configurer.obj (.text._ZNSt3__110shared_ptrIN8nlohmann16json_abi_v3_11_26detail23output_adapter_protocolIcEEED2Ev)
                  000155c4    00000022     SystemManager.obj (.text._ZNSt3__16vectorI14BrokerMetadataNS_9allocatorIS1_EEE11__vallocateEj)
                  000155e6    00000022     Configurer.obj (.text._ZNSt3__16vectorIN8nlohmann16json_abi_v3_11_210basic_jsonINS_3mapES0_NS_12basic_stringIcNS_11char_traitsIcEENS_9allocatorIcEEEEbxydS8_NS2_14adl_serializerENS0_IhNS8_IhEEEEvEENS8_ISE_EEE11__vallocateEj)
                  00015608    00000022     Configurer.obj (.text._ZNSt3__16vectorIbNS_9allocatorIbEEE11__vallocateEj)
                  0001562a    00000022     libc.a : memcmp.c.obj (.text.memcmp)
                  0001564c    00000020     freertos.am64x.m4f.ti-arm-clang.release.lib : DebugP_log.obj (.text.DebugP_logZoneEnable)
                  0001566c    00000020     BrokerMetadata.obj (.text._ZN14BrokerMetadata16addTopicMetadataE13TopicMetadata)
                  0001568c    00000020     CommunicationFactory.obj (.text._ZN20CommunicationFactory19createCommunicationE17CommunicationTypeRK8EndpointRK6Logger)
                  000156ac    00000020     Topic.obj (.text._ZN5TopicD2Ev)
                  000156cc    00000020     BrokerMetadata.obj (.text._ZN8nlohmann16json_abi_v3_11_210basic_jsonINSt3__13mapENS2_6vectorENS2_12basic_stringIcNS2_11char_traitsIcEENS2_9allocatorIcEEEEbxydS8_NS0_14adl_serializerENS4_IhNS8_IhEEEEvE2atIRA5_KcLi0EEERSE_OT_)
                  000156ec    00000020     Configurer.obj (.text._ZN8nlohmann16json_abi_v3_11_26detail5lexerINS0_10basic_jsonINSt3__13mapENS4_6vectorENS4_12basic_stringIcNS4_11char_traitsIcEENS4_9allocatorIcEEEEbxydSA_NS0_14adl_serializerENS6_IhNSA_IhEEEEvEENS1_22iterator_input_adapterIPcEEED2Ev)
                  0001570c    00000020     UDPEndpoint.obj (.text._ZNK11UDPEndpoint24printEndpointInformationERK6Logger)
                  0001572c    00000020     RPMessageEndpoint.obj (.text._ZNK17RPMessageEndpoint24printEndpointInformationERK6Logger)
                  0001574c    00000020     RPMessageEndpoint.obj (.text._ZNK8nlohmann16json_abi_v3_11_210basic_jsonINSt3__13mapENS2_6vectorENS2_12basic_stringIcNS2_11char_traitsIcEENS2_9allocatorIcEEEEbxydS8_NS0_14adl_serializerENS4_IhNS8_IhEEEEvE2atIRA16_KcLi0EEERKSE_OT_)
                  0001576c    00000020     UDPEndpoint.obj (.text._ZNK8nlohmann16json_abi_v3_11_210basic_jsonINSt3__13mapENS2_6vectorENS2_12basic_stringIcNS2_11char_traitsIcEENS2_9allocatorIcEEEEbxydS8_NS0_14adl_serializerENS4_IhNS8_IhEEEEvE2atIRA3_KcLi0EEERKSE_OT_)
                  0001578c    00000020     Record.obj (.text._ZNK8nlohmann16json_abi_v3_11_210basic_jsonINSt3__13mapENS2_6vectorENS2_12basic_stringIcNS2_11char_traitsIcEENS2_9allocatorIcEEEEbxydS8_NS0_14adl_serializerENS4_IhNS8_IhEEEEvE2atIRA5_KcLi0EEERKSE_OT_)
                  000157ac    00000020     BrokerMetadata.obj (.text._ZNK8nlohmann16json_abi_v3_11_210basic_jsonINSt3__13mapENS2_6vectorENS2_12basic_stringIcNS2_11char_traitsIcEENS2_9allocatorIcEEEEbxydS8_NS0_14adl_serializerENS4_IhNS8_IhEEEEvE2atIRA7_KcLi0EEERKSE_OT_)
                  000157cc    00000020     ClusterMetadata.obj (.text._ZNK8nlohmann16json_abi_v3_11_210basic_jsonINSt3__13mapENS2_6vectorENS2_12basic_stringIcNS2_11char_traitsIcEENS2_9allocatorIcEEEEbxydS8_NS0_14adl_serializerENS4_IhNS8_IhEEEEvE2atIRA8_KcLi0EEERKSE_OT_)
                  000157ec    00000020     BrokerMetadata.obj (.text._ZNK8nlohmann16json_abi_v3_11_210basic_jsonINSt3__13mapENS2_6vectorENS2_12basic_stringIcNS2_11char_traitsIcEENS2_9allocatorIcEEEEbxydS8_NS0_14adl_serializerENS4_IhNS8_IhEEEEvE2atIRA9_KcLi0EEERKSE_OT_)
                  0001580c    00000020     Configurer.obj (.text._ZNSt3__16__treeINS_12__value_typeINS_12basic_stringIcNS_11char_traitsIcEENS_9allocatorIcEEEEN8nlohmann16json_abi_v3_11_210basic_jsonINS_3mapENS_6vectorES7_bxydS5_NS9_14adl_serializerENSC_IhNS5_IhEEEEvEEEENS_19__map_value_compareIS7_SH_NS_4lessIvEELb1EEENS5_ISH_EEE5eraseENS_21__tree_const_iteratorISH_PNS_11__tree_nodeISH_PvEEiEE)
                  0001582c    00000020     Configurer.obj (.text._ZNSt3__16vectorIhNS_9allocatorIhEEE11__vallocateEj)
                  0001584c    00000020     libclang_rt.builtins.a : floatunsidf.S.obj (.text)
                  0001586c    0000001e     drivers.am64x.m4f.ti-arm-clang.release.lib : ipc_notify_v0.obj (.text.IpcNotify_syncCallback)
                  0001588a    0000001e     freertos.am64x.m4f.ti-arm-clang.release.lib : SysTickTimerP.obj (.text.SysTickTimerP_Params_init)
                  000158a8    0000001e                                                 : DebugP_log.obj (.text._DebugP_assertNoLog)
                  000158c6    0000001e     TopicFactory.obj (.text._ZN12TopicFactoryD2Ev)
                  000158e4    0000001e     Topic.obj (.text._ZN5TopicC2E13TopicMetadataRK6Logger)
                  00015902    0000001e     Configurer.obj (.text._ZN8nlohmann16json_abi_v3_11_26detail10serializerINS0_10basic_jsonINSt3__13mapENS4_6vectorENS4_12basic_stringIcNS4_11char_traitsIcEENS4_9allocatorIcEEEEbxydSA_NS0_14adl_serializerENS6_IhNSA_IhEEEEvEEED2Ev)
                  00015920    0000001e     libc.a : memccpy.c.obj (.text.memccpy)
                  0001593e    0000001c     drivers.am64x.m4f.ti-arm-clang.release.lib : ipc_rpmsg_vring.obj (.text.RPMessage_vringGetTxBufLen)
                  0001595a    0000001c                                                : soc.obj (.text.SOC_getCoreName)
                  00015976    0000001c     Configurer.obj (.text._ZN8nlohmann16json_abi_v3_11_26detail10lexer_baseINS0_10basic_jsonINSt3__13mapENS4_6vectorENS4_12basic_stringIcNS4_11char_traitsIcEENS4_9allocatorIcEEEEbxydSA_NS0_14adl_serializerENS6_IhNSA_IhEEEEvEEE15token_type_nameENSH_10token_typeE)
                  00015992    0000001c     TopicFactory.obj (.text._ZNSt3__16vectorI13TopicMetadataNS_9allocatorIS1_EEE13__vdeallocateEv)
                  000159ae    00000002     --HOLE-- [fill = 0]
                  000159b0    0000001c     libc.a : assert.c.obj (.text._abort_msg)
                  000159cc    0000001c            : memory.c.obj (.text.free_list_remove)
                  000159e8    0000001c     freertos.am64x.m4f.ti-arm-clang.release.lib : port.obj (.text.vApplicationGetIdleTaskMemory)
                  00015a04    0000001c                                                 : port.obj (.text.vApplicationGetTimerTaskMemory)
                  00015a20    0000001c                                                 : list.obj (.text.vListInsertEnd)
                  00015a3c    0000001a     drivers.am64x.m4f.ti-arm-clang.release.lib : ipc_notify_v0.obj (.text.IpcNotify_Params_init)
                  00015a56    0000001a                                                : ipc_rpmsg_vring.obj (.text.RPMessage_vringGetRxBufAddr)
                  00015a70    0000001a                                                : ipc_rpmsg_vring.obj (.text.RPMessage_vringGetTxBufAddr)
                  00015a8a    0000001a     RPMessageEndpoint.obj (.text._ZN17RPMessageEndpointC2Ev)
                  00015aa4    0000001a     Configurer.obj (.text._ZNSt3__120__shared_ptr_emplaceIN8nlohmann16json_abi_v3_11_26detail21output_string_adapterIcNS_12basic_stringIcNS_11char_traitsIcEENS_9allocatorIcEEEEEENS8_ISB_EEED0Ev)
                  00015abe    0000001a     freertos.am64x.m4f.ti-arm-clang.release.lib : heap_3.obj (.text.vPortFree)
                  00015ad8    0000001a                                                 : tasks.obj (.text.vTaskInternalSetTimeOutState)
                  00015af2    00000018     ti_drivers_config.obj (.text.IpcNotify_getConfig)
                  00015b0a    00000018     drivers.am64x.m4f.ti-arm-clang.release.lib : ipc_notify_v0.obj (.text.IpcNotify_isCoreEnabled)
                  00015b22    00000018     embedded_kafka_m4.obj (.text._ZNSt3__16vectorI13TopicMetadataNS_9allocatorIS1_EEED2Ev)
                  00015b3a    00000018     libc.a : snprintf.c.obj (.text._outc)
                  00015b52    00000018            : vsnprintf.c.obj (.text._outc)
                  00015b6a    00000018            : sprintf.c.obj (.text._outs)
                  00015b82    00000018     freertos.am64x.m4f.ti-arm-clang.release.lib : tasks.obj (.text.pvTaskIncrementMutexHeldCount)
                  00015b9a    00000016                                                 : HwiP_armv7m.obj (.text.HwiP_inISR)
                  00015bb0    00000016     drivers.am64x.m4f.ti-arm-clang.release.lib : sciclient_soc_priv.obj (.text.Sciclient_getDevId)
                  00015bc6    00000016     Configurer.obj (.text._ZNSt3__114__split_bufferI13TopicMetadataRNS_9allocatorIS1_EEED2Ev)
                  00015bdc    00000016     Configurer.obj (.text._ZNSt3__114__split_bufferIN8nlohmann16json_abi_v3_11_210basic_jsonINS_3mapENS_6vectorENS_12basic_stringIcNS_11char_traitsIcEENS_9allocatorIcEEEEbxydS9_NS2_14adl_serializerENS5_IhNS9_IhEEEEvEERNS9_ISF_EEED2Ev)
                  00015bf2    00000016     freertos.am64x.m4f.ti-arm-clang.release.lib : list.obj (.text.vListInitialise)
                  00015c08    00000014                                                 : ClockP_freertos.obj (.text.ClockP_usecToTicks)
                  00015c1c    00000014     Configurer.obj (.text._ZN8nlohmann16json_abi_v3_11_214adl_serializerINSt3__112basic_stringIcNS2_11char_traitsIcEENS2_9allocatorIcEEEEvE9from_jsonIRKNS0_10basic_jsonINS2_3mapENS2_6vectorES8_bxydS6_S1_NSD_IhNS6_IhEEEEvEES8_EEDTcmclL_ZNS0_12_GLOBAL__N_19from_jsonEEclsr3stdE7forwardIT_Efp_Efp0_Ecvv_EEOSK_RT0_)
                  00015c30    00000014     freertos.am64x.m4f.ti-arm-clang.release.lib : port.obj (.text.vPortEnableVFP)
                  00015c44    00000014     libclang_rt.builtins.a : aeabi_memset.S.obj (.text)
                  00015c58    00000014                            : aeabi_uldivmod.S.obj (.text)
                  00015c6c    00000012     freertos.am64x.m4f.ti-arm-clang.release.lib : DebugP_memTraceLogWriter.obj (.text.DebugP_memLogWriterInit)
                  00015c7e    00000012                                                 : SysTickTimerP.obj (.text.SysTickTimerP_start)
                  00015c90    00000012     main.obj (.text._Z13freertos_mainPv)
                  00015ca2    00000012     RPMessageEndpoint.obj (.text._ZN17RPMessageEndpointC2Ejt)
                  00015cb4    00000012     libc++.a : memory.cpp.obj (.text._ZNSt3__119__shared_weak_count14__release_weakEv)
                  00015cc6    00000012     libc.a : _printfi.c.obj (.text.strchr)
                  00015cd8    00000012            : memcpy_t2.S.obj (.text:TI_memcpy_small)
                  00015cea    00000010            : strtoll.c.obj (.text.OUTLINED_FUNCTION_0)
                  00015cfa    00000010     drivers.am64x.m4f.ti-arm-clang.release.lib : ipc_rpmsg.obj (.text.RPMessage_CreateParams_init)
                  00015d0a    00000010     Configurer.obj (.text._ZNSt3__120__shared_ptr_emplaceIN8nlohmann16json_abi_v3_11_26detail21output_string_adapterIcNS_12basic_stringIcNS_11char_traitsIcEENS_9allocatorIcEEEEEENS8_ISB_EEED2Ev)
                  00015d1a    00000010     libsysbm.a : time64.c.obj (.text.__time64)
                  00015d2a    00000010     freertos.am64x.m4f.ti-arm-clang.release.lib : tasks.obj (.text.vTaskSuspendAll)
                  00015d3a    00000010     libc.a : wcslen.c.obj (.text.wcslen)
                  00015d4a    0000000e            : strtoull.c.obj (.text.OUTLINED_FUNCTION_0)
                  00015d58    0000000e     ti_power_clock_config.obj (.text.PowerClock_init)
                  00015d66    0000000e     freertos.am64x.m4f.ti-arm-clang.release.lib : SysTickTimerP.obj (.text.SysTickTimerP_getCount)
                  00015d74    0000000e                                                 : SysTickTimerP.obj (.text.SysTickTimerP_getReloadCount)
                  00015d82    0000000e     libc++abi.a : private_typeinfo.cpp.obj (.text._ZN10__cxxabiv117__class_type_infoD0Ev)
                  00015d90    0000000e                 : private_typeinfo.cpp.obj (.text._ZN10__cxxabiv120__si_class_type_infoD0Ev)
                  00015d9e    0000000e     libsysbm.a : hostrename.c.obj (.text.strcpy)
                  00015dac    0000000e     libc.a : _printfi.c.obj (.text.strlen)
                  00015dba    0000000e            : aeabi_portable.c.obj (.text.strlen)
                  00015dc8    0000000e            : strlen.c.obj (.text.strlen)
                  00015dd6    0000000e     libsysbm.a : hostrename.c.obj (.text.strlen)
                  00015de4    0000000e     freertos.am64x.m4f.ti-arm-clang.release.lib : tasks.obj (.text.vTaskMissedYield)
                  00015df2    0000000e     libc.a : memset_t2.S.obj (.text:TI_memset_small)
                  00015e00    0000000c     BrokerMetadata.obj (.text._ZN14BrokerMetadataC2EP8Endpoint)
                  00015e0c    0000000c     ConsumerMetadata.obj (.text._ZN16ConsumerMetadataC2Ev)
                  00015e18    0000000c     Record.obj (.text._ZN6RecordC2Ev)
                  00015e24    0000000c     libc++abi.a : cxa_handlers.cpp.obj (.text._ZSt15get_new_handlerv)
                  00015e30    0000000c                 : cxa_virtual.cpp.obj (.text.__cxa_pure_virtual)
                  00015e3c    0000000c     freertos.am64x.m4f.ti-arm-clang.release.lib : tasks.obj (.text.xTaskGetCurrentTaskHandle)
                  00015e48    0000000c                                                 : tasks.obj (.text.xTaskGetTickCount)
                  00015e54    0000000a                                                 : AddrTranslateP.obj (.text.AddrTranslateP_Params_init)
                  00015e5e    0000000a     drivers.am64x.m4f.ti-arm-clang.release.lib : csl_sec_proxy.obj (.text.CSL_secProxyGetDataAddr)
                  00015e68    0000000a                                                : ipc_notify_v0.obj (.text.IpcNotify_sendSync)
                  00015e72    0000000a     TopicMetadata.obj (.text._Z7to_jsonRN8nlohmann16json_abi_v3_11_210basic_jsonINSt3__13mapENS2_6vectorENS2_12basic_stringIcNS2_11char_traitsIcEENS2_9allocatorIcEEEEbxydS8_NS0_14adl_serializerENS4_IhNS8_IhEEEEvEERK13TopicMetadata)
                  00015e7c    0000000a     ConsumerMetadata.obj (.text._Z7to_jsonRN8nlohmann16json_abi_v3_11_210basic_jsonINSt3__13mapENS2_6vectorENS2_12basic_stringIcNS2_11char_traitsIcEENS2_9allocatorIcEEEEbxydS8_NS0_14adl_serializerENS4_IhNS8_IhEEEEvEERK16ConsumerMetadata)
                  00015e86    0000000a     ProducerMetadata.obj (.text._Z7to_jsonRN8nlohmann16json_abi_v3_11_210basic_jsonINSt3__13mapENS2_6vectorENS2_12basic_stringIcNS2_11char_traitsIcEENS2_9allocatorIcEEEEbxydS8_NS0_14adl_serializerENS4_IhNS8_IhEEEEvEERK16ProducerMetadata)
                  00015e90    0000000a     TopicMetadata.obj (.text._ZN13TopicMetadataC2Ev)
                  00015e9a    0000000a     BrokerMetadata.obj (.text._ZN14BrokerMetadataC2Ev)
                  00015ea4    0000000a     SystemManager.obj (.text._ZNK13SystemManager18getClusterMetadataEv)
                  00015eae    0000000a     BrokerMetadata.obj (.text._ZNK14BrokerMetadata17getTopicsMetadataEv)
                  00015eb8    0000000a     Topic.obj (.text._ZNK5Topic16getTopicMetadataEv)
                  00015ec2    0000000a     freertos.am64x.m4f.ti-arm-clang.release.lib : printf.obj (.text._out_char)
                  00015ecc    0000000a     libc.a : sprintf.c.obj (.text._outc)
                  00015ed6    0000000a     freertos.am64x.m4f.ti-arm-clang.release.lib : port.obj (.text.vApplicationIdleHook)
                  00015ee0    00000008     libc.a : strtod.c.obj (.text.OUTLINED_FUNCTION_0)
                  00015ee8    00000008     ClusterMetadata.obj (.text._ZN15ClusterMetadata18getBrokersMetadataEv)
                  00015ef0    00000008     Configurer.obj (.text._ZNSt3__120__shared_ptr_emplaceIN8nlohmann16json_abi_v3_11_26detail21output_string_adapterIcNS_12basic_stringIcNS_11char_traitsIcEENS_9allocatorIcEEEEEENS8_ISB_EEE16__on_zero_sharedEv)
                  00015ef8    00000008     libc.a : aeabi_portable.c.obj (.text.__aeabi_errno_addr)
                  00015f00    00000008     freertos.am64x.m4f.ti-arm-clang.release.lib : printf.obj (.text._out_buffer)
                  00015f08    00000008     libc.a : setlocale.c.obj (.text.localeconv)
                  00015f10    00000008            : memory.c.obj (.text.malloc)
                  00015f18    00000008     freertos.am64x.m4f.ti-arm-clang.release.lib : port.obj (.text.uiPortGetRunTimeCounterValue)
                  00015f20    00000006     TopicFactory.obj (.text._ZN12TopicFactory8askForIDEv)
                  00015f26    00000006     ConsumerMetadata.obj (.text._ZN16ConsumerMetadataC2EiP8Endpoint)
                  00015f2c    00000006     Configurer.obj (.text._ZN8nlohmann16json_abi_v3_11_26detail21output_string_adapterIcNSt3__112basic_stringIcNS3_11char_traitsIcEENS3_9allocatorIcEEEEE15write_characterEc)
                  00015f32    00000006     Configurer.obj (.text._ZN8nlohmann16json_abi_v3_11_26detail21output_string_adapterIcNSt3__112basic_stringIcNS3_11char_traitsIcEENS3_9allocatorIcEEEEE16write_charactersEPKcj)
                  00015f38    00000006     Configurer.obj (.text._ZNK8nlohmann16json_abi_v3_11_26detail9exception4whatEv)
                  00015f3e    00000006     freertos.am64x.m4f.ti-arm-clang.release.lib : list.obj (.text.vListInitialiseItem)
                  00015f44    00000004     TopicMetadata.obj (.text._ZN13TopicMetadataC2ENSt3__112basic_stringIcNS0_11char_traitsIcEENS0_9allocatorIcEEEE)
                  00015f48    00000004     ClusterMetadata.obj (.text._ZN15ClusterMetadataD2Ev)
                  00015f4c    00000004     RPMessageEndpoint.obj (.text._ZN17RPMessageEndpoint18setServiceEndpointEt)
                  00015f50    00000004     RPMessageEndpoint.obj (.text._ZN17RPMessageEndpoint9setCoreIdEj)
                  00015f54    00000004     RPMessageEndpoint.obj (.text._ZN17RPMessageEndpointD0Ev)
                  00015f58    00000004     Logger.obj (.text._ZN6Logger8setDebugEb)
                  00015f5c    00000004     Configurer.obj (.text._ZN8nlohmann16json_abi_v3_11_26detail21output_string_adapterIcNSt3__112basic_stringIcNS3_11char_traitsIcEENS3_9allocatorIcEEEEED0Ev)
                  00015f60    00000004     BrokerMetadata.obj (.text._ZNK14BrokerMetadata11getEndpointEv)
                  00015f64    00000004     RPMessageEndpoint.obj (.text._ZNK17RPMessageEndpoint18getServiceEndpointEv)
                  00015f68    00000004     RPMessageEndpoint.obj (.text._ZNK17RPMessageEndpoint9getCoreIdEv)
                  00015f6c    00000004     libc++abi.a : stdlib_stdexcept.cpp.obj (.text._ZNKSt13runtime_error4whatEv)
                  00015f70    00000004     libc++.a : memory.cpp.obj (.text._ZNKSt3__119__shared_weak_count13__get_deleterERKSt9type_info)
                  00015f74    00000004     Configurer.obj (.text._ZNSt3__120__shared_ptr_emplaceIN8nlohmann16json_abi_v3_11_26detail21output_string_adapterIcNS_12basic_stringIcNS_11char_traitsIcEENS_9allocatorIcEEEEEENS8_ISB_EEE21__on_zero_shared_weakEv)
                  00015f78    00000004     Configurer.obj (.text._ZNSt3__125__throw_bad_function_callEv)
                  00015f7c    00000004     Configurer.obj (.text._ZSt28__throw_bad_array_new_lengthv)
                  00015f80    00000004     libc++abi.a : stdlib_new_delete.cpp.obj (.text._ZdlPv)
                  00015f84    00000004                 : abort_message.cpp.obj (.text.abort_message)
                  00015f88    00000004     ti_dpl_config.obj (.text.boot)
                  00015f8c    00000004     libc.a : fseek.c.obj (.text.fseek)
                  00015f90    00000004     ti_dpl_config.obj (.text.putchar_)
                  00015f94    00000004     libsysbm.a : remove.c.obj (.text.remove)
                  00015f98    00000004     libc.a : exit.c.obj (.text:abort)
                  00015f9c    00000004     libclang_rt.builtins.a : aeabi_memcpy.S.obj (.text)
                  00015fa0    00000004                            : aeabi_memmove.S.obj (.text)
                  00015fa4    0000000c     --HOLE-- [fill = 0]

.sysmem    0    00015fb0    00008000     UNINITIALIZED
                  00015fb0    00000010     libc.a : memory.c.obj (.sysmem)
                  00015fc0    00007ff0     --HOLE--

.stack     0    0001dfb0    00004000     UNINITIALIZED
                  0001dfb0    00000004     freertos.am64x.m4f.ti-arm-clang.release.lib : boot_armv7m.obj (.stack)
                  0001dfb4    00003ffc     --HOLE--

.rodata    0    00030000    000080d0     
                  00030000    00001792     Configurer.obj (.rodata.str1.1)
                  00031792    000016f2     TopicProxy.obj (.rodata.str1.1)
                  00032e84    00001626     SystemManager.obj (.rodata.str1.1)
                  000344aa    000007ee     freertos.am64x.m4f.ti-arm-clang.release.lib : tasks.obj (.rodata.str1.1)
                  00034c98    00000756                                                 : queue.obj (.rodata.str1.1)
                  000353ee    00000001     SystemManager.obj (.rodata._ZN8nlohmann16json_abi_v3_11_26detail12static_constINS1_12from_json_fnEE5valueE)
                  000353ef    00000001     Configurer.obj (.rodata._ZNSt3__1L19piecewise_constructE)
                  000353f0    000004f0     Configurer.obj (.rodata._ZZN8nlohmann16json_abi_v3_11_26detail9dtoa_impl36get_cached_power_for_binary_exponentEiE13kCachedPowers)
                  000358e0    0000031a     drivers.am64x.m4f.ti-arm-clang.release.lib : ipc_rpmsg.obj (.rodata.str1.1)
                  00035bfa    000002bc     freertos.am64x.m4f.ti-arm-clang.release.lib : timers.obj (.rodata.str1.1)
                  00035eb6    000001fe     BrokerMetadata.obj (.rodata.str1.1)
                  000360b4    000001dd     ClusterMetadata.obj (.rodata.str1.1)
                  00036291    000001ad     freertos.am64x.m4f.ti-arm-clang.release.lib : port.obj (.rodata.str1.1)
                  0003643e    00000197     RPMessageEndpoint.obj (.rodata.str1.1)
                  000365d5    00000190     Configurer.obj (.rodata._ZZN8nlohmann16json_abi_v3_11_26detail10serializerINS0_10basic_jsonINSt3__13mapENS4_6vectorENS4_12basic_stringIcNS4_11char_traitsIcEENS4_9allocatorIcEEEEbxydSA_NS0_14adl_serializerENS6_IhNSA_IhEEEEvEEE6decodeERhRjhE5utf8d)
                  00036765    00000180     UDPEndpoint.obj (.rodata.str1.1)
                  000368e5    0000017d     drivers.am64x.m4f.ti-arm-clang.release.lib : ipc_notify_v0.obj (.rodata.str1.1)
                  00036a62    00000168     ConsumerMetadata.obj (.rodata.str1.1)
                  00036bca    00000154     Record.obj (.rodata.str1.1)
                  00036d1e    0000014a     TopicMetadata.obj (.rodata.str1.1)
                  00036e68    00000148     ProducerMetadata.obj (.rodata.str1.1)
                  00036fb0    0000012c     drivers.am64x.m4f.ti-arm-clang.release.lib : sciclient_fmwSecureProxyMap.obj (.rodata.gSciclientMap)
                  000370dc    0000010a     freertos.am64x.m4f.ti-arm-clang.release.lib : ClockP_freertos_m4.obj (.rodata.str1.1)
                  000371e6    00000002     --HOLE-- [fill = 0]
                  000371e8    00000008     libc++abi.a : stdlib_exception.cpp.obj (.rodata._ZTISt9exception)
                  000371f0    00000101     libc.a : aeabi_ctype.S.obj (.rodata)
                  000372f1    000000f9     embedded_kafka_m4.obj (.rodata.str1.1)
                  000373ea    000000da     freertos.am64x.m4f.ti-arm-clang.release.lib : SemaphoreP_freertos.obj (.rodata.str1.1)
                  000374c4    000000c8     libc++.a : charconv.cpp.obj (.rodata._ZNSt3__113__DIGIT_TABLEE)
                  0003758c    000000c8     Configurer.obj (.rodata._ZZN8nlohmann16json_abi_v3_11_26detail10serializerINS0_10basic_jsonINSt3__13mapENS4_6vectorENS4_12basic_stringIcNS4_11char_traitsIcEENS4_9allocatorIcEEEEbxydSA_NS0_14adl_serializerENS6_IhNSA_IhEEEEvEEE12dump_integerIhLi0EEEvT_E12digits_to_99)
                  00037654    000000c8     Configurer.obj (.rodata._ZZN8nlohmann16json_abi_v3_11_26detail10serializerINS0_10basic_jsonINSt3__13mapENS4_6vectorENS4_12basic_stringIcNS4_11char_traitsIcEENS4_9allocatorIcEEEEbxydSA_NS0_14adl_serializerENS6_IhNSA_IhEEEEvEEE12dump_integerIxLi0EEEvT_E12digits_to_99)
                  0003771c    000000c8     Configurer.obj (.rodata._ZZN8nlohmann16json_abi_v3_11_26detail10serializerINS0_10basic_jsonINSt3__13mapENS4_6vectorENS4_12basic_stringIcNS4_11char_traitsIcEENS4_9allocatorIcEEEEbxydSA_NS0_14adl_serializerENS6_IhNSA_IhEEEEvEEE12dump_integerIyLi0EEEvT_E12digits_to_99)
                  000377e4    000000ae     TopicFactory.obj (.rodata.str1.1)
                  00037892    000000a9     freertos.am64x.m4f.ti-arm-clang.release.lib : SysTickTimerP.obj (.rodata.str1.1)
                  0003793b    00000005     Configurer.obj (.rodata..L__const._ZN8nlohmann16json_abi_v3_11_26detail5lexerINS0_10basic_jsonINSt3__13mapENS4_6vectorENS4_12basic_stringIcNS4_11char_traitsIcEENS4_9allocatorIcEEEEbxydSA_NS0_14adl_serializerENS6_IhNSA_IhEEEEvEENS1_22iterator_input_adapterIPcEEE4scanEv.false_literal)
                  00037940    00000080     libc.a : strtod.c.obj (.rodata.digits)
                  000379c0    0000007b     drivers.am64x.m4f.ti-arm-clang.release.lib : soc.obj (.rodata.str1.1)
                  00037a3b    00000076     RPMessageCommunication.obj (.rodata.str1.1)
                  00037ab1    00000005     libc.a : setlocale.c.obj (.rodata.str1.1)
                  00037ab6    00000002     --HOLE-- [fill = 0]
                  00037ab8    00000050     freertos.am64x.m4f.ti-arm-clang.release.lib : printf.obj (.rodata._ftoa.pow10)
                  00037b08    00000050     drivers.am64x.m4f.ti-arm-clang.release.lib : ipc_rpmsg_vring.obj (.rodata.str1.1)
                  00037b58    00000048     libc.a : strtod.c.obj (.rodata.powerof10)
                  00037ba0    00000045            : aeabi_portable.c.obj (.rodata.str1.1)
                  00037be5    00000003     TI_DebugLogger.obj (.rodata.str1.1)
                  00037be8    00000044     Configurer.obj (.rodata..Lswitch.table._ZN8nlohmann16json_abi_v3_11_26detail10lexer_baseINS0_10basic_jsonINSt3__13mapENS4_6vectorENS4_12basic_stringIcNS4_11char_traitsIcEENS4_9allocatorIcEEEEbxydSA_NS0_14adl_serializerENS6_IhNSA_IhEEEEvEEE15token_type_nameENSH_10token_typeE)
                  00037c2c    00000042     ti_drivers_config.obj (.rodata.str1.1)
                  00037c6e    00000002     --HOLE-- [fill = 0]
                  00037c70    00000040     ti_dpl_config.obj (.rodata.gMpuRegionConfig)
                  00037cb0    0000003f     libc++abi.a : cxa_virtual.cpp.obj (.rodata.str1.1)
                  00037cef    0000003f     main.obj (.rodata.str1.1)
                  00037d2e    0000002d     freertos.am64x.m4f.ti-arm-clang.release.lib : DebugP_log.obj (.rodata.str1.1)
                  00037d5b    00000001     --HOLE-- [fill = 0]
                  00037d5c    00000028     libc++.a : string.cpp.obj (.rodata._ZNSt3__16__itoaL10__pow10_32E)
                  00037d84    00000028     libc++abi.a : private_typeinfo.cpp.obj (.rodata._ZTVN10__cxxabiv117__class_type_infoE)
                  00037dac    00000028                 : private_typeinfo.cpp.obj (.rodata._ZTVN10__cxxabiv120__si_class_type_infoE)
                  00037dd4    00000025                 : private_typeinfo.cpp.obj (.rodata._ZTSN10__cxxabiv120__si_class_type_infoE)
                  00037df9    00000003     --HOLE-- [fill = 0]
                  00037dfc    00000024     TopicProxy.obj (.rodata._ZTV10TopicProxy)
                  00037e20    00000024     Topic.obj (.rodata._ZTV5Topic)
                  00037e44    00000022     libc++abi.a : private_typeinfo.cpp.obj (.rodata._ZTSN10__cxxabiv117__class_type_infoE)
                  00037e66    00000022     libc.a : _printfi.c.obj (.rodata.str1.1)
                  00037e88    00000021     libc++abi.a : private_typeinfo.cpp.obj (.rodata._ZTSN10__cxxabiv116__shim_type_infoE)
                  00037ea9    00000003     --HOLE-- [fill = 0]
                  00037eac    00000020     drivers.am64x.m4f.ti-arm-clang.release.lib : soc.obj (.rodata.SOC_getCoreName.coreIdNames)
                  00037ecc    0000001c     UDPEndpoint.obj (.rodata._ZTV11UDPEndpoint)
                  00037ee8    0000001c     RPMessageEndpoint.obj (.rodata._ZTV17RPMessageEndpoint)
                  00037f04    0000001c     Configurer.obj (.rodata._ZTVNSt3__120__shared_ptr_emplaceIN8nlohmann16json_abi_v3_11_26detail21output_string_adapterIcNS_12basic_stringIcNS_11char_traitsIcEENS_9allocatorIcEEEEEENS8_ISB_EEEE)
                  00037f20    0000001b     freertos.am64x.m4f.ti-arm-clang.release.lib : DebugP_memTraceLogWriter.obj (.rodata.str1.1)
                  00037f3b    00000001     --HOLE-- [fill = 0]
                  00037f3c    00000018     Configurer.obj (.rodata..Lconstinit.200)
                  00037f54    00000018     Configurer.obj (.rodata..Lconstinit.201)
                  00037f6c    00000018     Configurer.obj (.rodata..Lconstinit.202)
                  00037f84    00000018     drivers.am64x.m4f.ti-arm-clang.release.lib : sciclient_soc_priv.obj (.rodata..Lswitch.table.Sciclient_getDevId)
                  00037f9c    00000018     RPMessageCommunication.obj (.rodata._ZTV22RPMessageCommunication)
                  00037fb4    00000018     Configurer.obj (.rodata._ZTVN8nlohmann16json_abi_v3_11_26detail21output_string_adapterIcNSt3__112basic_stringIcNS3_11char_traitsIcEENS3_9allocatorIcEEEEEE)
                  00037fcc    00000014     Configurer.obj (.rodata._ZTVN8nlohmann16json_abi_v3_11_26detail11parse_errorE)
                  00037fe0    00000014     Configurer.obj (.rodata._ZTVN8nlohmann16json_abi_v3_11_26detail12out_of_rangeE)
                  00037ff4    00000014     Configurer.obj (.rodata._ZTVN8nlohmann16json_abi_v3_11_26detail9exceptionE)
                  00038008    00000014     libc++abi.a : stdlib_stdexcept.cpp.obj (.rodata._ZTVSt13runtime_error)
                  0003801c    00000012                 : stdlib_stdexcept.cpp.obj (.rodata._ZTSSt13runtime_error)
                  0003802e    00000012     freertos.am64x.m4f.ti-arm-clang.release.lib : printf.obj (.rodata.str1.1)
                  00038040    00000010     TI_DebugLogger.obj (.rodata._ZTV14TI_DebugLogger)
                  00038050    00000010     UDPEndpoint.obj (.rodata.cst16)
                  00038060    0000000d     libc++abi.a : stdlib_exception.cpp.obj (.rodata._ZTSSt9exception)
                  0003806d    0000000d                 : stdlib_typeinfo.cpp.obj (.rodata._ZTSSt9type_info)
                  0003807a    00000002     --HOLE-- [fill = 0]
                  0003807c    0000000c     Configurer.obj (.rodata..Lswitch.table._ZN8nlohmann16json_abi_v3_11_26detail19json_sax_dom_parserINS0_10basic_jsonINSt3__13mapENS4_6vectorENS4_12basic_stringIcNS4_11char_traitsIcEENS4_9allocatorIcEEEEbxydSA_NS0_14adl_serializerENS6_IhNSA_IhEEEEvEEE11start_arrayEj)
                  00038088    0000000c     libc++abi.a : private_typeinfo.cpp.obj (.rodata._ZTIN10__cxxabiv116__shim_type_infoE)
                  00038094    0000000c                 : private_typeinfo.cpp.obj (.rodata._ZTIN10__cxxabiv117__class_type_infoE)
                  000380a0    0000000c                 : private_typeinfo.cpp.obj (.rodata._ZTIN10__cxxabiv120__si_class_type_infoE)
                  000380ac    0000000c                 : stdlib_stdexcept.cpp.obj (.rodata._ZTISt13runtime_error)
                  000380b8    0000000c     ti_dpl_config.obj (.rodata.gMpuConfig)
                  000380c4    00000008     libc++abi.a : stdlib_typeinfo.cpp.obj (.rodata._ZTISt9type_info)
                  000380cc    00000004     freertos.am64x.m4f.ti-arm-clang.release.lib : tasks.obj (.rodata.uxTopUsedPriority)

.bss       0    00038100    00007d00     UNINITIALIZED
                  00038100    00004000     main.obj (.bss.gMainTaskStack)
                  0003c100    00001000     ti_dpl_config.obj (.bss.debug_mem_trace_buf)
                  0003d100    00001000     freertos.am64x.m4f.ti-arm-clang.release.lib : port.obj (.bss.uxIdleTaskStack)
                  0003e100    00000b2c     (.common:gIpcRpmsgCtrl)
                  0003ec2c    00000400                                                 : port.obj (.bss.uxTimerTaskStack)
                  0003f02c    00000280                                                 : tasks.obj (.bss.pxReadyTasksLists)
                  0003f2ac    00000280     (.common:gHwiCtrl)
                  0003f52c    00000120     libsysbm.a : trgmsg.c.obj (.bss:_CIOBUF_)
                  0003f64c    00000100     freertos.am64x.m4f.ti-arm-clang.release.lib : timers.obj (.bss.prvCheckForValidListAndQueue.ucStaticTimerQueueStorage)
                  0003f74c    00000100     (.common:xQueueRegistry)
                  0003f84c    000000a8     (.common:gIpcNotifyCtrl)
                  0003f8f4    000000a0     (.common:__TI_tmpnams)
                  0003f994    00000004     main.obj (.bss.gMainTask)
                  0003f998    000000a0     (.common:gTaskP_ctrl)
                  0003fa38    00000098     freertos.am64x.m4f.ti-arm-clang.release.lib : DebugP_freertos.obj (.bss.gDebugLogLockObj)
                  0003fad0    00000088                                                 : port.obj (.bss.xIdleTaskTCB)
                  0003fb58    00000088                                                 : port.obj (.bss.xTimerTaskTCB)
                  0003fbe0    0000007a                                                 : DebugP_memTraceLogWriter.obj (.bss.DebugP_memLogWriterPutChar.lineBuf)
                  0003fc5a    00000002     --HOLE--
                  0003fc5c    00000050                                                 : timers.obj (.bss.prvCheckForValidListAndQueue.xStaticTimerQueue)
                  0003fcac    00000050     (.common:gRovDummyQueue)
                  0003fcfc    00000004                                                 : timers.obj (.bss.pxCurrentTimerList)
                  0003fd00    00000038     (.common:gClockCtrl)
                  0003fd38    00000014                                                 : timers.obj (.bss.xActiveTimerList1)
                  0003fd4c    00000014                                                 : timers.obj (.bss.xActiveTimerList2)
                  0003fd60    00000014                                                 : tasks.obj (.bss.xDelayedTaskList1)
                  0003fd74    00000014                                                 : tasks.obj (.bss.xDelayedTaskList2)
                  0003fd88    00000014                                                 : tasks.obj (.bss.xPendingReadyList)
                  0003fd9c    00000014                                                 : tasks.obj (.bss.xSuspendedTaskList)
                  0003fdb0    00000014                                                 : tasks.obj (.bss.xTasksWaitingTermination)
                  0003fdc4    00000008     (.common:parmbuf)
                  0003fdcc    00000004                                                 : tasks.obj (.bss.pxDelayedTaskList)
                  0003fdd0    00000004                                                 : tasks.obj (.bss.pxOverflowDelayedTaskList)
                  0003fdd4    00000004                                                 : timers.obj (.bss.pxOverflowTimerList)
                  0003fdd8    00000004     libc.a : memory.c.obj (.bss.sys_free)
                  0003fddc    00000024     --HOLE--

.resource_table 
*          0    a4100000    00001000     
                  a4100000    0000008c     ti_drivers_config.obj (.resource_table)
                  a410008c    00000f74     --HOLE-- [fill = 0]

.init_array 
*          0    00000200    00000000     UNINITIALIZED

.bss.ipc_vring_mem 
*          0    a5000000    00006680     NOLOAD SECTION
                  a5000000    00006680     ti_drivers_config.obj (.bss.ipc_vring_mem)

__llvm_prf_cnts 
*          0    00030000    00000000     UNINITIALIZED

__llvm_prf_bits 
*          0    00030000    00000000     UNINITIALIZED

.ARM.exidx 
*          0    00021fb0    00000008     
                  00021fb0    00000008     (.ARM.exidx.text:__TI_printfi:libc.a<_printfi.c.obj>)

MODULE SUMMARY

       Module                              code    ro data   rw data
       ------                              ----    -------   -------
    obj/release/
       Configurer.obj                      32966   8568      0      
       ti_drivers_config.obj               280     206       26240  
       main.obj                            148     63        16388  
       TopicProxy.obj                      2278    5910      0      
       SystemManager.obj                   1236    5671      0      
       ti_dpl_config.obj                   82      76        4096   
       BrokerMetadata.obj                  1314    510       0      
       TopicFactory.obj                    1498    174       0      
       UDPEndpoint.obj                     1014    428       0      
       ClusterMetadata.obj                 828     477       0      
       Record.obj                          918     340       0      
       RPMessageEndpoint.obj               776     435       0      
       embedded_kafka_m4.obj               704     249       0      
       ConsumerMetadata.obj                326     360       0      
       TopicMetadata.obj                   290     330       0      
       ProducerMetadata.obj                256     328       0      
       RPMessageCommunication.obj          430     142       0      
       Consumer.obj                        276     0         0      
       TI_DebugLogger.obj                  220     19        0      
       Broker.obj                          142     0         0      
       EndpointFactory.obj                 122     0         0      
       ti_power_clock_config.obj           116     0         0      
       Topic.obj                           74      36        0      
       CommunicationUtils.obj              76      0         0      
       ti_pinmux_config.obj                34      0         0      
       CommunicationFactory.obj            32      0         0      
       ti_board_open_close.obj             6       0         0      
       Logger.obj                          4       0         0      
       ti_board_config.obj                 2       0         0      
       ti_drivers_open_close.obj           2       0         0      
    +--+-----------------------------------+-------+---------+---------+
       Total:                              46450   24322     46724  
                                                                    
    /home/thomas/ti/mcu_plus_sdk_am64x_08_05_00_24/source/drivers/lib/drivers.am64x.m4f.ti-arm-clang.release.lib
       ipc_rpmsg.obj                       1802    794       2860   
       ipc_notify_v0.obj                   1470    381       168    
       sciclient.obj                       1222    0         0      
       ipc_rpmsg_vring.obj                 1116    80        0      
       sciclient_pm.obj                    1068    0         0      
       soc.obj                             450     155       0      
       sciclient_fmwSecureProxyMap.obj     0       300       0      
       pinmux.obj                          190     0         0      
       sciclient_soc_priv.obj              102     24        0      
       csl_sec_proxy.obj                   10      0         0      
    +--+-----------------------------------+-------+---------+---------+
       Total:                              7430    1734      3028   
                                                                    
    /home/thomas/ti/mcu_plus_sdk_am64x_08_05_00_24/source/kernel/freertos/lib/freertos.am64x.m4f.ti-arm-clang.release.lib
       tasks.obj                           4024    2034      748    
       port.obj                            800     429       5392   
       queue.obj                           3316    1878      256    
       printf.obj                          4530    98        0      
       timers.obj                          1220    700       384    
       HwiP_armv7m.obj                     954     0         640    
       SemaphoreP_freertos.obj             402     218       80     
       ClockP_freertos_m4.obj              310     266       0      
       SysTickTimerP.obj                   340     169       0      
       HwiP_armv7m_handlers_freertos.obj   166     0         320    
       DebugP_memTraceLogWriter.obj        330     27        122    
       MpuP_armv7m.obj                     446     0         0      
       TaskP_freertos.obj                  238     0         160    
       AddrTranslateP.obj                  292     0         0      
       DebugP_freertos.obj                 118     0         152    
       DebugP_log.obj                      156     45        0      
       ClockP_freertos.obj                 142     0         56     
       list.obj                            150     0         0      
       boot_armv7m.obj                     90      0         0      
       heap_3.obj                          26      0         0      
       CacheP_null.obj                     2       0         0      
    +--+-----------------------------------+-------+---------+---------+
       Total:                              18052   5864      8310   
                                                                    
    /home/thomas/ti/ti-cgt-armllvm_2.1.2.LTS/lib/armv7em-ti-none-eabihf/c/libc.a
       _printfi.c.obj                      4934    34        0      
       strtod.c.obj                        1148    200       0      
       memory.c.obj                        720     0         4      
       strtoll.c.obj                       464     0         0      
       strtoull.c.obj                      346     0         0      
       s_scalbn.c.obj                      268     0         0      
       aeabi_ctype.S.obj                   0       257       0      
       fputs.c.obj                         240     0         0      
       setvbuf.c.obj                       216     0         0      
       fflush.c.obj                        194     0         0      
       aeabi_portable.c.obj                94      69        0      
       defs.c.obj                          0       0         160    
       getdevice.c.obj                     156     0         0      
       snprintf.c.obj                      140     0         0      
       vsnprintf.c.obj                     132     0         0      
       fclose.c.obj                        116     0         0      
       fseek.c.obj                         108     0         0      
       s_frexp.c.obj                       104     0         0      
       _io_perm.c.obj                      96      0         0      
       sprintf.c.obj                       90      0         0      
       rand.c.obj                          88      0         0      
       _ltoa.c.obj                         86      0         0      
       atoi.c.obj                          72      0         0      
       autoinit.c.obj                      56      0         0      
       exit.c.obj                          52      0         0      
       fopen.c.obj                         52      0         0      
       memmov.c.obj                        40      0         0      
       memcmp.c.obj                        34      0         0      
       memccpy.c.obj                       30      0         0      
       assert.c.obj                        28      0         0      
       memcpy_t2.S.obj                     18      0         0      
       wcslen.c.obj                        16      0         0      
       memset_t2.S.obj                     14      0         0      
       strlen.c.obj                        14      0         0      
       setlocale.c.obj                     8       5         0      
       _lock.c.obj                         2       0         0      
    +--+-----------------------------------+-------+---------+---------+
       Total:                              10176   565       164    
                                                                    
    /home/thomas/ti/ti-cgt-armllvm_2.1.2.LTS/lib/armv7em-ti-none-eabihf/c/libsysbm.a
       trgmsg.c.obj                        100     0         288    
       hostrename.c.obj                    128     0         0      
       close.c.obj                         96      0         0      
       hostopen.c.obj                      88      0         8      
       hostlseek.c.obj                     88      0         0      
       hostread.c.obj                      84      0         0      
       hostwrite.c.obj                     84      0         0      
       hosttime.c.obj                      68      0         0      
       hostunlink.c.obj                    68      0         0      
       hostclose.c.obj                     60      0         0      
       lseek.c.obj                         44      0         0      
       unlink.c.obj                        44      0         0      
       write.c.obj                         44      0         0      
       time64.c.obj                        16      0         0      
       remove.c.obj                        4       0         0      
    +--+-----------------------------------+-------+---------+---------+
       Total:                              1016    0         296    
                                                                    
    /home/thomas/ti/ti-cgt-armllvm_2.1.2.LTS/lib/armv7em-ti-none-eabihf/libc++.a
       string.cpp.obj                      2020    40        0      
       charconv.cpp.obj                    570     200       0      
       stdexcept.cpp.obj                   106     0         0      
       memory.cpp.obj                      24      0         0      
    +--+-----------------------------------+-------+---------+---------+
       Total:                              2720    240       0      
                                                                    
    /home/thomas/ti/ti-cgt-armllvm_2.1.2.LTS/lib/armv7em-ti-none-eabihf/libc++abi.a
       private_typeinfo.cpp.obj            1542    220       0      
       stdlib_stdexcept.cpp.obj            132     50        0      
       cxa_virtual.cpp.obj                 12      63        0      
       stdlib_new_delete.cpp.obj           40      0         0      
       stdlib_exception.cpp.obj            2       21        0      
       stdlib_typeinfo.cpp.obj             2       21        0      
       cxa_handlers.cpp.obj                12      0         0      
       abort_message.cpp.obj               4       0         0      
    +--+-----------------------------------+-------+---------+---------+
       Total:                              1746    375       0      
                                                                    
    /home/thomas/ti/ti-cgt-armllvm_2.1.2.LTS/lib/clang/14.0.6/lib/armv7em-ti-none-eabihf/libclang_rt.builtins.a
       adddf3.S.obj                        438     0         0      
       divdf3.S.obj                        310     0         0      
       comparedf2.c.obj                    268     0         0      
       muldf3.S.obj                        252     0         0      
       udivmoddi4.S.obj                    176     0         0      
       aeabi_dcmp.S.obj                    98      0         0      
       fixdfsi.S.obj                       72      0         0      
       fixunsdfsi.S.obj                    68      0         0      
       floatsidf.S.obj                     46      0         0      
       floatunsidf.S.obj                   32      0         0      
       aeabi_memset.S.obj                  20      0         0      
       aeabi_uldivmod.S.obj                20      0         0      
       aeabi_memcpy.S.obj                  4       0         0      
       aeabi_memmove.S.obj                 4       0         0      
       aeabi_div0.c.obj                    2       0         0      
    +--+-----------------------------------+-------+---------+---------+
       Total:                              1810    0         0      
                                                                    
       Heap:                               0       0         32768  
       Stack:                              0       0         16384  
       Linker Generated:                   0       8         0      
    +--+-----------------------------------+-------+---------+---------+
       Grand Total:                        89400   33108     107674 


GLOBAL SYMBOLS: SORTED ALPHABETICALLY BY Name 

address   name                                                                                                                                                                                                                                                                                                                                                                                                                                           
-------   ----                                                                                                                                                                                                                                                                                                                                                                                                                                           
00021fb0  .ARM.exidx$$Base                                                                                                                                                                                                                                                                                                                                                                                                                               
00021fb8  .ARM.exidx$$Limit                                                                                                                                                                                                                                                                                                                                                                                                                              
00015e55  AddrTranslateP_Params_init                                                                                                                                                                                                                                                                                                                                                                                                                     
0001155d  AddrTranslateP_getLocalAddr                                                                                                                                                                                                                                                                                                                                                                                                                    
0000ebe9  AddrTranslateP_init                                                                                                                                                                                                                                                                                                                                                                                                                            
0000195b  Board_driversClose                                                                                                                                                                                                                                                                                                                                                                                                                             
00001ecd  Board_driversOpen                                                                                                                                                                                                                                                                                                                                                                                                                              
0000406b  Board_init                                                                                                                                                                                                                                                                                                                                                                                                                                     
00015f98  C$$EXIT                                                                                                                                                                                                                                                                                                                                                                                                                                        
000146e7  C$$IO$$                                                                                                                                                                                                                                                                                                                                                                                                                                        
00015e5f  CSL_secProxyGetDataAddr                                                                                                                                                                                                                                                                                                                                                                                                                        
0000474b  CacheP_wbInv                                                                                                                                                                                                                                                                                                                                                                                                                                   
00013115  ClockP_getTimeUsec                                                                                                                                                                                                                                                                                                                                                                                                                             
00002ccd  ClockP_getTimerCount                                                                                                                                                                                                                                                                                                                                                                                                                           
0000ad7d  ClockP_init                                                                                                                                                                                                                                                                                                                                                                                                                                    
00005b2f  ClockP_timerClearOverflowInt                                                                                                                                                                                                                                                                                                                                                                                                                   
00014d01  ClockP_timerTickIsr                                                                                                                                                                                                                                                                                                                                                                                                                            
00015c09  ClockP_usecToTicks                                                                                                                                                                                                                                                                                                                                                                                                                             
0001564d  DebugP_logZoneEnable                                                                                                                                                                                                                                                                                                                                                                                                                           
00015c6d  DebugP_memLogWriterInit                                                                                                                                                                                                                                                                                                                                                                                                                        
0000ec99  DebugP_memLogWriterPutChar                                                                                                                                                                                                                                                                                                                                                                                                                     
0001048d  DebugP_memTraceLogWriterPutLine                                                                                                                                                                                                                                                                                                                                                                                                                
00013291  Dpl_init                                                                                                                                                                                                                                                                                                                                                                                                                                       
0000676b  Drivers_open                                                                                                                                                                                                                                                                                                                                                                                                                                   
000004a4  FreeRTOS_errno                                                                                                                                                                                                                                                                                                                                                                                                                                 
00014095  HOSTclose                                                                                                                                                                                                                                                                                                                                                                                                                                      
00012475  HOSTlseek                                                                                                                                                                                                                                                                                                                                                                                                                                      
000124cd  HOSTopen                                                                                                                                                                                                                                                                                                                                                                                                                                       
000127e1  HOSTread                                                                                                                                                                                                                                                                                                                                                                                                                                       
00011b11  HOSTrename                                                                                                                                                                                                                                                                                                                                                                                                                                     
00013759  HOSTtime64                                                                                                                                                                                                                                                                                                                                                                                                                                     
0001379d  HOSTunlink                                                                                                                                                                                                                                                                                                                                                                                                                                     
00012835  HOSTwrite                                                                                                                                                                                                                                                                                                                                                                                                                                      
00003aa9  HwiP_Params_init                                                                                                                                                                                                                                                                                                                                                                                                                               
0000f273  HwiP_busFault_handler                                                                                                                                                                                                                                                                                                                                                                                                                          
00003a39  HwiP_clearInt                                                                                                                                                                                                                                                                                                                                                                                                                                  
00003abb  HwiP_construct                                                                                                                                                                                                                                                                                                                                                                                                                                 
0000f2a3  HwiP_debugMon_handler                                                                                                                                                                                                                                                                                                                                                                                                                          
00003b59  HwiP_destruct                                                                                                                                                                                                                                                                                                                                                                                                                                  
00003be7  HwiP_disable                                                                                                                                                                                                                                                                                                                                                                                                                                   
00003981  HwiP_disableInt                                                                                                                                                                                                                                                                                                                                                                                                                                
00003bf3  HwiP_enable                                                                                                                                                                                                                                                                                                                                                                                                                                    
00003929  HwiP_enableInt                                                                                                                                                                                                                                                                                                                                                                                                                                 
0000f253  HwiP_hardFault_handler                                                                                                                                                                                                                                                                                                                                                                                                                         
00015b9b  HwiP_inISR                                                                                                                                                                                                                                                                                                                                                                                                                                     
00003bff  HwiP_init                                                                                                                                                                                                                                                                                                                                                                                                                                      
0000f20d  HwiP_interrupt_handler                                                                                                                                                                                                                                                                                                                                                                                                                         
0000f263  HwiP_memFault_handler                                                                                                                                                                                                                                                                                                                                                                                                                          
0000f241  HwiP_nmi_handler                                                                                                                                                                                                                                                                                                                                                                                                                               
00003bd3  HwiP_post                                                                                                                                                                                                                                                                                                                                                                                                                                      
0000f293  HwiP_reserved_handler                                                                                                                                                                                                                                                                                                                                                                                                                          
00003977  HwiP_restore                                                                                                                                                                                                                                                                                                                                                                                                                                   
000039dd  HwiP_restoreInt                                                                                                                                                                                                                                                                                                                                                                                                                                
00003a5b  HwiP_setPri                                                                                                                                                                                                                                                                                                                                                                                                                                    
0000f283  HwiP_usageFault_handler                                                                                                                                                                                                                                                                                                                                                                                                                        
00015a3d  IpcNotify_Params_init                                                                                                                                                                                                                                                                                                                                                                                                                          
00015af3  IpcNotify_getConfig                                                                                                                                                                                                                                                                                                                                                                                                                            
00011d05  IpcNotify_getSelfCoreId                                                                                                                                                                                                                                                                                                                                                                                                                        
0000406d  IpcNotify_init                                                                                                                                                                                                                                                                                                                                                                                                                                 
00015b0b  IpcNotify_isCoreEnabled                                                                                                                                                                                                                                                                                                                                                                                                                        
0000dd59  IpcNotify_isr                                                                                                                                                                                                                                                                                                                                                                                                                                  
00013e65  IpcNotify_registerClient                                                                                                                                                                                                                                                                                                                                                                                                                       
0000e089  IpcNotify_sendMsg                                                                                                                                                                                                                                                                                                                                                                                                                              
00015e69  IpcNotify_sendSync                                                                                                                                                                                                                                                                                                                                                                                                                             
0001586d  IpcNotify_syncCallback                                                                                                                                                                                                                                                                                                                                                                                                                         
00014d31  Module_clockEnable                                                                                                                                                                                                                                                                                                                                                                                                                             
000142ed  Module_clockSetFrequency                                                                                                                                                                                                                                                                                                                                                                                                                       
00007fe9  MpuP_RegionAttrs_init                                                                                                                                                                                                                                                                                                                                                                                                                          
000080f9  MpuP_disable                                                                                                                                                                                                                                                                                                                                                                                                                                   
000080bf  MpuP_enable                                                                                                                                                                                                                                                                                                                                                                                                                                    
0000812f  MpuP_init                                                                                                                                                                                                                                                                                                                                                                                                                                      
0000811f  MpuP_isEnable                                                                                                                                                                                                                                                                                                                                                                                                                                  
00007ff7  MpuP_setRegion                                                                                                                                                                                                                                                                                                                                                                                                                                 
0000e8fd  Pinmux_config                                                                                                                                                                                                                                                                                                                                                                                                                                  
0001553d  Pinmux_init                                                                                                                                                                                                                                                                                                                                                                                                                                    
00015d59  PowerClock_init                                                                                                                                                                                                                                                                                                                                                                                                                                
00015cfb  RPMessage_CreateParams_init                                                                                                                                                                                                                                                                                                                                                                                                                    
00014fef  RPMessage_Params_init                                                                                                                                                                                                                                                                                                                                                                                                                          
00013161  RPMessage_allocEndPtMsg                                                                                                                                                                                                                                                                                                                                                                                                                        
00010b9b  RPMessage_construct                                                                                                                                                                                                                                                                                                                                                                                                                            
00015361  RPMessage_controlEndPtHandler                                                                                                                                                                                                                                                                                                                                                                                                                  
0000fc11  RPMessage_coreInit                                                                                                                                                                                                                                                                                                                                                                                                                             
00013ce3  RPMessage_destruct                                                                                                                                                                                                                                                                                                                                                                                                                             
000110a1  RPMessage_getEndPtMsg                                                                                                                                                                                                                                                                                                                                                                                                                          
00003145  RPMessage_getLocalEndPt                                                                                                                                                                                                                                                                                                                                                                                                                        
0000d3d9  RPMessage_init                                                                                                                                                                                                                                                                                                                                                                                                                                 
0001555f  RPMessage_isLinuxCore                                                                                                                                                                                                                                                                                                                                                                                                                          
00012d11  RPMessage_notifyCallback                                                                                                                                                                                                                                                                                                                                                                                                                       
0000a8a1  RPMessage_recv                                                                                                                                                                                                                                                                                                                                                                                                                                 
0000b8d9  RPMessage_recvHandler                                                                                                                                                                                                                                                                                                                                                                                                                          
0000c835  RPMessage_send                                                                                                                                                                                                                                                                                                                                                                                                                                 
00014325  RPMessage_vringCheckEmptyTxBuf                                                                                                                                                                                                                                                                                                                                                                                                                 
0000ff01  RPMessage_vringGetEmptyTxBuf                                                                                                                                                                                                                                                                                                                                                                                                                   
0000f2b3  RPMessage_vringGetFullRxBuf                                                                                                                                                                                                                                                                                                                                                                                                                    
00015a57  RPMessage_vringGetRxBufAddr                                                                                                                                                                                                                                                                                                                                                                                                                    
00015a71  RPMessage_vringGetTxBufAddr                                                                                                                                                                                                                                                                                                                                                                                                                    
0001593f  RPMessage_vringGetTxBufLen                                                                                                                                                                                                                                                                                                                                                                                                                     
0001230d  RPMessage_vringIsFullRxBuf                                                                                                                                                                                                                                                                                                                                                                                                                     
0000f7cb  RPMessage_vringPutEmptyRxBuf                                                                                                                                                                                                                                                                                                                                                                                                                   
00011fc1  RPMessage_vringPutFullTxBuf                                                                                                                                                                                                                                                                                                                                                                                                                    
0000ea77  RPMessage_vringReset                                                                                                                                                                                                                                                                                                                                                                                                                           
000100b9  RPMessage_vringResetInternal                                                                                                                                                                                                                                                                                                                                                                                                                   
0001595b  SOC_getCoreName                                                                                                                                                                                                                                                                                                                                                                                                                                
00010ed9  SOC_moduleClockEnable                                                                                                                                                                                                                                                                                                                                                                                                                          
0000ac49  SOC_moduleSetClockFrequency                                                                                                                                                                                                                                                                                                                                                                                                                    
00012d61  Sciclient_getContext                                                                                                                                                                                                                                                                                                                                                                                                                           
0001435d  Sciclient_getCurrentContext                                                                                                                                                                                                                                                                                                                                                                                                                    
00015bb1  Sciclient_getDevId                                                                                                                                                                                                                                                                                                                                                                                                                             
0000f9a5  Sciclient_init                                                                                                                                                                                                                                                                                                                                                                                                                                 
000109b1  Sciclient_pmGetModuleClkNumParent                                                                                                                                                                                                                                                                                                                                                                                                              
00011979  Sciclient_pmGetModuleClkParent                                                                                                                                                                                                                                                                                                                                                                                                                 
0001110f  Sciclient_pmGetModuleState                                                                                                                                                                                                                                                                                                                                                                                                                     
000121f7  Sciclient_pmModuleClkRequest                                                                                                                                                                                                                                                                                                                                                                                                                   
00011b75  Sciclient_pmModuleGetClkStatus                                                                                                                                                                                                                                                                                                                                                                                                                 
0000f869  Sciclient_pmQueryModuleClkFreq                                                                                                                                                                                                                                                                                                                                                                                                                 
000101d7  Sciclient_pmSetModuleClkFreq                                                                                                                                                                                                                                                                                                                                                                                                                   
0001201f  Sciclient_pmSetModuleClkParent                                                                                                                                                                                                                                                                                                                                                                                                                 
000137e1  Sciclient_pmSetModuleRst                                                                                                                                                                                                                                                                                                                                                                                                                       
00012a81  Sciclient_pmSetModuleState                                                                                                                                                                                                                                                                                                                                                                                                                     
000043f1  Sciclient_service                                                                                                                                                                                                                                                                                                                                                                                                                              
00010fbf  SemaphoreP_constructBinary                                                                                                                                                                                                                                                                                                                                                                                                                     
00012db1  SemaphoreP_constructMutex                                                                                                                                                                                                                                                                                                                                                                                                                      
00008883  SemaphoreP_destruct                                                                                                                                                                                                                                                                                                                                                                                                                            
000119df  SemaphoreP_pend                                                                                                                                                                                                                                                                                                                                                                                                                                
00011a45  SemaphoreP_post                                                                                                                                                                                                                                                                                                                                                                                                                                
0001588b  SysTickTimerP_Params_init                                                                                                                                                                                                                                                                                                                                                                                                                      
00015d67  SysTickTimerP_getCount                                                                                                                                                                                                                                                                                                                                                                                                                         
00015d75  SysTickTimerP_getReloadCount                                                                                                                                                                                                                                                                                                                                                                                                                   
0000be19  SysTickTimerP_setup                                                                                                                                                                                                                                                                                                                                                                                                                            
00015c7f  SysTickTimerP_start                                                                                                                                                                                                                                                                                                                                                                                                                            
0000c239  System_init                                                                                                                                                                                                                                                                                                                                                                                                                                    
00015cd9  TI_memcpy_small                                                                                                                                                                                                                                                                                                                                                                                                                                
00015df3  TI_memset_small                                                                                                                                                                                                                                                                                                                                                                                                                                
0000ed49  TaskP_loadUpdateAll                                                                                                                                                                                                                                                                                                                                                                                                                            
0003f52c  _CIOBUF_                                                                                                                                                                                                                                                                                                                                                                                                                                       
0001207d  _DebugP_assert                                                                                                                                                                                                                                                                                                                                                                                                                                 
000158a9  _DebugP_assertNoLog                                                                                                                                                                                                                                                                                                                                                                                                                            
00010d03  _DebugP_logZone                                                                                                                                                                                                                                                                                                                                                                                                                                
00015c91  _Z13freertos_mainPv                                                                                                                                                                                                                                                                                                                                                                                                                            
00012889  _Z21communication_main_m4Pv                                                                                                                                                                                                                                                                                                                                                                                                                    
00015e73  _Z7to_jsonRN8nlohmann16json_abi_v3_11_210basic_jsonINSt3__13mapENS2_6vectorENS2_12basic_stringIcNS2_11char_traitsIcEENS2_9allocatorIcEEEEbxydS8_NS0_14adl_serializerENS4_IhNS8_IhEEEEvEERK13TopicMetadata                                                                                                                                                                                                                                      
00015e7d  _Z7to_jsonRN8nlohmann16json_abi_v3_11_210basic_jsonINSt3__13mapENS2_6vectorENS2_12basic_stringIcNS2_11char_traitsIcEENS2_9allocatorIcEEEEbxydS8_NS0_14adl_serializerENS4_IhNS8_IhEEEEvEERK16ConsumerMetadata                                                                                                                                                                                                                                   
00015e87  _Z7to_jsonRN8nlohmann16json_abi_v3_11_210basic_jsonINSt3__13mapENS2_6vectorENS2_12basic_stringIcNS2_11char_traitsIcEENS2_9allocatorIcEEEEbxydS8_NS0_14adl_serializerENS4_IhNS8_IhEEEEvEERK16ProducerMetadata                                                                                                                                                                                                                                   
000098dd  _Z8consumeriiNSt3__112basic_stringIcNS_11char_traitsIcEENS_9allocatorIcEEEE                                                                                                                                                                                                                                                                                                                                                                    
00008bc9  _ZN10TopicProxy11unsubscribeE16ConsumerMetadata                                                                                                                                                                                                                                                                                                                                                                                                
00005211  _ZN10TopicProxy4pollE16ConsumerMetadata                                                                                                                                                                                                                                                                                                                                                                                                        
00015387  _ZN10TopicProxy4readE16ConsumerMetadata                                                                                                                                                                                                                                                                                                                                                                                                        
000078bf  _ZN10TopicProxy7publishE16ProducerMetadata6Record                                                                                                                                                                                                                                                                                                                                                                                              
00008d4d  _ZN10TopicProxy9subscribeE16ConsumerMetadata                                                                                                                                                                                                                                                                                                                                                                                                   
00010263  _ZN10TopicProxyC1E17CommunicationType14BrokerMetadata13TopicMetadataRK6Logger                                                                                                                                                                                                                                                                                                                                                                  
00010263  _ZN10TopicProxyC2E17CommunicationType14BrokerMetadata13TopicMetadataRK6Logger                                                                                                                                                                                                                                                                                                                                                                  
00015017  _ZN10TopicProxyD0Ev                                                                                                                                                                                                                                                                                                                                                                                                                            
000153f9  _ZN10TopicProxyD1Ev                                                                                                                                                                                                                                                                                                                                                                                                                            
000153f9  _ZN10TopicProxyD2Ev                                                                                                                                                                                                                                                                                                                                                                                                                            
0000bbfd  _ZN10__cxxabiv116__enum_type_infoD1Ev                                                                                                                                                                                                                                                                                                                                                                                                          
0000bbfd  _ZN10__cxxabiv116__enum_type_infoD2Ev                                                                                                                                                                                                                                                                                                                                                                                                          
0000bbfd  _ZN10__cxxabiv116__shim_type_infoD1Ev                                                                                                                                                                                                                                                                                                                                                                                                          
0000bbfd  _ZN10__cxxabiv116__shim_type_infoD2Ev                                                                                                                                                                                                                                                                                                                                                                                                          
0000bbfd  _ZN10__cxxabiv117__array_type_infoD1Ev                                                                                                                                                                                                                                                                                                                                                                                                         
0000bbfd  _ZN10__cxxabiv117__array_type_infoD2Ev                                                                                                                                                                                                                                                                                                                                                                                                         
00015d83  _ZN10__cxxabiv117__class_type_infoD0Ev                                                                                                                                                                                                                                                                                                                                                                                                         
0000bbfd  _ZN10__cxxabiv117__class_type_infoD1Ev                                                                                                                                                                                                                                                                                                                                                                                                         
0000bbfd  _ZN10__cxxabiv117__class_type_infoD2Ev                                                                                                                                                                                                                                                                                                                                                                                                         
0000bbfd  _ZN10__cxxabiv117__pbase_type_infoD1Ev                                                                                                                                                                                                                                                                                                                                                                                                         
0000bbfd  _ZN10__cxxabiv117__pbase_type_infoD2Ev                                                                                                                                                                                                                                                                                                                                                                                                         
0000bbfd  _ZN10__cxxabiv119__pointer_type_infoD1Ev                                                                                                                                                                                                                                                                                                                                                                                                       
0000bbfd  _ZN10__cxxabiv119__pointer_type_infoD2Ev                                                                                                                                                                                                                                                                                                                                                                                                       
0000bbfd  _ZN10__cxxabiv120__function_type_infoD1Ev                                                                                                                                                                                                                                                                                                                                                                                                      
0000bbfd  _ZN10__cxxabiv120__function_type_infoD2Ev                                                                                                                                                                                                                                                                                                                                                                                                      
00015d91  _ZN10__cxxabiv120__si_class_type_infoD0Ev                                                                                                                                                                                                                                                                                                                                                                                                      
0000bbfd  _ZN10__cxxabiv120__si_class_type_infoD1Ev                                                                                                                                                                                                                                                                                                                                                                                                      
0000bbfd  _ZN10__cxxabiv120__si_class_type_infoD2Ev                                                                                                                                                                                                                                                                                                                                                                                                      
0000bbfd  _ZN10__cxxabiv121__vmi_class_type_infoD1Ev                                                                                                                                                                                                                                                                                                                                                                                                     
0000bbfd  _ZN10__cxxabiv121__vmi_class_type_infoD2Ev                                                                                                                                                                                                                                                                                                                                                                                                     
0000bbfd  _ZN10__cxxabiv123__fundamental_type_infoD1Ev                                                                                                                                                                                                                                                                                                                                                                                                   
0000bbfd  _ZN10__cxxabiv123__fundamental_type_infoD2Ev                                                                                                                                                                                                                                                                                                                                                                                                   
0000bbfd  _ZN10__cxxabiv129__pointer_to_member_type_infoD1Ev                                                                                                                                                                                                                                                                                                                                                                                             
0000bbfd  _ZN10__cxxabiv129__pointer_to_member_type_infoD2Ev                                                                                                                                                                                                                                                                                                                                                                                             
0000fdd9  _ZN11UDPEndpoint9from_jsonERKN8nlohmann16json_abi_v3_11_210basic_jsonINSt3__13mapENS3_6vectorENS3_12basic_stringIcNS3_11char_traitsIcEENS3_9allocatorIcEEEEbxydS9_NS1_14adl_serializerENS5_IhNS9_IhEEEEvEE                                                                                                                                                                                                                                     
0001503f  _ZN11UDPEndpointC1Ev                                                                                                                                                                                                                                                                                                                                                                                                                           
0001503f  _ZN11UDPEndpointC2Ev                                                                                                                                                                                                                                                                                                                                                                                                                           
0001183d  _ZN11UDPEndpointD0Ev                                                                                                                                                                                                                                                                                                                                                                                                                           
000074f3  _ZN11UDPEndpointD1Ev                                                                                                                                                                                                                                                                                                                                                                                                                           
000074f3  _ZN11UDPEndpointD2Ev                                                                                                                                                                                                                                                                                                                                                                                                                           
000076dd  _ZN12TopicFactory12createTopicsEv                                                                                                                                                                                                                                                                                                                                                                                                              
00014ef1  _ZN12TopicFactory26retrieveClusterInformationEv                                                                                                                                                                                                                                                                                                                                                                                                
00015f21  _ZN12TopicFactory8askForIDEv                                                                                                                                                                                                                                                                                                                                                                                                                   
00014395  _ZN12TopicFactory8getTopicE13TopicMetadata                                                                                                                                                                                                                                                                                                                                                                                                     
0000dae5  _ZN12TopicFactory9findTopicE13TopicMetadata                                                                                                                                                                                                                                                                                                                                                                                                    
00011d75  _ZN12TopicFactoryC1E17CommunicationTypeRK6Logger14BrokerMetadatab                                                                                                                                                                                                                                                                                                                                                                              
00011d75  _ZN12TopicFactoryC2E17CommunicationTypeRK6Logger14BrokerMetadatab                                                                                                                                                                                                                                                                                                                                                                              
000158c7  _ZN12TopicFactoryD1Ev                                                                                                                                                                                                                                                                                                                                                                                                                          
000158c7  _ZN12TopicFactoryD2Ev                                                                                                                                                                                                                                                                                                                                                                                                                          
00005f77  _ZN13SystemManager4initEv                                                                                                                                                                                                                                                                                                                                                                                                                      
00009613  _ZN13SystemManager8askForIDEv                                                                                                                                                                                                                                                                                                                                                                                                                  
000132db  _ZN13SystemManagerC1E17CommunicationTypeRK6Logger14BrokerMetadatab                                                                                                                                                                                                                                                                                                                                                                             
000132db  _ZN13SystemManagerC2E17CommunicationTypeRK6Logger14BrokerMetadatab                                                                                                                                                                                                                                                                                                                                                                             
00014f1b  _ZN13SystemManagerD1Ev                                                                                                                                                                                                                                                                                                                                                                                                                         
00014f1b  _ZN13SystemManagerD2Ev                                                                                                                                                                                                                                                                                                                                                                                                                         
000140d1  _ZN13TopicMetadata9from_jsonERKN8nlohmann16json_abi_v3_11_210basic_jsonINSt3__13mapENS3_6vectorENS3_12basic_stringIcNS3_11char_traitsIcEENS3_9allocatorIcEEEEbxydS9_NS1_14adl_serializerENS5_IhNS9_IhEEEEvEE                                                                                                                                                                                                                                   
00015f45  _ZN13TopicMetadataC1ENSt3__112basic_stringIcNS0_11char_traitsIcEENS0_9allocatorIcEEEE                                                                                                                                                                                                                                                                                                                                                          
00015e91  _ZN13TopicMetadataC1Ev                                                                                                                                                                                                                                                                                                                                                                                                                         
00015f45  _ZN13TopicMetadataC2ENSt3__112basic_stringIcNS0_11char_traitsIcEENS0_9allocatorIcEEEE                                                                                                                                                                                                                                                                                                                                                          
00015e91  _ZN13TopicMetadataC2Ev                                                                                                                                                                                                                                                                                                                                                                                                                         
0001566d  _ZN14BrokerMetadata16addTopicMetadataE13TopicMetadata                                                                                                                                                                                                                                                                                                                                                                                          
0000676d  _ZN14BrokerMetadata9from_jsonERKN8nlohmann16json_abi_v3_11_210basic_jsonINSt3__13mapENS3_6vectorENS3_12basic_stringIcNS3_11char_traitsIcEENS3_9allocatorIcEEEEbxydS9_NS1_14adl_serializerENS5_IhNS9_IhEEEEvEE                                                                                                                                                                                                                                  
00015e01  _ZN14BrokerMetadataC1EP8Endpoint                                                                                                                                                                                                                                                                                                                                                                                                               
00015e9b  _ZN14BrokerMetadataC1Ev                                                                                                                                                                                                                                                                                                                                                                                                                        
00015e01  _ZN14BrokerMetadataC2EP8Endpoint                                                                                                                                                                                                                                                                                                                                                                                                               
00015e9b  _ZN14BrokerMetadataC2Ev                                                                                                                                                                                                                                                                                                                                                                                                                        
00010515  _ZN15ClusterMetadata17addBrokerMetadataE14BrokerMetadata                                                                                                                                                                                                                                                                                                                                                                                       
00015ee9  _ZN15ClusterMetadata18getBrokersMetadataEv                                                                                                                                                                                                                                                                                                                                                                                                     
00009051  _ZN15ClusterMetadata9from_jsonERKN8nlohmann16json_abi_v3_11_210basic_jsonINSt3__13mapENS3_6vectorENS3_12basic_stringIcNS3_11char_traitsIcEENS3_9allocatorIcEEEEbxydS9_NS1_14adl_serializerENS5_IhNS9_IhEEEEvEE                                                                                                                                                                                                                                 
00015f49  _ZN15ClusterMetadataD1Ev                                                                                                                                                                                                                                                                                                                                                                                                                       
00015f49  _ZN15ClusterMetadataD2Ev                                                                                                                                                                                                                                                                                                                                                                                                                       
0000050c  _ZN15EndpointFactory12freeEndpointE                                                                                                                                                                                                                                                                                                                                                                                                            
00014f45  _ZN15EndpointFactory14createEndpointE17CommunicationType                                                                                                                                                                                                                                                                                                                                                                                       
00012e01  _ZN15EndpointFactory15getFreeEndpointEv                                                                                                                                                                                                                                                                                                                                                                                                        
00015f27  _ZN16ConsumerMetadataC1EiP8Endpoint                                                                                                                                                                                                                                                                                                                                                                                                            
00015e0d  _ZN16ConsumerMetadataC1Ev                                                                                                                                                                                                                                                                                                                                                                                                                      
00015f27  _ZN16ConsumerMetadataC2EiP8Endpoint                                                                                                                                                                                                                                                                                                                                                                                                            
00015e0d  _ZN16ConsumerMetadataC2Ev                                                                                                                                                                                                                                                                                                                                                                                                                      
00015f4d  _ZN17RPMessageEndpoint18setServiceEndpointEt                                                                                                                                                                                                                                                                                                                                                                                                   
00012ad3  _ZN17RPMessageEndpoint9from_jsonERKN8nlohmann16json_abi_v3_11_210basic_jsonINSt3__13mapENS3_6vectorENS3_12basic_stringIcNS3_11char_traitsIcEENS3_9allocatorIcEEEEbxydS9_NS1_14adl_serializerENS5_IhNS9_IhEEEEvEE                                                                                                                                                                                                                               
00015f51  _ZN17RPMessageEndpoint9setCoreIdEj                                                                                                                                                                                                                                                                                                                                                                                                             
00015ca3  _ZN17RPMessageEndpointC1Ejt                                                                                                                                                                                                                                                                                                                                                                                                                    
00015a8b  _ZN17RPMessageEndpointC1Ev                                                                                                                                                                                                                                                                                                                                                                                                                     
00015ca3  _ZN17RPMessageEndpointC2Ejt                                                                                                                                                                                                                                                                                                                                                                                                                    
00015a8b  _ZN17RPMessageEndpointC2Ev                                                                                                                                                                                                                                                                                                                                                                                                                     
00015f55  _ZN17RPMessageEndpointD0Ev                                                                                                                                                                                                                                                                                                                                                                                                                     
00007e27  _ZN17RPMessageEndpointD1Ev                                                                                                                                                                                                                                                                                                                                                                                                                     
00007e27  _ZN17RPMessageEndpointD2Ev                                                                                                                                                                                                                                                                                                                                                                                                                     
000131ad  _ZN18CommunicationUtils7requestEP13Communication17CommunicationTypeP8EndpointPKcjPcj                                                                                                                                                                                                                                                                                                                                                           
0001568d  _ZN20CommunicationFactory19createCommunicationE17CommunicationTypeRK8EndpointRK6Logger                                                                                                                                                                                                                                                                                                                                                         
00011aab  _ZN22RPMessageCommunication4readEPcjR8Endpoint                                                                                                                                                                                                                                                                                                                                                                                                 
00010d79  _ZN22RPMessageCommunication5writeEPKcjRK8Endpoint                                                                                                                                                                                                                                                                                                                                                                                              
000107b3  _ZN22RPMessageCommunicationC1ERK17RPMessageEndpointRK6Logger                                                                                                                                                                                                                                                                                                                                                                                   
000107b3  _ZN22RPMessageCommunicationC2ERK17RPMessageEndpointRK6Logger                                                                                                                                                                                                                                                                                                                                                                                   
00014dbb  _ZN22RPMessageCommunicationD0Ev                                                                                                                                                                                                                                                                                                                                                                                                                
000153ad  _ZN22RPMessageCommunicationD1Ev                                                                                                                                                                                                                                                                                                                                                                                                                
000153ad  _ZN22RPMessageCommunicationD2Ev                                                                                                                                                                                                                                                                                                                                                                                                                
000158e5  _ZN5TopicC2E13TopicMetadataRK6Logger                                                                                                                                                                                                                                                                                                                                                                                                           
000081a7  _ZN5TopicD0Ev                                                                                                                                                                                                                                                                                                                                                                                                                                  
000156ad  _ZN5TopicD1Ev                                                                                                                                                                                                                                                                                                                                                                                                                                  
000156ad  _ZN5TopicD2Ev                                                                                                                                                                                                                                                                                                                                                                                                                                  
00015f59  _ZN6Logger8setDebugEb                                                                                                                                                                                                                                                                                                                                                                                                                          
0001410d  _ZN6Record9from_jsonERKN8nlohmann16json_abi_v3_11_210basic_jsonINSt3__13mapENS3_6vectorENS3_12basic_stringIcNS3_11char_traitsIcEENS3_9allocatorIcEEEEbxydS9_NS1_14adl_serializerENS5_IhNS9_IhEEEEvEE                                                                                                                                                                                                                                           
00015e19  _ZN6RecordC1Ev                                                                                                                                                                                                                                                                                                                                                                                                                                 
00015e19  _ZN6RecordC2Ev                                                                                                                                                                                                                                                                                                                                                                                                                                 
00014275  _ZN8Consumer4readE13TopicMetadata                                                                                                                                                                                                                                                                                                                                                                                                              
00012367  _ZN8Consumer9subscribeE13TopicMetadata                                                                                                                                                                                                                                                                                                                                                                                                         
00010833  _ZN8ConsumerC1E17CommunicationTypeRK6Logger14BrokerMetadatab                                                                                                                                                                                                                                                                                                                                                                                   
00010833  _ZN8ConsumerC2E17CommunicationTypeRK6Logger14BrokerMetadatab                                                                                                                                                                                                                                                                                                                                                                                   
00003ccd  _ZN8nlohmann16json_abi_v3_11_210basic_jsonINSt3__13mapENS2_6vectorENS2_12basic_stringIcNS2_11char_traitsIcEENS2_9allocatorIcEEEEbxydS8_NS0_14adl_serializerENS4_IhNS8_IhEEEEvE10json_value7destroyENS0_6detail7value_tE                                                                                                                                                                                                                        
000131f9  _ZN8nlohmann16json_abi_v3_11_210basic_jsonINSt3__13mapENS2_6vectorENS2_12basic_stringIcNS2_11char_traitsIcEENS2_9allocatorIcEEEEbxydS8_NS0_14adl_serializerENS4_IhNS8_IhEEEEvE10json_valueC2ENS0_6detail7value_tE                                                                                                                                                                                                                              
000156cd  _ZN8nlohmann16json_abi_v3_11_210basic_jsonINSt3__13mapENS2_6vectorENS2_12basic_stringIcNS2_11char_traitsIcEENS2_9allocatorIcEEEEbxydS8_NS0_14adl_serializerENS4_IhNS8_IhEEEEvE2atIRA5_KcLi0EEERSE_OT_                                                                                                                                                                                                                                          
0000cc25  _ZN8nlohmann16json_abi_v3_11_210basic_jsonINSt3__13mapENS2_6vectorENS2_12basic_stringIcNS2_11char_traitsIcEENS2_9allocatorIcEEEEbxydS8_NS0_14adl_serializerENS4_IhNS8_IhEEEEvE5eraseINS0_6detail9iter_implISE_EELi0EEET_SJ_                                                                                                                                                                                                                    
00010149  _ZN8nlohmann16json_abi_v3_11_210basic_jsonINSt3__13mapENS2_6vectorENS2_12basic_stringIcNS2_11char_traitsIcEENS2_9allocatorIcEEEEbxydS8_NS0_14adl_serializerENS4_IhNS8_IhEEEEvE5parseIRA1024_cEESE_OT_NS2_8functionIFbiNS0_6detail13parse_event_tERSE_EEEbb                                                                                                                                                                                     
000144ad  _ZN8nlohmann16json_abi_v3_11_210basic_jsonINSt3__13mapENS2_6vectorENS2_12basic_stringIcNS2_11char_traitsIcEENS2_9allocatorIcEEEEbxydS8_NS0_14adl_serializerENS4_IhNS8_IhEEEEvE6createINS0_27byte_container_with_subtypeISD_EEJEEEPT_DpOT0_                                                                                                                                                                                                     
00013ea3  _ZN8nlohmann16json_abi_v3_11_210basic_jsonINSt3__13mapENS2_6vectorENS2_12basic_stringIcNS2_11char_traitsIcEENS2_9allocatorIcEEEEbxydS8_NS0_14adl_serializerENS4_IhNS8_IhEEEEvE6createINS0_27byte_container_with_subtypeISD_EEJRKSH_EEEPT_DpOT0_                                                                                                                                                                                                
0001451b  _ZN8nlohmann16json_abi_v3_11_210basic_jsonINSt3__13mapENS2_6vectorENS2_12basic_stringIcNS2_11char_traitsIcEENS2_9allocatorIcEEEEbxydS8_NS0_14adl_serializerENS4_IhNS8_IhEEEEvE6createINS3_ISA_SE_NS2_4lessIvEENS8_INS2_4pairIKSA_SE_EEEEEEJEEEPT_DpOT0_                                                                                                                                                                                        
000139bd  _ZN8nlohmann16json_abi_v3_11_210basic_jsonINSt3__13mapENS2_6vectorENS2_12basic_stringIcNS2_11char_traitsIcEENS2_9allocatorIcEEEEbxydS8_NS0_14adl_serializerENS4_IhNS8_IhEEEEvE6createINS3_ISA_SE_NS2_4lessIvEENS8_INS2_4pairIKSA_SE_EEEEEEJRKSM_EEEPT_DpOT0_                                                                                                                                                                                   
000147f1  _ZN8nlohmann16json_abi_v3_11_210basic_jsonINSt3__13mapENS2_6vectorENS2_12basic_stringIcNS2_11char_traitsIcEENS2_9allocatorIcEEEEbxydS8_NS0_14adl_serializerENS4_IhNS8_IhEEEEvE6createINS4_ISE_NS8_ISE_EEEEJEEEPT_DpOT0_                                                                                                                                                                                                                        
0001454f  _ZN8nlohmann16json_abi_v3_11_210basic_jsonINSt3__13mapENS2_6vectorENS2_12basic_stringIcNS2_11char_traitsIcEENS2_9allocatorIcEEEEbxydS8_NS0_14adl_serializerENS4_IhNS8_IhEEEEvE6createINS4_ISE_NS8_ISE_EEEEJPKNS0_6detail8json_refISE_EESM_EEEPT_DpOT0_                                                                                                                                                                                         
00014821  _ZN8nlohmann16json_abi_v3_11_210basic_jsonINSt3__13mapENS2_6vectorENS2_12basic_stringIcNS2_11char_traitsIcEENS2_9allocatorIcEEEEbxydS8_NS0_14adl_serializerENS4_IhNS8_IhEEEEvE6createINS4_ISE_NS8_ISE_EEEEJRKSH_EEEPT_DpOT0_                                                                                                                                                                                                                   
00014851  _ZN8nlohmann16json_abi_v3_11_210basic_jsonINSt3__13mapENS2_6vectorENS2_12basic_stringIcNS2_11char_traitsIcEENS2_9allocatorIcEEEEbxydS8_NS0_14adl_serializerENS4_IhNS8_IhEEEEvE6createISA_JRA10_KcEEEPT_DpOT0_                                                                                                                                                                                                                                  
00014881  _ZN8nlohmann16json_abi_v3_11_210basic_jsonINSt3__13mapENS2_6vectorENS2_12basic_stringIcNS2_11char_traitsIcEENS2_9allocatorIcEEEEbxydS8_NS0_14adl_serializerENS4_IhNS8_IhEEEEvE6createISA_JRA12_KcEEEPT_DpOT0_                                                                                                                                                                                                                                  
000148b1  _ZN8nlohmann16json_abi_v3_11_210basic_jsonINSt3__13mapENS2_6vectorENS2_12basic_stringIcNS2_11char_traitsIcEENS2_9allocatorIcEEEEbxydS8_NS0_14adl_serializerENS4_IhNS8_IhEEEEvE6createISA_JRA16_KcEEEPT_DpOT0_                                                                                                                                                                                                                                  
000148e1  _ZN8nlohmann16json_abi_v3_11_210basic_jsonINSt3__13mapENS2_6vectorENS2_12basic_stringIcNS2_11char_traitsIcEENS2_9allocatorIcEEEEbxydS8_NS0_14adl_serializerENS4_IhNS8_IhEEEEvE6createISA_JRA1_KcEEEPT_DpOT0_                                                                                                                                                                                                                                   
00014911  _ZN8nlohmann16json_abi_v3_11_210basic_jsonINSt3__13mapENS2_6vectorENS2_12basic_stringIcNS2_11char_traitsIcEENS2_9allocatorIcEEEEbxydS8_NS0_14adl_serializerENS4_IhNS8_IhEEEEvE6createISA_JRA22_KcEEEPT_DpOT0_                                                                                                                                                                                                                                  
00014941  _ZN8nlohmann16json_abi_v3_11_210basic_jsonINSt3__13mapENS2_6vectorENS2_12basic_stringIcNS2_11char_traitsIcEENS2_9allocatorIcEEEEbxydS8_NS0_14adl_serializerENS4_IhNS8_IhEEEEvE6createISA_JRA3_KcEEEPT_DpOT0_                                                                                                                                                                                                                                   
00014971  _ZN8nlohmann16json_abi_v3_11_210basic_jsonINSt3__13mapENS2_6vectorENS2_12basic_stringIcNS2_11char_traitsIcEENS2_9allocatorIcEEEEbxydS8_NS0_14adl_serializerENS4_IhNS8_IhEEEEvE6createISA_JRA5_KcEEEPT_DpOT0_                                                                                                                                                                                                                                   
000149a1  _ZN8nlohmann16json_abi_v3_11_210basic_jsonINSt3__13mapENS2_6vectorENS2_12basic_stringIcNS2_11char_traitsIcEENS2_9allocatorIcEEEEbxydS8_NS0_14adl_serializerENS4_IhNS8_IhEEEEvE6createISA_JRA7_KcEEEPT_DpOT0_                                                                                                                                                                                                                                   
000149d1  _ZN8nlohmann16json_abi_v3_11_210basic_jsonINSt3__13mapENS2_6vectorENS2_12basic_stringIcNS2_11char_traitsIcEENS2_9allocatorIcEEEEbxydS8_NS0_14adl_serializerENS4_IhNS8_IhEEEEvE6createISA_JRA8_KcEEEPT_DpOT0_                                                                                                                                                                                                                                   
00014a01  _ZN8nlohmann16json_abi_v3_11_210basic_jsonINSt3__13mapENS2_6vectorENS2_12basic_stringIcNS2_11char_traitsIcEENS2_9allocatorIcEEEEbxydS8_NS0_14adl_serializerENS4_IhNS8_IhEEEEvE6createISA_JRA9_KcEEEPT_DpOT0_                                                                                                                                                                                                                                   
00014a31  _ZN8nlohmann16json_abi_v3_11_210basic_jsonINSt3__13mapENS2_6vectorENS2_12basic_stringIcNS2_11char_traitsIcEENS2_9allocatorIcEEEEbxydS8_NS0_14adl_serializerENS4_IhNS8_IhEEEEvE6createISA_JRKSA_EEEPT_DpOT0_                                                                                                                                                                                                                                    
000126dd  _ZN8nlohmann16json_abi_v3_11_210basic_jsonINSt3__13mapENS2_6vectorENS2_12basic_stringIcNS2_11char_traitsIcEENS2_9allocatorIcEEEEbxydS8_NS0_14adl_serializerENS4_IhNS8_IhEEEEvE6parserINS0_6detail22iterator_input_adapterIPcEEEENSG_6parserISE_T_EESL_NS2_8functionIFbiNSG_13parse_event_tERSE_EEEbb                                                                                                                                           
000113ad  _ZN8nlohmann16json_abi_v3_11_210basic_jsonINSt3__13mapENS2_6vectorENS2_12basic_stringIcNS2_11char_traitsIcEENS2_9allocatorIcEEEEbxydS8_NS0_14adl_serializerENS4_IhNS8_IhEEEEvEC2ERKSE_                                                                                                                                                                                                                                                         
0000cd21  _ZN8nlohmann16json_abi_v3_11_210basic_jsonINSt3__13mapENS2_6vectorENS2_12basic_stringIcNS2_11char_traitsIcEENS2_9allocatorIcEEEEbxydS8_NS0_14adl_serializerENS4_IhNS8_IhEEEEvEC2ESt16initializer_listINS0_6detail8json_refISE_EEEbNSG_7value_tE                                                                                                                                                                                                
00012ef1  _ZN8nlohmann16json_abi_v3_11_210basic_jsonINSt3__13mapENS2_6vectorENS2_12basic_stringIcNS2_11char_traitsIcEENS2_9allocatorIcEEEEbxydS8_NS0_14adl_serializerENS4_IhNS8_IhEEEEvEC2INS0_6detail8json_refISE_EELi0EEERKT_                                                                                                                                                                                                                          
00013ee1  _ZN8nlohmann16json_abi_v3_11_210basic_jsonINSt3__13mapENS2_6vectorENS2_12basic_stringIcNS2_11char_traitsIcEENS2_9allocatorIcEEEEbxydS8_NS0_14adl_serializerENS4_IhNS8_IhEEEEvEC2IRKiiLi0EEEOT_                                                                                                                                                                                                                                                 
00014149  _ZN8nlohmann16json_abi_v3_11_210basic_jsonINSt3__13mapENS2_6vectorENS2_12basic_stringIcNS2_11char_traitsIcEENS2_9allocatorIcEEEEbxydS8_NS0_14adl_serializerENS4_IhNS8_IhEEEEvEC2IRKjjLi0EEEOT_                                                                                                                                                                                                                                                 
00014185  _ZN8nlohmann16json_abi_v3_11_210basic_jsonINSt3__13mapENS2_6vectorENS2_12basic_stringIcNS2_11char_traitsIcEENS2_9allocatorIcEEEEbxydS8_NS0_14adl_serializerENS4_IhNS8_IhEEEEvEC2IRKttLi0EEEOT_                                                                                                                                                                                                                                                 
000141c1  _ZN8nlohmann16json_abi_v3_11_210basic_jsonINSt3__13mapENS2_6vectorENS2_12basic_stringIcNS2_11char_traitsIcEENS2_9allocatorIcEEEEbxydS8_NS0_14adl_serializerENS4_IhNS8_IhEEEEvEC2IRbbLi0EEEOT_                                                                                                                                                                                                                                                  
000139ff  _ZN8nlohmann16json_abi_v3_11_210basic_jsonINSt3__13mapENS2_6vectorENS2_12basic_stringIcNS2_11char_traitsIcEENS2_9allocatorIcEEEEbxydS8_NS0_14adl_serializerENS4_IhNS8_IhEEEEvEC2IRddLi0EEEOT_                                                                                                                                                                                                                                                  
00013f1f  _ZN8nlohmann16json_abi_v3_11_210basic_jsonINSt3__13mapENS2_6vectorENS2_12basic_stringIcNS2_11char_traitsIcEENS2_9allocatorIcEEEEbxydS8_NS0_14adl_serializerENS4_IhNS8_IhEEEEvEC2IRxxLi0EEEOT_                                                                                                                                                                                                                                                  
00013f5d  _ZN8nlohmann16json_abi_v3_11_210basic_jsonINSt3__13mapENS2_6vectorENS2_12basic_stringIcNS2_11char_traitsIcEENS2_9allocatorIcEEEEbxydS8_NS0_14adl_serializerENS4_IhNS8_IhEEEEvEC2IRyyLi0EEEOT_                                                                                                                                                                                                                                                  
0001478d  _ZN8nlohmann16json_abi_v3_11_210basic_jsonINSt3__13mapENS2_6vectorENS2_12basic_stringIcNS2_11char_traitsIcEENS2_9allocatorIcEEEEbxydS8_NS0_14adl_serializerENS4_IhNS8_IhEEEEvEaSESE_                                                                                                                                                                                                                                                           
00013825  _ZN8nlohmann16json_abi_v3_11_210basic_jsonINSt3__13mapENS2_6vectorENS2_12basic_stringIcNS2_11char_traitsIcEENS2_9allocatorIcEEEEbxydS8_NS0_14adl_serializerENS4_IhNS8_IhEEEEvEixESA_                                                                                                                                                                                                                                                           
00014de7  _ZN8nlohmann16json_abi_v3_11_210basic_jsonINSt3__13mapENS2_6vectorENS2_12basic_stringIcNS2_11char_traitsIcEENS2_9allocatorIcEEEEbxydS8_NS0_14adl_serializerENS4_IhNS8_IhEEEEvEixIKcEERSE_PT_                                                                                                                                                                                                                                                   
00015c1d  _ZN8nlohmann16json_abi_v3_11_214adl_serializerINSt3__112basic_stringIcNS2_11char_traitsIcEENS2_9allocatorIcEEEEvE9from_jsonIRKNS0_10basic_jsonINS2_3mapENS2_6vectorES8_bxydS6_S1_NSD_IhNS6_IhEEEEvEES8_EEDTcmclL_ZNS0_12_GLOBAL__N_19from_jsonEEclsr3stdE7forwardIT_Efp_Efp0_Ecvv_EEOSK_RT0_                                                                                                                                                   
00015977  _ZN8nlohmann16json_abi_v3_11_26detail10lexer_baseINS0_10basic_jsonINSt3__13mapENS4_6vectorENS4_12basic_stringIcNS4_11char_traitsIcEENS4_9allocatorIcEEEEbxydSA_NS0_14adl_serializerENS6_IhNSA_IhEEEEvEEE15token_type_nameENSH_10token_typeE                                                                                                                                                                                                    
0000edf9  _ZN8nlohmann16json_abi_v3_11_26detail10serializerINS0_10basic_jsonINSt3__13mapENS4_6vectorENS4_12basic_stringIcNS4_11char_traitsIcEENS4_9allocatorIcEEEEbxydSA_NS0_14adl_serializerENS6_IhNSA_IhEEEEvEEE10dump_floatEd                                                                                                                                                                                                                         
00004cc1  _ZN8nlohmann16json_abi_v3_11_26detail10serializerINS0_10basic_jsonINSt3__13mapENS4_6vectorENS4_12basic_stringIcNS4_11char_traitsIcEENS4_9allocatorIcEEEEbxydSA_NS0_14adl_serializerENS6_IhNSA_IhEEEEvEEE12dump_escapedERKSC_b                                                                                                                                                                                                                  
00010933  _ZN8nlohmann16json_abi_v3_11_26detail10serializerINS0_10basic_jsonINSt3__13mapENS4_6vectorENS4_12basic_stringIcNS4_11char_traitsIcEENS4_9allocatorIcEEEEbxydSA_NS0_14adl_serializerENS6_IhNSA_IhEEEEvEEE12dump_integerIhLi0EEEvT_                                                                                                                                                                                                              
00006b5d  _ZN8nlohmann16json_abi_v3_11_26detail10serializerINS0_10basic_jsonINSt3__13mapENS4_6vectorENS4_12basic_stringIcNS4_11char_traitsIcEENS4_9allocatorIcEEEEbxydSA_NS0_14adl_serializerENS6_IhNSA_IhEEEEvEEE12dump_integerIxLi0EEEvT_                                                                                                                                                                                                              
00009cf1  _ZN8nlohmann16json_abi_v3_11_26detail10serializerINS0_10basic_jsonINSt3__13mapENS4_6vectorENS4_12basic_stringIcNS4_11char_traitsIcEENS4_9allocatorIcEEEEbxydSA_NS0_14adl_serializerENS6_IhNSA_IhEEEEvEEE12dump_integerIyLi0EEEvT_                                                                                                                                                                                                              
00000bd5  _ZN8nlohmann16json_abi_v3_11_26detail10serializerINS0_10basic_jsonINSt3__13mapENS4_6vectorENS4_12basic_stringIcNS4_11char_traitsIcEENS4_9allocatorIcEEEEbxydSA_NS0_14adl_serializerENS6_IhNSA_IhEEEEvEEE4dumpERKSG_bbjj                                                                                                                                                                                                                        
000128dd  _ZN8nlohmann16json_abi_v3_11_26detail10serializerINS0_10basic_jsonINSt3__13mapENS4_6vectorENS4_12basic_stringIcNS4_11char_traitsIcEENS4_9allocatorIcEEEEbxydSA_NS0_14adl_serializerENS6_IhNSA_IhEEEEvEEE6decodeERhRjh                                                                                                                                                                                                                          
000102ed  _ZN8nlohmann16json_abi_v3_11_26detail10serializerINS0_10basic_jsonINSt3__13mapENS4_6vectorENS4_12basic_stringIcNS4_11char_traitsIcEENS4_9allocatorIcEEEEbxydSA_NS0_14adl_serializerENS6_IhNSA_IhEEEEvEEEC2ENS4_10shared_ptrINS1_23output_adapter_protocolIcEEEEcNS1_15error_handler_tE                                                                                                                                                         
00015903  _ZN8nlohmann16json_abi_v3_11_26detail10serializerINS0_10basic_jsonINSt3__13mapENS4_6vectorENS4_12basic_stringIcNS4_11char_traitsIcEENS4_9allocatorIcEEEEbxydSA_NS0_14adl_serializerENS6_IhNSA_IhEEEEvEEED2Ev                                                                                                                                                                                                                                   
00012525  _ZN8nlohmann16json_abi_v3_11_26detail11parse_error15position_stringERKNS1_10position_tE                                                                                                                                                                                                                                                                                                                                                        
0000d5b5  _ZN8nlohmann16json_abi_v3_11_26detail11parse_error6createIDnLi0EEES2_iRKNS1_10position_tERKNSt3__112basic_stringIcNS7_11char_traitsIcEENS7_9allocatorIcEEEET_                                                                                                                                                                                                                                                                                  
00015067  _ZN8nlohmann16json_abi_v3_11_26detail11parse_errorD0Ev                                                                                                                                                                                                                                                                                                                                                                                         
0000b103  _ZN8nlohmann16json_abi_v3_11_26detail12out_of_range6createIDnLi0EEES2_iRKNSt3__112basic_stringIcNS4_11char_traitsIcEENS4_9allocatorIcEEEET_                                                                                                                                                                                                                                                                                                    
0001508f  _ZN8nlohmann16json_abi_v3_11_26detail12out_of_rangeD0Ev                                                                                                                                                                                                                                                                                                                                                                                        
000353ee  _ZN8nlohmann16json_abi_v3_11_26detail12static_constINS1_12from_json_fnEE5valueE                                                                                                                                                                                                                                                                                                                                                                
00012b25  _ZN8nlohmann16json_abi_v3_11_26detail19json_sax_dom_parserINS0_10basic_jsonINSt3__13mapENS4_6vectorENS4_12basic_stringIcNS4_11char_traitsIcEENS4_9allocatorIcEEEEbxydSA_NS0_14adl_serializerENS6_IhNSA_IhEEEEvEEE10end_objectEv                                                                                                                                                                                                                
0000da11  _ZN8nlohmann16json_abi_v3_11_26detail19json_sax_dom_parserINS0_10basic_jsonINSt3__13mapENS4_6vectorENS4_12basic_stringIcNS4_11char_traitsIcEENS4_9allocatorIcEEEEbxydSA_NS0_14adl_serializerENS6_IhNSA_IhEEEEvEEE11start_arrayEj                                                                                                                                                                                                               
0000bf21  _ZN8nlohmann16json_abi_v3_11_26detail19json_sax_dom_parserINS0_10basic_jsonINSt3__13mapENS4_6vectorENS4_12basic_stringIcNS4_11char_traitsIcEENS4_9allocatorIcEEEEbxydSA_NS0_14adl_serializerENS6_IhNSA_IhEEEEvEEE12handle_valueIDnEEPSG_OT_                                                                                                                                                                                                    
0000c339  _ZN8nlohmann16json_abi_v3_11_26detail19json_sax_dom_parserINS0_10basic_jsonINSt3__13mapENS4_6vectorENS4_12basic_stringIcNS4_11char_traitsIcEENS4_9allocatorIcEEEEbxydSA_NS0_14adl_serializerENS6_IhNSA_IhEEEEvEEE12handle_valueINS1_7value_tEEEPSG_OT_                                                                                                                                                                                         
0000b9e5  _ZN8nlohmann16json_abi_v3_11_26detail19json_sax_dom_parserINS0_10basic_jsonINSt3__13mapENS4_6vectorENS4_12basic_stringIcNS4_11char_traitsIcEENS4_9allocatorIcEEEEbxydSA_NS0_14adl_serializerENS6_IhNSA_IhEEEEvEEE12handle_valueIRSC_EEPSG_OT_                                                                                                                                                                                                  
00009f9b  _ZN8nlohmann16json_abi_v3_11_26detail19json_sax_dom_parserINS0_10basic_jsonINSt3__13mapENS4_6vectorENS4_12basic_stringIcNS4_11char_traitsIcEENS4_9allocatorIcEEEEbxydSA_NS0_14adl_serializerENS6_IhNSA_IhEEEEvEEE12handle_valueIRbEEPSG_OT_                                                                                                                                                                                                    
0000a0eb  _ZN8nlohmann16json_abi_v3_11_26detail19json_sax_dom_parserINS0_10basic_jsonINSt3__13mapENS4_6vectorENS4_12basic_stringIcNS4_11char_traitsIcEENS4_9allocatorIcEEEEbxydSA_NS0_14adl_serializerENS6_IhNSA_IhEEEEvEEE12handle_valueIRdEEPSG_OT_                                                                                                                                                                                                    
0000a23b  _ZN8nlohmann16json_abi_v3_11_26detail19json_sax_dom_parserINS0_10basic_jsonINSt3__13mapENS4_6vectorENS4_12basic_stringIcNS4_11char_traitsIcEENS4_9allocatorIcEEEEbxydSA_NS0_14adl_serializerENS6_IhNSA_IhEEEEvEEE12handle_valueIRxEEPSG_OT_                                                                                                                                                                                                    
0000a38b  _ZN8nlohmann16json_abi_v3_11_26detail19json_sax_dom_parserINS0_10basic_jsonINSt3__13mapENS4_6vectorENS4_12basic_stringIcNS4_11char_traitsIcEENS4_9allocatorIcEEEEbxydSA_NS0_14adl_serializerENS6_IhNSA_IhEEEEvEEE12handle_valueIRyEEPSG_OT_                                                                                                                                                                                                    
0000dbb7  _ZN8nlohmann16json_abi_v3_11_26detail19json_sax_dom_parserINS0_10basic_jsonINSt3__13mapENS4_6vectorENS4_12basic_stringIcNS4_11char_traitsIcEENS4_9allocatorIcEEEEbxydSA_NS0_14adl_serializerENS6_IhNSA_IhEEEEvEEE12start_objectEj                                                                                                                                                                                                              
000108b3  _ZN8nlohmann16json_abi_v3_11_26detail19json_sax_dom_parserINS0_10basic_jsonINSt3__13mapENS4_6vectorENS4_12basic_stringIcNS4_11char_traitsIcEENS4_9allocatorIcEEEEbxydSA_NS0_14adl_serializerENS6_IhNSA_IhEEEEvEEE3keyERSC_                                                                                                                                                                                                                     
00012b77  _ZN8nlohmann16json_abi_v3_11_26detail19json_sax_dom_parserINS0_10basic_jsonINSt3__13mapENS4_6vectorENS4_12basic_stringIcNS4_11char_traitsIcEENS4_9allocatorIcEEEEbxydSA_NS0_14adl_serializerENS6_IhNSA_IhEEEEvEEE9end_arrayEv                                                                                                                                                                                                                  
000150b7  _ZN8nlohmann16json_abi_v3_11_26detail20external_constructorILNS1_7value_tE3EE9constructINS0_10basic_jsonINSt3__13mapENS7_6vectorENS7_12basic_stringIcNS7_11char_traitsIcEENS7_9allocatorIcEEEEbxydSD_NS0_14adl_serializerENS9_IhNSD_IhEEEEvEEA10_cLi0EEEvRT_RKT0_                                                                                                                                                                              
000150df  _ZN8nlohmann16json_abi_v3_11_26detail20external_constructorILNS1_7value_tE3EE9constructINS0_10basic_jsonINSt3__13mapENS7_6vectorENS7_12basic_stringIcNS7_11char_traitsIcEENS7_9allocatorIcEEEEbxydSD_NS0_14adl_serializerENS9_IhNSD_IhEEEEvEEA12_cLi0EEEvRT_RKT0_                                                                                                                                                                              
00015107  _ZN8nlohmann16json_abi_v3_11_26detail20external_constructorILNS1_7value_tE3EE9constructINS0_10basic_jsonINSt3__13mapENS7_6vectorENS7_12basic_stringIcNS7_11char_traitsIcEENS7_9allocatorIcEEEEbxydSD_NS0_14adl_serializerENS9_IhNSD_IhEEEEvEEA16_cLi0EEEvRT_RKT0_                                                                                                                                                                              
0001512f  _ZN8nlohmann16json_abi_v3_11_26detail20external_constructorILNS1_7value_tE3EE9constructINS0_10basic_jsonINSt3__13mapENS7_6vectorENS7_12basic_stringIcNS7_11char_traitsIcEENS7_9allocatorIcEEEEbxydSD_NS0_14adl_serializerENS9_IhNSD_IhEEEEvEEA22_cLi0EEEvRT_RKT0_                                                                                                                                                                              
00015157  _ZN8nlohmann16json_abi_v3_11_26detail20external_constructorILNS1_7value_tE3EE9constructINS0_10basic_jsonINSt3__13mapENS7_6vectorENS7_12basic_stringIcNS7_11char_traitsIcEENS7_9allocatorIcEEEEbxydSD_NS0_14adl_serializerENS9_IhNSD_IhEEEEvEEA3_cLi0EEEvRT_RKT0_                                                                                                                                                                               
0001517f  _ZN8nlohmann16json_abi_v3_11_26detail20external_constructorILNS1_7value_tE3EE9constructINS0_10basic_jsonINSt3__13mapENS7_6vectorENS7_12basic_stringIcNS7_11char_traitsIcEENS7_9allocatorIcEEEEbxydSD_NS0_14adl_serializerENS9_IhNSD_IhEEEEvEEA5_cLi0EEEvRT_RKT0_                                                                                                                                                                               
000151a7  _ZN8nlohmann16json_abi_v3_11_26detail20external_constructorILNS1_7value_tE3EE9constructINS0_10basic_jsonINSt3__13mapENS7_6vectorENS7_12basic_stringIcNS7_11char_traitsIcEENS7_9allocatorIcEEEEbxydSD_NS0_14adl_serializerENS9_IhNSD_IhEEEEvEEA7_cLi0EEEvRT_RKT0_                                                                                                                                                                               
000151cf  _ZN8nlohmann16json_abi_v3_11_26detail20external_constructorILNS1_7value_tE3EE9constructINS0_10basic_jsonINSt3__13mapENS7_6vectorENS7_12basic_stringIcNS7_11char_traitsIcEENS7_9allocatorIcEEEEbxydSD_NS0_14adl_serializerENS9_IhNSD_IhEEEEvEEA8_cLi0EEEvRT_RKT0_                                                                                                                                                                               
000151f7  _ZN8nlohmann16json_abi_v3_11_26detail20external_constructorILNS1_7value_tE3EE9constructINS0_10basic_jsonINSt3__13mapENS7_6vectorENS7_12basic_stringIcNS7_11char_traitsIcEENS7_9allocatorIcEEEEbxydSD_NS0_14adl_serializerENS9_IhNSD_IhEEEEvEEA9_cLi0EEEvRT_RKT0_                                                                                                                                                                               
0001521f  _ZN8nlohmann16json_abi_v3_11_26detail20external_constructorILNS1_7value_tE3EE9constructINS0_10basic_jsonINSt3__13mapENS7_6vectorENS7_12basic_stringIcNS7_11char_traitsIcEENS7_9allocatorIcEEEEbxydSD_NS0_14adl_serializerENS9_IhNSD_IhEEEEvEEEEvRT_RKNSK_8string_tE                                                                                                                                                                            
00015f2d  _ZN8nlohmann16json_abi_v3_11_26detail21output_string_adapterIcNSt3__112basic_stringIcNS3_11char_traitsIcEENS3_9allocatorIcEEEEE15write_characterEc                                                                                                                                                                                                                                                                                             
00015f33  _ZN8nlohmann16json_abi_v3_11_26detail21output_string_adapterIcNSt3__112basic_stringIcNS3_11char_traitsIcEENS3_9allocatorIcEEEEE16write_charactersEPKcj                                                                                                                                                                                                                                                                                         
00015f5d  _ZN8nlohmann16json_abi_v3_11_26detail21output_string_adapterIcNSt3__112basic_stringIcNS3_11char_traitsIcEENS3_9allocatorIcEEEEED0Ev                                                                                                                                                                                                                                                                                                            
00008363  _ZN8nlohmann16json_abi_v3_11_26detail23output_adapter_protocolIcED2Ev                                                                                                                                                                                                                                                                                                                                                                          
000091c9  _ZN8nlohmann16json_abi_v3_11_26detail28json_sax_dom_callback_parserINS0_10basic_jsonINSt3__13mapENS4_6vectorENS4_12basic_stringIcNS4_11char_traitsIcEENS4_9allocatorIcEEEEbxydSA_NS0_14adl_serializerENS6_IhNSA_IhEEEEvEEE10end_objectEv                                                                                                                                                                                                       
0000c539  _ZN8nlohmann16json_abi_v3_11_26detail28json_sax_dom_callback_parserINS0_10basic_jsonINSt3__13mapENS4_6vectorENS4_12basic_stringIcNS4_11char_traitsIcEENS4_9allocatorIcEEEEbxydSA_NS0_14adl_serializerENS6_IhNSA_IhEEEEvEEE11start_arrayEj                                                                                                                                                                                                      
00006571  _ZN8nlohmann16json_abi_v3_11_26detail28json_sax_dom_callback_parserINS0_10basic_jsonINSt3__13mapENS4_6vectorENS4_12basic_stringIcNS4_11char_traitsIcEENS4_9allocatorIcEEEEbxydSA_NS0_14adl_serializerENS6_IhNSA_IhEEEEvEEE12handle_valueIDnEENS4_4pairIbPSG_EEOT_b                                                                                                                                                                             
00006965  _ZN8nlohmann16json_abi_v3_11_26detail28json_sax_dom_callback_parserINS0_10basic_jsonINSt3__13mapENS4_6vectorENS4_12basic_stringIcNS4_11char_traitsIcEENS4_9allocatorIcEEEEbxydSA_NS0_14adl_serializerENS6_IhNSA_IhEEEEvEEE12handle_valueINS1_7value_tEEENS4_4pairIbPSG_EEOT_b                                                                                                                                                                  
00006179  _ZN8nlohmann16json_abi_v3_11_26detail28json_sax_dom_callback_parserINS0_10basic_jsonINSt3__13mapENS4_6vectorENS4_12basic_stringIcNS4_11char_traitsIcEENS4_9allocatorIcEEEEbxydSA_NS0_14adl_serializerENS6_IhNSA_IhEEEEvEEE12handle_valueIRSC_EENS4_4pairIbPSG_EEOT_b                                                                                                                                                                           
00006d4b  _ZN8nlohmann16json_abi_v3_11_26detail28json_sax_dom_callback_parserINS0_10basic_jsonINSt3__13mapENS4_6vectorENS4_12basic_stringIcNS4_11char_traitsIcEENS4_9allocatorIcEEEEbxydSA_NS0_14adl_serializerENS6_IhNSA_IhEEEEvEEE12handle_valueIRbEENS4_4pairIbPSG_EEOT_b                                                                                                                                                                             
00006f35  _ZN8nlohmann16json_abi_v3_11_26detail28json_sax_dom_callback_parserINS0_10basic_jsonINSt3__13mapENS4_6vectorENS4_12basic_stringIcNS4_11char_traitsIcEENS4_9allocatorIcEEEEbxydSA_NS0_14adl_serializerENS6_IhNSA_IhEEEEvEEE12handle_valueIRdEENS4_4pairIbPSG_EEOT_b                                                                                                                                                                             
0000711f  _ZN8nlohmann16json_abi_v3_11_26detail28json_sax_dom_callback_parserINS0_10basic_jsonINSt3__13mapENS4_6vectorENS4_12basic_stringIcNS4_11char_traitsIcEENS4_9allocatorIcEEEEbxydSA_NS0_14adl_serializerENS6_IhNSA_IhEEEEvEEE12handle_valueIRxEENS4_4pairIbPSG_EEOT_b                                                                                                                                                                             
00007309  _ZN8nlohmann16json_abi_v3_11_26detail28json_sax_dom_callback_parserINS0_10basic_jsonINSt3__13mapENS4_6vectorENS4_12basic_stringIcNS4_11char_traitsIcEENS4_9allocatorIcEEEEbxydSA_NS0_14adl_serializerENS6_IhNSA_IhEEEEvEEE12handle_valueIRyEENS4_4pairIbPSG_EEOT_b                                                                                                                                                                             
0000c931  _ZN8nlohmann16json_abi_v3_11_26detail28json_sax_dom_callback_parserINS0_10basic_jsonINSt3__13mapENS4_6vectorENS4_12basic_stringIcNS4_11char_traitsIcEENS4_9allocatorIcEEEEbxydSA_NS0_14adl_serializerENS6_IhNSA_IhEEEEvEEE12start_objectEj                                                                                                                                                                                                     
0000e77d  _ZN8nlohmann16json_abi_v3_11_26detail28json_sax_dom_callback_parserINS0_10basic_jsonINSt3__13mapENS4_6vectorENS4_12basic_stringIcNS4_11char_traitsIcEENS4_9allocatorIcEEEEbxydSA_NS0_14adl_serializerENS6_IhNSA_IhEEEEvEEE3keyERSC_                                                                                                                                                                                                            
0000e535  _ZN8nlohmann16json_abi_v3_11_26detail28json_sax_dom_callback_parserINS0_10basic_jsonINSt3__13mapENS4_6vectorENS4_12basic_stringIcNS4_11char_traitsIcEENS4_9allocatorIcEEEEbxydSA_NS0_14adl_serializerENS6_IhNSA_IhEEEEvEEE9end_arrayEv                                                                                                                                                                                                         
00012931  _ZN8nlohmann16json_abi_v3_11_26detail28json_sax_dom_callback_parserINS0_10basic_jsonINSt3__13mapENS4_6vectorENS4_12basic_stringIcNS4_11char_traitsIcEENS4_9allocatorIcEEEEbxydSA_NS0_14adl_serializerENS6_IhNSA_IhEEEEvEEEC2ERSG_NS4_8functionIFbiNS1_13parse_event_tESI_EEEb                                                                                                                                                                  
00012f3f  _ZN8nlohmann16json_abi_v3_11_26detail28json_sax_dom_callback_parserINS0_10basic_jsonINSt3__13mapENS4_6vectorENS4_12basic_stringIcNS4_11char_traitsIcEENS4_9allocatorIcEEEEbxydSA_NS0_14adl_serializerENS6_IhNSA_IhEEEEvEEED2Ev                                                                                                                                                                                                                 
0000474d  _ZN8nlohmann16json_abi_v3_11_26detail5lexerINS0_10basic_jsonINSt3__13mapENS4_6vectorENS4_12basic_stringIcNS4_11char_traitsIcEENS4_9allocatorIcEEEEbxydSA_NS0_14adl_serializerENS6_IhNSA_IhEEEEvEENS1_22iterator_input_adapterIPcEEE11scan_numberEv                                                                                                                                                                                             
000013b5  _ZN8nlohmann16json_abi_v3_11_26detail5lexerINS0_10basic_jsonINSt3__13mapENS4_6vectorENS4_12basic_stringIcNS4_11char_traitsIcEENS4_9allocatorIcEEEEbxydSA_NS0_14adl_serializerENS6_IhNSA_IhEEEEvEENS1_22iterator_input_adapterIPcEEE11scan_stringEv                                                                                                                                                                                             
0001117d  _ZN8nlohmann16json_abi_v3_11_26detail5lexerINS0_10basic_jsonINSt3__13mapENS4_6vectorENS4_12basic_stringIcNS4_11char_traitsIcEENS4_9allocatorIcEEEEbxydSA_NS0_14adl_serializerENS6_IhNSA_IhEEEEvEENS1_22iterator_input_adapterIPcEEE12scan_commentEv                                                                                                                                                                                            
000120dd  _ZN8nlohmann16json_abi_v3_11_26detail5lexerINS0_10basic_jsonINSt3__13mapENS4_6vectorENS4_12basic_stringIcNS4_11char_traitsIcEENS4_9allocatorIcEEEEbxydSA_NS0_14adl_serializerENS6_IhNSA_IhEEEEvEENS1_22iterator_input_adapterIPcEEE12scan_literalEPKcjNS1_10lexer_baseISG_E10token_typeE                                                                                                                                                       
0000f5e9  _ZN8nlohmann16json_abi_v3_11_26detail5lexerINS0_10basic_jsonINSt3__13mapENS4_6vectorENS4_12basic_stringIcNS4_11char_traitsIcEENS4_9allocatorIcEEEEbxydSA_NS0_14adl_serializerENS6_IhNSA_IhEEEEvEENS1_22iterator_input_adapterIPcEEE13get_codepointEv                                                                                                                                                                                           
00014d5f  _ZN8nlohmann16json_abi_v3_11_26detail5lexerINS0_10basic_jsonINSt3__13mapENS4_6vectorENS4_12basic_stringIcNS4_11char_traitsIcEENS4_9allocatorIcEEEEbxydSA_NS0_14adl_serializerENS6_IhNSA_IhEEEEvEENS1_22iterator_input_adapterIPcEEE17get_decimal_pointEv                                                                                                                                                                                       
00010a2d  _ZN8nlohmann16json_abi_v3_11_26detail5lexerINS0_10basic_jsonINSt3__13mapENS4_6vectorENS4_12basic_stringIcNS4_11char_traitsIcEENS4_9allocatorIcEEEEbxydSA_NS0_14adl_serializerENS6_IhNSA_IhEEEEvEENS1_22iterator_input_adapterIPcEEE18next_byte_in_rangeESt16initializer_listIiE                                                                                                                                                                
0000e2e7  _ZN8nlohmann16json_abi_v3_11_26detail5lexerINS0_10basic_jsonINSt3__13mapENS4_6vectorENS4_12basic_stringIcNS4_11char_traitsIcEENS4_9allocatorIcEEEEbxydSA_NS0_14adl_serializerENS6_IhNSA_IhEEEEvEENS1_22iterator_input_adapterIPcEEE3getEv                                                                                                                                                                                                      
00009a41  _ZN8nlohmann16json_abi_v3_11_26detail5lexerINS0_10basic_jsonINSt3__13mapENS4_6vectorENS4_12basic_stringIcNS4_11char_traitsIcEENS4_9allocatorIcEEEEbxydSA_NS0_14adl_serializerENS6_IhNSA_IhEEEEvEENS1_22iterator_input_adapterIPcEEE4scanEv                                                                                                                                                                                                     
0001169b  _ZN8nlohmann16json_abi_v3_11_26detail5lexerINS0_10basic_jsonINSt3__13mapENS4_6vectorENS4_12basic_stringIcNS4_11char_traitsIcEENS4_9allocatorIcEEEEbxydSA_NS0_14adl_serializerENS6_IhNSA_IhEEEEvEENS1_22iterator_input_adapterIPcEEE5resetEv                                                                                                                                                                                                    
00012f8d  _ZN8nlohmann16json_abi_v3_11_26detail5lexerINS0_10basic_jsonINSt3__13mapENS4_6vectorENS4_12basic_stringIcNS4_11char_traitsIcEENS4_9allocatorIcEEEEbxydSA_NS0_14adl_serializerENS6_IhNSA_IhEEEEvEENS1_22iterator_input_adapterIPcEEE5ungetEv                                                                                                                                                                                                    
00014583  _ZN8nlohmann16json_abi_v3_11_26detail5lexerINS0_10basic_jsonINSt3__13mapENS4_6vectorENS4_12basic_stringIcNS4_11char_traitsIcEENS4_9allocatorIcEEEEbxydSA_NS0_14adl_serializerENS6_IhNSA_IhEEEEvEENS1_22iterator_input_adapterIPcEEE8skip_bomEv                                                                                                                                                                                                 
000156ed  _ZN8nlohmann16json_abi_v3_11_26detail5lexerINS0_10basic_jsonINSt3__13mapENS4_6vectorENS4_12basic_stringIcNS4_11char_traitsIcEENS4_9allocatorIcEEEEbxydSA_NS0_14adl_serializerENS6_IhNSA_IhEEEEvEENS1_22iterator_input_adapterIPcEEED2Ev                                                                                                                                                                                                        
0000fadd  _ZN8nlohmann16json_abi_v3_11_26detail6concatINSt3__112basic_stringIcNS3_11char_traitsIcEENS3_9allocatorIcEEEEJRA10_KcS9_SC_S9_EEET_DpOT0_                                                                                                                                                                                                                                                                                                      
0000eea9  _ZN8nlohmann16json_abi_v3_11_26detail6concatINSt3__112basic_stringIcNS3_11char_traitsIcEENS3_9allocatorIcEEEEJRA17_KcRKS9_cS9_RA3_SA_EEET_DpOT0_                                                                                                                                                                                                                                                                                               
0001257d  _ZN8nlohmann16json_abi_v3_11_26detail6concatINSt3__112basic_stringIcNS3_11char_traitsIcEENS3_9allocatorIcEEEEJRA26_KcS9_cEEET_DpOT0_                                                                                                                                                                                                                                                                                                           
0000c639  _ZN8nlohmann16json_abi_v3_11_26detail6concatINSt3__112basic_stringIcNS3_11char_traitsIcEENS3_9allocatorIcEEEEJS9_RA12_KcS9_RA3_SA_S9_RKS9_EEET_DpOT0_                                                                                                                                                                                                                                                                                          
00005d69  _ZN8nlohmann16json_abi_v3_11_26detail6parserINS0_10basic_jsonINSt3__13mapENS4_6vectorENS4_12basic_stringIcNS4_11char_traitsIcEENS4_9allocatorIcEEEEbxydSA_NS0_14adl_serializerENS6_IhNSA_IhEEEEvEENS1_22iterator_input_adapterIPcEEE17exception_messageENS1_10lexer_baseISG_E10token_typeERKSC_                                                                                                                                                
00002831  _ZN8nlohmann16json_abi_v3_11_26detail6parserINS0_10basic_jsonINSt3__13mapENS4_6vectorENS4_12basic_stringIcNS4_11char_traitsIcEENS4_9allocatorIcEEEEbxydSA_NS0_14adl_serializerENS6_IhNSA_IhEEEEvEENS1_22iterator_input_adapterIPcEEE18sax_parse_internalINS1_19json_sax_dom_parserISG_EEEEbPT_                                                                                                                                                 
00001ed1  _ZN8nlohmann16json_abi_v3_11_26detail6parserINS0_10basic_jsonINSt3__13mapENS4_6vectorENS4_12basic_stringIcNS4_11char_traitsIcEENS4_9allocatorIcEEEEbxydSA_NS0_14adl_serializerENS6_IhNSA_IhEEEEvEENS1_22iterator_input_adapterIPcEEE18sax_parse_internalINS1_28json_sax_dom_callback_parserISG_EEEEbPT_                                                                                                                                        
00004f69  _ZN8nlohmann16json_abi_v3_11_26detail6parserINS0_10basic_jsonINSt3__13mapENS4_6vectorENS4_12basic_stringIcNS4_11char_traitsIcEENS4_9allocatorIcEEEEbxydSA_NS0_14adl_serializerENS6_IhNSA_IhEEEEvEENS1_22iterator_input_adapterIPcEEE5parseEbRSG_                                                                                                                                                                                               
00011703  _ZN8nlohmann16json_abi_v3_11_26detail6parserINS0_10basic_jsonINSt3__13mapENS4_6vectorENS4_12basic_stringIcNS4_11char_traitsIcEENS4_9allocatorIcEEEEbxydSA_NS0_14adl_serializerENS6_IhNSA_IhEEEEvEENS1_22iterator_input_adapterIPcEEEC2EOSJ_NS4_8functionIFbiNS1_13parse_event_tERSG_EEEbb                                                                                                                                                      
00008889  _ZN8nlohmann16json_abi_v3_11_26detail8to_charsIdEEPcS3_PKcT_                                                                                                                                                                                                                                                                                                                                                                                   
00009779  _ZN8nlohmann16json_abi_v3_11_26detail9dtoa_impl12grisu2_roundEPciyyyy                                                                                                                                                                                                                                                                                                                                                                          
00007a91  _ZN8nlohmann16json_abi_v3_11_26detail9dtoa_impl13format_bufferEPciiii                                                                                                                                                                                                                                                                                                                                                                          
00003581  _ZN8nlohmann16json_abi_v3_11_26detail9dtoa_impl16grisu2_digit_genEPcRiS4_NS2_5diyfpES5_S5_                                                                                                                                                                                                                                                                                                                                                     
00009b99  _ZN8nlohmann16json_abi_v3_11_26detail9dtoa_impl18compute_boundariesIdEENS2_10boundariesET_                                                                                                                                                                                                                                                                                                                                                     
0000baf1  _ZN8nlohmann16json_abi_v3_11_26detail9dtoa_impl36get_cached_power_for_binary_exponentEi                                                                                                                                                                                                                                                                                                                                                        
00010377  _ZN8nlohmann16json_abi_v3_11_26detail9dtoa_impl5diyfp12normalize_toERKS3_i                                                                                                                                                                                                                                                                                                                                                                     
000115c7  _ZN8nlohmann16json_abi_v3_11_26detail9dtoa_impl5diyfp3subERKS3_S5_                                                                                                                                                                                                                                                                                                                                                                             
00012bc9  _ZN8nlohmann16json_abi_v3_11_26detail9dtoa_impl5diyfp9normalizeES3_                                                                                                                                                                                                                                                                                                                                                                            
00009e47  _ZN8nlohmann16json_abi_v3_11_26detail9dtoa_impl6grisu2EPcRiS4_NS2_5diyfpES5_S5_                                                                                                                                                                                                                                                                                                                                                                
0000c029  _ZN8nlohmann16json_abi_v3_11_26detail9dtoa_impl6grisu2IdEEvPcRiS5_T_                                                                                                                                                                                                                                                                                                                                                                           
00013245  _ZN8nlohmann16json_abi_v3_11_26detail9exception4nameERKNSt3__112basic_stringIcNS3_11char_traitsIcEENS3_9allocatorIcEEEEi                                                                                                                                                                                                                                                                                                                       
00015247  _ZN8nlohmann16json_abi_v3_11_26detail9exceptionD0Ev                                                                                                                                                                                                                                                                                                                                                                                            
0001541d  _ZN8nlohmann16json_abi_v3_11_26detail9exceptionD2Ev                                                                                                                                                                                                                                                                                                                                                                                            
00013a41  _ZN8nlohmann16json_abi_v3_11_26detail9iter_implIKNS0_10basic_jsonINSt3__13mapENS4_6vectorENS4_12basic_stringIcNS4_11char_traitsIcEENS4_9allocatorIcEEEEbxydSA_NS0_14adl_serializerENS6_IhNSA_IhEEEEvEEE7set_endEv                                                                                                                                                                                                                              
00013403  _ZN8nlohmann16json_abi_v3_11_26detail9iter_implIKNS0_10basic_jsonINSt3__13mapENS4_6vectorENS4_12basic_stringIcNS4_11char_traitsIcEENS4_9allocatorIcEEEEbxydSA_NS0_14adl_serializerENS6_IhNSA_IhEEEEvEEE9set_beginEv                                                                                                                                                                                                                            
000135b5  _ZN8nlohmann16json_abi_v3_11_26detail9iter_implIKNS0_10basic_jsonINSt3__13mapENS4_6vectorENS4_12basic_stringIcNS4_11char_traitsIcEENS4_9allocatorIcEEEEbxydSA_NS0_14adl_serializerENS6_IhNSA_IhEEEEvEEEppEv                                                                                                                                                                                                                                    
00013a83  _ZN8nlohmann16json_abi_v3_11_26detail9iter_implINS0_10basic_jsonINSt3__13mapENS4_6vectorENS4_12basic_stringIcNS4_11char_traitsIcEENS4_9allocatorIcEEEEbxydSA_NS0_14adl_serializerENS6_IhNSA_IhEEEEvEEE7set_endEv                                                                                                                                                                                                                               
0001344b  _ZN8nlohmann16json_abi_v3_11_26detail9iter_implINS0_10basic_jsonINSt3__13mapENS4_6vectorENS4_12basic_stringIcNS4_11char_traitsIcEENS4_9allocatorIcEEEEbxydSA_NS0_14adl_serializerENS6_IhNSA_IhEEEEvEEE9set_beginEv                                                                                                                                                                                                                             
00012fdb  _ZN8nlohmann16json_abi_v3_11_26detail9iter_implINS0_10basic_jsonINSt3__13mapENS4_6vectorENS4_12basic_stringIcNS4_11char_traitsIcEENS4_9allocatorIcEEEEbxydSA_NS0_14adl_serializerENS6_IhNSA_IhEEEEvEEEC2EPSG_                                                                                                                                                                                                                                  
000135fb  _ZN8nlohmann16json_abi_v3_11_26detail9iter_implINS0_10basic_jsonINSt3__13mapENS4_6vectorENS4_12basic_stringIcNS4_11char_traitsIcEENS4_9allocatorIcEEEEbxydSA_NS0_14adl_serializerENS6_IhNSA_IhEEEEvEEEppEv                                                                                                                                                                                                                                     
0000851b  _ZNK10__cxxabiv116__shim_type_info5noop1Ev                                                                                                                                                                                                                                                                                                                                                                                                     
000086d3  _ZNK10__cxxabiv116__shim_type_info5noop2Ev                                                                                                                                                                                                                                                                                                                                                                                                     
0000d781  _ZNK10__cxxabiv117__class_type_info16search_above_dstEPNS_19__dynamic_cast_infoEPKvS4_ib                                                                                                                                                                                                                                                                                                                                                       
0000b7c5  _ZNK10__cxxabiv117__class_type_info16search_below_dstEPNS_19__dynamic_cast_infoEPKvib                                                                                                                                                                                                                                                                                                                                                          
00013495  _ZNK10__cxxabiv117__class_type_info27has_unambiguous_public_baseEPNS_19__dynamic_cast_infoEPvi                                                                                                                                                                                                                                                                                                                                                 
0000b34d  _ZNK10__cxxabiv117__class_type_info9can_catchEPKNS_16__shim_type_infoERPv                                                                                                                                                                                                                                                                                                                                                                      
0000de25  _ZNK10__cxxabiv120__si_class_type_info16search_above_dstEPNS_19__dynamic_cast_infoEPKvS4_ib                                                                                                                                                                                                                                                                                                                                                    
000094ad  _ZNK10__cxxabiv120__si_class_type_info16search_below_dstEPNS_19__dynamic_cast_infoEPKvib                                                                                                                                                                                                                                                                                                                                                       
000125d5  _ZNK10__cxxabiv120__si_class_type_info27has_unambiguous_public_baseEPNS_19__dynamic_cast_infoEPvi                                                                                                                                                                                                                                                                                                                                              
0001570d  _ZNK11UDPEndpoint24printEndpointInformationERK6Logger                                                                                                                                                                                                                                                                                                                                                                                          
00007c61  _ZNK11UDPEndpoint7to_jsonERN8nlohmann16json_abi_v3_11_210basic_jsonINSt3__13mapENS3_6vectorENS3_12basic_stringIcNS3_11char_traitsIcEENS3_9allocatorIcEEEEbxydS9_NS1_14adl_serializerENS5_IhNS9_IhEEEEvEE                                                                                                                                                                                                                                       
00015ea5  _ZNK13SystemManager18getClusterMetadataEv                                                                                                                                                                                                                                                                                                                                                                                                      
000094ab  _ZNK13TopicMetadata7getNameEv                                                                                                                                                                                                                                                                                                                                                                                                                  
0000def1  _ZNK13TopicMetadata7to_jsonERN8nlohmann16json_abi_v3_11_210basic_jsonINSt3__13mapENS3_6vectorENS3_12basic_stringIcNS3_11char_traitsIcEENS3_9allocatorIcEEEEbxydS9_NS1_14adl_serializerENS5_IhNS9_IhEEEEvEE                                                                                                                                                                                                                                     
00015f61  _ZNK14BrokerMetadata11getEndpointEv                                                                                                                                                                                                                                                                                                                                                                                                            
00015eaf  _ZNK14BrokerMetadata17getTopicsMetadataEv                                                                                                                                                                                                                                                                                                                                                                                                      
000111ed  _ZNK14TI_DebugLogger3logEPKcz                                                                                                                                                                                                                                                                                                                                                                                                                  
0001125d  _ZNK14TI_DebugLogger8logErrorEPKcz                                                                                                                                                                                                                                                                                                                                                                                                             
0000afd9  _ZNK16ConsumerMetadata7to_jsonERN8nlohmann16json_abi_v3_11_210basic_jsonINSt3__13mapENS3_6vectorENS3_12basic_stringIcNS3_11char_traitsIcEENS3_9allocatorIcEEEEbxydS9_NS1_14adl_serializerENS5_IhNS9_IhEEEEvEE                                                                                                                                                                                                                                  
0000eb31  _ZNK16ProducerMetadata7to_jsonERN8nlohmann16json_abi_v3_11_210basic_jsonINSt3__13mapENS3_6vectorENS3_12basic_stringIcNS3_11char_traitsIcEENS3_9allocatorIcEEEEbxydS9_NS1_14adl_serializerENS5_IhNS9_IhEEEEvEE                                                                                                                                                                                                                                  
00015f65  _ZNK17RPMessageEndpoint18getServiceEndpointEv                                                                                                                                                                                                                                                                                                                                                                                                  
0001572d  _ZNK17RPMessageEndpoint24printEndpointInformationERK6Logger                                                                                                                                                                                                                                                                                                                                                                                    
00008365  _ZNK17RPMessageEndpoint7to_jsonERN8nlohmann16json_abi_v3_11_210basic_jsonINSt3__13mapENS3_6vectorENS3_12basic_stringIcNS3_11char_traitsIcEENS3_9allocatorIcEEEEbxydS9_NS1_14adl_serializerENS5_IhNS9_IhEEEEvEE                                                                                                                                                                                                                                 
00015f69  _ZNK17RPMessageEndpoint9getCoreIdEv                                                                                                                                                                                                                                                                                                                                                                                                            
00015eb9  _ZNK5Topic16getTopicMetadataEv                                                                                                                                                                                                                                                                                                                                                                                                                 
00009777  _ZNK6Record7getDataEv                                                                                                                                                                                                                                                                                                                                                                                                                          
0000ff93  _ZNK8nlohmann16json_abi_v3_11_210basic_jsonINSt3__13mapENS2_6vectorENS2_12basic_stringIcNS2_11char_traitsIcEENS2_9allocatorIcEEEEbxydS8_NS0_14adl_serializerENS4_IhNS8_IhEEEEvE16assert_invariantEb                                                                                                                                                                                                                                            
0001574d  _ZNK8nlohmann16json_abi_v3_11_210basic_jsonINSt3__13mapENS2_6vectorENS2_12basic_stringIcNS2_11char_traitsIcEENS2_9allocatorIcEEEEbxydS8_NS0_14adl_serializerENS4_IhNS8_IhEEEEvE2atIRA16_KcLi0EEERKSE_OT_                                                                                                                                                                                                                                       
0001576d  _ZNK8nlohmann16json_abi_v3_11_210basic_jsonINSt3__13mapENS2_6vectorENS2_12basic_stringIcNS2_11char_traitsIcEENS2_9allocatorIcEEEEbxydS8_NS0_14adl_serializerENS4_IhNS8_IhEEEEvE2atIRA3_KcLi0EEERKSE_OT_                                                                                                                                                                                                                                        
0001578d  _ZNK8nlohmann16json_abi_v3_11_210basic_jsonINSt3__13mapENS2_6vectorENS2_12basic_stringIcNS2_11char_traitsIcEENS2_9allocatorIcEEEEbxydS8_NS0_14adl_serializerENS4_IhNS8_IhEEEEvE2atIRA5_KcLi0EEERKSE_OT_                                                                                                                                                                                                                                        
000157ad  _ZNK8nlohmann16json_abi_v3_11_210basic_jsonINSt3__13mapENS2_6vectorENS2_12basic_stringIcNS2_11char_traitsIcEENS2_9allocatorIcEEEEbxydS8_NS0_14adl_serializerENS4_IhNS8_IhEEEEvE2atIRA7_KcLi0EEERKSE_OT_                                                                                                                                                                                                                                        
000157cd  _ZNK8nlohmann16json_abi_v3_11_210basic_jsonINSt3__13mapENS2_6vectorENS2_12basic_stringIcNS2_11char_traitsIcEENS2_9allocatorIcEEEEbxydS8_NS0_14adl_serializerENS4_IhNS8_IhEEEEvE2atIRA8_KcLi0EEERKSE_OT_                                                                                                                                                                                                                                        
000157ed  _ZNK8nlohmann16json_abi_v3_11_210basic_jsonINSt3__13mapENS2_6vectorENS2_12basic_stringIcNS2_11char_traitsIcEENS2_9allocatorIcEEEEbxydS8_NS0_14adl_serializerENS4_IhNS8_IhEEEEvE2atIRA9_KcLi0EEERKSE_OT_                                                                                                                                                                                                                                        
0000f009  _ZNK8nlohmann16json_abi_v3_11_210basic_jsonINSt3__13mapENS2_6vectorENS2_12basic_stringIcNS2_11char_traitsIcEENS2_9allocatorIcEEEEbxydS8_NS0_14adl_serializerENS4_IhNS8_IhEEEEvE4dumpEicbNS0_6detail15error_handler_tE                                                                                                                                                                                                                          
00014a61  _ZNK8nlohmann16json_abi_v3_11_26detail12from_json_fnclINS0_10basic_jsonINSt3__13mapENS5_6vectorENS5_12basic_stringIcNS5_11char_traitsIcEENS5_9allocatorIcEEEEbxydSB_NS0_14adl_serializerENS7_IhNSB_IhEEEEvEERiEEDTcl9from_jsonfp_clsr3stdE7forwardIT0_Efp0_EEERKT_OSJ_                                                                                                                                                                         
00012255  _ZNK8nlohmann16json_abi_v3_11_26detail5lexerINS0_10basic_jsonINSt3__13mapENS4_6vectorENS4_12basic_stringIcNS4_11char_traitsIcEENS4_9allocatorIcEEEEbxydSA_NS0_14adl_serializerENS6_IhNSA_IhEEEEvEENS1_22iterator_input_adapterIPcEEE16get_token_stringEv                                                                                                                                                                                       
000143cd  _ZNK8nlohmann16json_abi_v3_11_26detail8json_refINS0_10basic_jsonINSt3__13mapENS4_6vectorENS4_12basic_stringIcNS4_11char_traitsIcEENS4_9allocatorIcEEEEbxydSA_NS0_14adl_serializerENS6_IhNSA_IhEEEEvEEE15moved_or_copiedEv                                                                                                                                                                                                                      
00015f39  _ZNK8nlohmann16json_abi_v3_11_26detail9exception4whatEv                                                                                                                                                                                                                                                                                                                                                                                        
0001059d  _ZNK8nlohmann16json_abi_v3_11_26detail9iter_implIKNS0_10basic_jsonINSt3__13mapENS4_6vectorENS4_12basic_stringIcNS4_11char_traitsIcEENS4_9allocatorIcEEEEbxydSA_NS0_14adl_serializerENS6_IhNSA_IhEEEEvEEEdeEv                                                                                                                                                                                                                                   
00012c1b  _ZNK8nlohmann16json_abi_v3_11_26detail9iter_implIKNS0_10basic_jsonINSt3__13mapENS4_6vectorENS4_12basic_stringIcNS4_11char_traitsIcEENS4_9allocatorIcEEEEbxydSA_NS0_14adl_serializerENS6_IhNSA_IhEEEEvEEEeqISI_LDn0EEEbRKT_                                                                                                                                                                                                                     
00012c6d  _ZNK8nlohmann16json_abi_v3_11_26detail9iter_implINS0_10basic_jsonINSt3__13mapENS4_6vectorENS4_12basic_stringIcNS4_11char_traitsIcEENS4_9allocatorIcEEEEbxydSA_NS0_14adl_serializerENS6_IhNSA_IhEEEEvEEEeqISH_LDn0EEEbRKT_                                                                                                                                                                                                                      
00010625  _ZNK8nlohmann16json_abi_v3_11_26detail9iter_implINS0_10basic_jsonINSt3__13mapENS4_6vectorENS4_12basic_stringIcNS4_11char_traitsIcEENS4_9allocatorIcEEEEbxydSA_NS0_14adl_serializerENS6_IhNSA_IhEEEEvEEEptEv                                                                                                                                                                                                                                    
00015f6d  _ZNKSt13runtime_error4whatEv                                                                                                                                                                                                                                                                                                                                                                                                                   
0001262d  _ZNKSt3__112basic_stringIcNS_11char_traitsIcEENS_9allocatorIcEEE7compareEPKc                                                                                                                                                                                                                                                                                                                                                                   
00011bd9  _ZNKSt3__112basic_stringIcNS_11char_traitsIcEENS_9allocatorIcEEE7compareEjjPKcj                                                                                                                                                                                                                                                                                                                                                                
00015f71  _ZNKSt3__119__shared_weak_count13__get_deleterERKSt9type_info                                                                                                                                                                                                                                                                                                                                                                                  
00012985  _ZNKSt3__14lessIvEclIRKNS_12basic_stringIcNS_11char_traitsIcEENS_9allocatorIcEEEESA_EEDTltclsr3stdE7forwardIT_Efp_Eclsr3stdE7forwardIT0_Efp0_EEOSB_OSC_                                                                                                                                                                                                                                                                                        
00015441  _ZNKSt3__18functionIFbiN8nlohmann16json_abi_v3_11_26detail13parse_event_tERNS2_10basic_jsonINS_3mapENS_6vectorENS_12basic_stringIcNS_11char_traitsIcEENS_9allocatorIcEEEEbxydSB_NS2_14adl_serializerENS7_IhNSB_IhEEEEvEEEEclEiS4_SI_                                                                                                                                                                                                           
000141fd  _ZNSt11range_errorD1Ev                                                                                                                                                                                                                                                                                                                                                                                                                         
000141fd  _ZNSt11range_errorD2Ev                                                                                                                                                                                                                                                                                                                                                                                                                         
0000a4db  _ZNSt13bad_exceptionD1Ev                                                                                                                                                                                                                                                                                                                                                                                                                       
0000a4db  _ZNSt13bad_exceptionD2Ev                                                                                                                                                                                                                                                                                                                                                                                                                       
00011631  _ZNSt13runtime_errorC1EPKc                                                                                                                                                                                                                                                                                                                                                                                                                     
00011631  _ZNSt13runtime_errorC2EPKc                                                                                                                                                                                                                                                                                                                                                                                                                     
00013869  _ZNSt13runtime_errorD0Ev                                                                                                                                                                                                                                                                                                                                                                                                                       
000141fd  _ZNSt13runtime_errorD1Ev                                                                                                                                                                                                                                                                                                                                                                                                                       
000141fd  _ZNSt13runtime_errorD2Ev                                                                                                                                                                                                                                                                                                                                                                                                                       
000141fd  _ZNSt14overflow_errorD1Ev                                                                                                                                                                                                                                                                                                                                                                                                                      
000141fd  _ZNSt14overflow_errorD2Ev                                                                                                                                                                                                                                                                                                                                                                                                                      
000141fd  _ZNSt15underflow_errorD1Ev                                                                                                                                                                                                                                                                                                                                                                                                                     
000141fd  _ZNSt15underflow_errorD2Ev                                                                                                                                                                                                                                                                                                                                                                                                                     
0000a4db  _ZNSt20bad_array_new_lengthD1Ev                                                                                                                                                                                                                                                                                                                                                                                                                
0000a4db  _ZNSt20bad_array_new_lengthD2Ev                                                                                                                                                                                                                                                                                                                                                                                                                
00014e13  _ZNSt3__110__function12__value_funcIFbiN8nlohmann16json_abi_v3_11_26detail13parse_event_tERNS3_10basic_jsonINS_3mapENS_6vectorENS_12basic_stringIcNS_11char_traitsIcEENS_9allocatorIcEEEEbxydSC_NS3_14adl_serializerENS8_IhNSC_IhEEEEvEEEEC2ERKSL_                                                                                                                                                                                             
00015581  _ZNSt3__110shared_ptrIN8nlohmann16json_abi_v3_11_26detail21output_string_adapterIcNS_12basic_stringIcNS_11char_traitsIcEENS_9allocatorIcEEEEEEED2Ev                                                                                                                                                                                                                                                                                            
000155a3  _ZNSt3__110shared_ptrIN8nlohmann16json_abi_v3_11_26detail23output_adapter_protocolIcEEED2Ev                                                                                                                                                                                                                                                                                                                                                    
0000d1f9  _ZNSt3__112basic_stringIcNS_11char_traitsIcEENS_9allocatorIcEEE6appendEPKc                                                                                                                                                                                                                                                                                                                                                                     
0000d4c9  _ZNSt3__112basic_stringIcNS_11char_traitsIcEENS_9allocatorIcEEE6appendEPKcj                                                                                                                                                                                                                                                                                                                                                                    
0000ca2d  _ZNSt3__112basic_stringIcNS_11char_traitsIcEENS_9allocatorIcEEE6resizeEjc                                                                                                                                                                                                                                                                                                                                                                      
0000d6a1  _ZNSt3__112basic_stringIcNS_11char_traitsIcEENS_9allocatorIcEEE7reserveEj                                                                                                                                                                                                                                                                                                                                                                      
0000f0b9  _ZNSt3__112basic_stringIcNS_11char_traitsIcEENS_9allocatorIcEEE9push_backEc                                                                                                                                                                                                                                                                                                                                                                    
00011c3d  _ZNSt3__112basic_stringIcNS_11char_traitsIcEENS_9allocatorIcEEEC1ERKS5_                                                                                                                                                                                                                                                                                                                                                                        
00011c3d  _ZNSt3__112basic_stringIcNS_11char_traitsIcEENS_9allocatorIcEEEC2ERKS5_                                                                                                                                                                                                                                                                                                                                                                        
000129d9  _ZNSt3__112basic_stringIcNS_11char_traitsIcEENS_9allocatorIcEEEC2IDnEEPKc                                                                                                                                                                                                                                                                                                                                                                      
0000a769  _ZNSt3__112basic_stringIcNS_11char_traitsIcEENS_9allocatorIcEEEaSERKS5_                                                                                                                                                                                                                                                                                                                                                                        
000374c4  _ZNSt3__113__DIGIT_TABLEE                                                                                                                                                                                                                                                                                                                                                                                                                      
00005471  _ZNSt3__113__tree_removeIPNS_16__tree_node_baseIPvEEEEvT_S5_                                                                                                                                                                                                                                                                                                                                                                                   
0000e153  _ZNSt3__114__copy_alignedINS_6vectorIbNS_9allocatorIbEEEELb0EEENS_14__bit_iteratorIT_Lb0ELi0EEENS5_IS6_XT0_ELi0EEES8_S7_                                                                                                                                                                                                                                                                                                                       
00009a3f  _ZNSt3__114__shared_countD1Ev                                                                                                                                                                                                                                                                                                                                                                                                                  
00009a3f  _ZNSt3__114__shared_countD2Ev                                                                                                                                                                                                                                                                                                                                                                                                                  
00014a91  _ZNSt3__114__split_bufferI13TopicMetadataRNS_9allocatorIS1_EEE17__destruct_at_endEPS1_                                                                                                                                                                                                                                                                                                                                                         
00013641  _ZNSt3__114__split_bufferI13TopicMetadataRNS_9allocatorIS1_EEEC2EjjS4_                                                                                                                                                                                                                                                                                                                                                                         
00015bc7  _ZNSt3__114__split_bufferI13TopicMetadataRNS_9allocatorIS1_EEED2Ev                                                                                                                                                                                                                                                                                                                                                                             
000145b7  _ZNSt3__114__split_bufferI14BrokerMetadataRNS_9allocatorIS1_EEEC2EjjS4_                                                                                                                                                                                                                                                                                                                                                                        
00015271  _ZNSt3__114__split_bufferI14BrokerMetadataRNS_9allocatorIS1_EEED2Ev                                                                                                                                                                                                                                                                                                                                                                            
00014ac1  _ZNSt3__114__split_bufferIN8nlohmann16json_abi_v3_11_210basic_jsonINS_3mapENS_6vectorENS_12basic_stringIcNS_11char_traitsIcEENS_9allocatorIcEEEEbxydS9_NS2_14adl_serializerENS5_IhNS9_IhEEEEvEERNS9_ISF_EEE17__destruct_at_endEPSF_                                                                                                                                                                                                            
000145eb  _ZNSt3__114__split_bufferIN8nlohmann16json_abi_v3_11_210basic_jsonINS_3mapENS_6vectorENS_12basic_stringIcNS_11char_traitsIcEENS_9allocatorIcEEEEbxydS9_NS2_14adl_serializerENS5_IhNS9_IhEEEEvEERNS9_ISF_EEEC2EjjSH_                                                                                                                                                                                                                            
00015bdd  _ZNSt3__114__split_bufferIN8nlohmann16json_abi_v3_11_210basic_jsonINS_3mapENS_6vectorENS_12basic_stringIcNS_11char_traitsIcEENS_9allocatorIcEEEEbxydS9_NS2_14adl_serializerENS5_IhNS9_IhEEEEvEERNS9_ISF_EEED2Ev                                                                                                                                                                                                                                
00014e41  _ZNSt3__115__tree_iteratorINS_12__value_typeINS_12basic_stringIcNS_11char_traitsIcEENS_9allocatorIcEEEEN8nlohmann16json_abi_v3_11_210basic_jsonINS_3mapENS_6vectorES7_bxydS5_NS9_14adl_serializerENSC_IhNS5_IhEEEEvEEEEPNS_11__tree_nodeISH_PvEEiEppEv                                                                                                                                                                                         
000086d5  _ZNSt3__116__copy_unalignedINS_6vectorIbNS_9allocatorIbEEEELb0EEENS_14__bit_iteratorIT_Lb0ELi0EEENS5_IS6_XT0_ELi0EEES8_S7_                                                                                                                                                                                                                                                                                                                     
00014f6f  _ZNSt3__116allocator_traitsINS_9allocatorINS_11__tree_nodeINS_12__value_typeINS_12basic_stringIcNS_11char_traitsIcEENS1_IcEEEEN8nlohmann16json_abi_v3_11_210basic_jsonINS_3mapENS_6vectorES8_bxydS1_NSA_14adl_serializerENSD_IhNS1_IhEEEEvEEEEPvEEEEE7destroyINS_4pairIKS8_SH_EEvvEEvRSL_PT_                                                                                                                                                   
00015cb5  _ZNSt3__119__shared_weak_count14__release_weakEv                                                                                                                                                                                                                                                                                                                                                                                               
00009a3f  _ZNSt3__119__shared_weak_countD1Ev                                                                                                                                                                                                                                                                                                                                                                                                             
00009a3f  _ZNSt3__119__shared_weak_countD2Ev                                                                                                                                                                                                                                                                                                                                                                                                             
00015ef1  _ZNSt3__120__shared_ptr_emplaceIN8nlohmann16json_abi_v3_11_26detail21output_string_adapterIcNS_12basic_stringIcNS_11char_traitsIcEENS_9allocatorIcEEEEEENS8_ISB_EEE16__on_zero_sharedEv                                                                                                                                                                                                                                                        
00015f75  _ZNSt3__120__shared_ptr_emplaceIN8nlohmann16json_abi_v3_11_26detail21output_string_adapterIcNS_12basic_stringIcNS_11char_traitsIcEENS_9allocatorIcEEEEEENS8_ISB_EEE21__on_zero_shared_weakEv                                                                                                                                                                                                                                                   
00015aa5  _ZNSt3__120__shared_ptr_emplaceIN8nlohmann16json_abi_v3_11_26detail21output_string_adapterIcNS_12basic_stringIcNS_11char_traitsIcEENS_9allocatorIcEEEEEENS8_ISB_EEED0Ev                                                                                                                                                                                                                                                                        
00015d0b  _ZNSt3__120__shared_ptr_emplaceIN8nlohmann16json_abi_v3_11_26detail21output_string_adapterIcNS_12basic_stringIcNS_11char_traitsIcEENS_9allocatorIcEEEEEENS8_ISB_EEED2Ev                                                                                                                                                                                                                                                                        
0000e3ad  _ZNSt3__120back_insert_iteratorINS_6vectorIN8nlohmann16json_abi_v3_11_210basic_jsonINS_3mapES1_NS_12basic_stringIcNS_11char_traitsIcEENS_9allocatorIcEEEEbxydS9_NS3_14adl_serializerENS1_IhNS9_IhEEEEvEENS9_ISF_EEEEEaSEOSF_                                                                                                                                                                                                                   
00015f79  _ZNSt3__125__throw_bad_function_callEv                                                                                                                                                                                                                                                                                                                                                                                                         
0000a9d9  _ZNSt3__127__tree_balance_after_insertIPNS_16__tree_node_baseIPvEEEEvT_S5_                                                                                                                                                                                                                                                                                                                                                                     
00011ea1  _ZNSt3__13mapINS_12basic_stringIcNS_11char_traitsIcEENS_9allocatorIcEEEEN8nlohmann16json_abi_v3_11_210basic_jsonIS0_NS_6vectorES6_bxydS4_NS8_14adl_serializerENSA_IhNS4_IhEEEEvEENS_4lessIvEENS4_INS_4pairIKS6_SE_EEEEE6insertINS_20__map_const_iteratorINS_21__tree_const_iteratorINS_12__value_typeIS6_SE_EEPNS_11__tree_nodeISQ_PvEEiEEEEEEvT_SX_                                                                                           
00013ac5  _ZNSt3__146__construct_backward_with_exception_guaranteesINS_9allocatorI14BrokerMetadataEEPS2_EEvRT_T0_S7_RS7_                                                                                                                                                                                                                                                                                                                                 
000123c1  _ZNSt3__146__construct_backward_with_exception_guaranteesINS_9allocatorIN8nlohmann16json_abi_v3_11_210basic_jsonINS_3mapENS_6vectorENS_12basic_stringIcNS_11char_traitsIcEENS1_IcEEEEbxydS1_NS3_14adl_serializerENS6_IhNS1_IhEEEEvEEEEPSF_EEvRT_T0_SK_RSK_                                                                                                                                                                                     
000153d3  _ZNSt3__14pairIKNS_12basic_stringIcNS_11char_traitsIcEENS_9allocatorIcEEEEN8nlohmann16json_abi_v3_11_210basic_jsonINS_3mapENS_6vectorES6_bxydS4_NS9_14adl_serializerENSC_IhNS4_IhEEEEvEEEC2IJRS7_EJEEENS_21piecewise_construct_tENS_5tupleIJDpT_EEENSL_IJDpT0_EEE                                                                                                                                                                              
000058f5  _ZNSt3__16__itoa8__u32toaEjPc                                                                                                                                                                                                                                                                                                                                                                                                                  
0000c131  _ZNSt3__16__treeINS_12__value_typeINS_12basic_stringIcNS_11char_traitsIcEENS_9allocatorIcEEEEN8nlohmann16json_abi_v3_11_210basic_jsonINS_3mapENS_6vectorES7_bxydS5_NS9_14adl_serializerENSC_IhNS5_IhEEEEvEEEENS_19__map_value_compareIS7_SH_NS_4lessIvEELb1EEENS5_ISH_EEE12__find_equalIS7_EERPNS_16__tree_node_baseIPvEENS_21__tree_const_iteratorISH_PNS_11__tree_nodeISH_SQ_EEiEERPNS_15__tree_end_nodeISS_EEST_RKT_                        
00011dd9  _ZNSt3__16__treeINS_12__value_typeINS_12basic_stringIcNS_11char_traitsIcEENS_9allocatorIcEEEEN8nlohmann16json_abi_v3_11_210basic_jsonINS_3mapENS_6vectorES7_bxydS5_NS9_14adl_serializerENSC_IhNS5_IhEEEEvEEEENS_19__map_value_compareIS7_SH_NS_4lessIvEELb1EEENS5_ISH_EEE12__find_equalIS7_EERPNS_16__tree_node_baseIPvEERPNS_15__tree_end_nodeISS_EERKT_                                                                                      
00013687  _ZNSt3__16__treeINS_12__value_typeINS_12basic_stringIcNS_11char_traitsIcEENS_9allocatorIcEEEEN8nlohmann16json_abi_v3_11_210basic_jsonINS_3mapENS_6vectorES7_bxydS5_NS9_14adl_serializerENSC_IhNS5_IhEEEEvEEEENS_19__map_value_compareIS7_SH_NS_4lessIvEELb1EEENS5_ISH_EEE16__construct_nodeIJS7_DnEEENS_10unique_ptrINS_11__tree_nodeISH_PvEENS_22__tree_node_destructorINS5_ISS_EEEEEEDpOT_                                                   
000122b1  _ZNSt3__16__treeINS_12__value_typeINS_12basic_stringIcNS_11char_traitsIcEENS_9allocatorIcEEEEN8nlohmann16json_abi_v3_11_210basic_jsonINS_3mapENS_6vectorES7_bxydS5_NS9_14adl_serializerENSC_IhNS5_IhEEEEvEEEENS_19__map_value_compareIS7_SH_NS_4lessIvEELb1EEENS5_ISH_EEE16__construct_nodeIJS7_SG_EEENS_10unique_ptrINS_11__tree_nodeISH_PvEENS_22__tree_node_destructorINS5_ISS_EEEEEEDpOT_                                                  
00015299  _ZNSt3__16__treeINS_12__value_typeINS_12basic_stringIcNS_11char_traitsIcEENS_9allocatorIcEEEEN8nlohmann16json_abi_v3_11_210basic_jsonINS_3mapENS_6vectorES7_bxydS5_NS9_14adl_serializerENSC_IhNS5_IhEEEEvEEEENS_19__map_value_compareIS7_SH_NS_4lessIvEELb1EEENS5_ISH_EEE16__insert_node_atEPNS_15__tree_end_nodeIPNS_16__tree_node_baseIPvEEEERSS_SS_                                                                                         
00013325  _ZNSt3__16__treeINS_12__value_typeINS_12basic_stringIcNS_11char_traitsIcEENS_9allocatorIcEEEEN8nlohmann16json_abi_v3_11_210basic_jsonINS_3mapENS_6vectorES7_bxydS5_NS9_14adl_serializerENSC_IhNS5_IhEEEEvEEEENS_19__map_value_compareIS7_SH_NS_4lessIvEELb1EEENS5_ISH_EEE21__remove_node_pointerEPNS_11__tree_nodeISH_PvEE                                                                                                                     
0001336f  _ZNSt3__16__treeINS_12__value_typeINS_12basic_stringIcNS_11char_traitsIcEENS_9allocatorIcEEEEN8nlohmann16json_abi_v3_11_210basic_jsonINS_3mapENS_6vectorES7_bxydS5_NS9_14adl_serializerENSC_IhNS5_IhEEEEvEEEENS_19__map_value_compareIS7_SH_NS_4lessIvEELb1EEENS5_ISH_EEE25__emplace_unique_key_argsIS7_JRKNS_21piecewise_construct_tENS_5tupleIJRKS7_EEENSS_IJEEEEEENS_4pairINS_15__tree_iteratorISH_PNS_11__tree_nodeISH_PvEEiEEbEERKT_DpOT0_
00013d23  _ZNSt3__16__treeINS_12__value_typeINS_12basic_stringIcNS_11char_traitsIcEENS_9allocatorIcEEEEN8nlohmann16json_abi_v3_11_210basic_jsonINS_3mapENS_6vectorES7_bxydS5_NS9_14adl_serializerENSC_IhNS5_IhEEEEvEEEENS_19__map_value_compareIS7_SH_NS_4lessIvEELb1EEENS5_ISH_EEE25__emplace_unique_key_argsIS7_JS7_DnEEENS_4pairINS_15__tree_iteratorISH_PNS_11__tree_nodeISH_PvEEiEEbEERKT_DpOT0_                                                    
00013d63  _ZNSt3__16__treeINS_12__value_typeINS_12basic_stringIcNS_11char_traitsIcEENS_9allocatorIcEEEEN8nlohmann16json_abi_v3_11_210basic_jsonINS_3mapENS_6vectorES7_bxydS5_NS9_14adl_serializerENSC_IhNS5_IhEEEEvEEEENS_19__map_value_compareIS7_SH_NS_4lessIvEELb1EEENS5_ISH_EEE25__emplace_unique_key_argsIS7_JS7_SG_EEENS_4pairINS_15__tree_iteratorISH_PNS_11__tree_nodeISH_PvEEiEEbEERKT_DpOT0_                                                   
0001213b  _ZNSt3__16__treeINS_12__value_typeINS_12basic_stringIcNS_11char_traitsIcEENS_9allocatorIcEEEEN8nlohmann16json_abi_v3_11_210basic_jsonINS_3mapENS_6vectorES7_bxydS5_NS9_14adl_serializerENSC_IhNS5_IhEEEEvEEEENS_19__map_value_compareIS7_SH_NS_4lessIvEELb1EEENS5_ISH_EEE30__emplace_hint_unique_key_argsIS7_JRKNS_4pairIKS7_SG_EEEEENSP_INS_15__tree_iteratorISH_PNS_11__tree_nodeISH_PvEEiEEbEENS_21__tree_const_iteratorISH_SY_iEERKT_DpOT0_
00013b09  _ZNSt3__16__treeINS_12__value_typeINS_12basic_stringIcNS_11char_traitsIcEENS_9allocatorIcEEEEN8nlohmann16json_abi_v3_11_210basic_jsonINS_3mapENS_6vectorES7_bxydS5_NS9_14adl_serializerENSC_IhNS5_IhEEEEvEEEENS_19__map_value_compareIS7_SH_NS_4lessIvEELb1EEENS5_ISH_EEE4findIA16_cEENS_15__tree_iteratorISH_PNS_11__tree_nodeISH_PvEEiEERKT_                                                                                                 
00013b4d  _ZNSt3__16__treeINS_12__value_typeINS_12basic_stringIcNS_11char_traitsIcEENS_9allocatorIcEEEEN8nlohmann16json_abi_v3_11_210basic_jsonINS_3mapENS_6vectorES7_bxydS5_NS9_14adl_serializerENSC_IhNS5_IhEEEEvEEEENS_19__map_value_compareIS7_SH_NS_4lessIvEELb1EEENS5_ISH_EEE4findIA3_cEENS_15__tree_iteratorISH_PNS_11__tree_nodeISH_PvEEiEERKT_                                                                                                  
00013b91  _ZNSt3__16__treeINS_12__value_typeINS_12basic_stringIcNS_11char_traitsIcEENS_9allocatorIcEEEEN8nlohmann16json_abi_v3_11_210basic_jsonINS_3mapENS_6vectorES7_bxydS5_NS9_14adl_serializerENSC_IhNS5_IhEEEEvEEEENS_19__map_value_compareIS7_SH_NS_4lessIvEELb1EEENS5_ISH_EEE4findIA5_cEENS_15__tree_iteratorISH_PNS_11__tree_nodeISH_PvEEiEERKT_                                                                                                  
00013bd5  _ZNSt3__16__treeINS_12__value_typeINS_12basic_stringIcNS_11char_traitsIcEENS_9allocatorIcEEEEN8nlohmann16json_abi_v3_11_210basic_jsonINS_3mapENS_6vectorES7_bxydS5_NS9_14adl_serializerENSC_IhNS5_IhEEEEvEEEENS_19__map_value_compareIS7_SH_NS_4lessIvEELb1EEENS5_ISH_EEE4findIA7_cEENS_15__tree_iteratorISH_PNS_11__tree_nodeISH_PvEEiEERKT_                                                                                                  
00013c19  _ZNSt3__16__treeINS_12__value_typeINS_12basic_stringIcNS_11char_traitsIcEENS_9allocatorIcEEEEN8nlohmann16json_abi_v3_11_210basic_jsonINS_3mapENS_6vectorES7_bxydS5_NS9_14adl_serializerENSC_IhNS5_IhEEEEvEEEENS_19__map_value_compareIS7_SH_NS_4lessIvEELb1EEENS5_ISH_EEE4findIA8_cEENS_15__tree_iteratorISH_PNS_11__tree_nodeISH_PvEEiEERKT_                                                                                                  
00013c5d  _ZNSt3__16__treeINS_12__value_typeINS_12basic_stringIcNS_11char_traitsIcEENS_9allocatorIcEEEEN8nlohmann16json_abi_v3_11_210basic_jsonINS_3mapENS_6vectorES7_bxydS5_NS9_14adl_serializerENSC_IhNS5_IhEEEEvEEEENS_19__map_value_compareIS7_SH_NS_4lessIvEELb1EEENS5_ISH_EEE4findIA9_cEENS_15__tree_iteratorISH_PNS_11__tree_nodeISH_PvEEiEERKT_                                                                                                  
0001580d  _ZNSt3__16__treeINS_12__value_typeINS_12basic_stringIcNS_11char_traitsIcEENS_9allocatorIcEEEEN8nlohmann16json_abi_v3_11_210basic_jsonINS_3mapENS_6vectorES7_bxydS5_NS9_14adl_serializerENSC_IhNS5_IhEEEEvEEEENS_19__map_value_compareIS7_SH_NS_4lessIvEELb1EEENS5_ISH_EEE5eraseENS_21__tree_const_iteratorISH_PNS_11__tree_nodeISH_PvEEiEE                                                                                                     
000138ad  _ZNSt3__16__treeINS_12__value_typeINS_12basic_stringIcNS_11char_traitsIcEENS_9allocatorIcEEEEN8nlohmann16json_abi_v3_11_210basic_jsonINS_3mapENS_6vectorES7_bxydS5_NS9_14adl_serializerENSC_IhNS5_IhEEEEvEEEENS_19__map_value_compareIS7_SH_NS_4lessIvEELb1EEENS5_ISH_EEE7destroyEPNS_11__tree_nodeISH_PvEE                                                                                                                                    
00014f99  _ZNSt3__16vectorI13TopicMetadataNS_9allocatorIS1_EEE11__vallocateEj                                                                                                                                                                                                                                                                                                                                                                            
00015993  _ZNSt3__16vectorI13TopicMetadataNS_9allocatorIS1_EEE13__vdeallocateEv                                                                                                                                                                                                                                                                                                                                                                          
0000dc89  _ZNSt3__16vectorI13TopicMetadataNS_9allocatorIS1_EEE21__push_back_slow_pathIRKS1_EEvOT_                                                                                                                                                                                                                                                                                                                                                        
00014fc5  _ZNSt3__16vectorI13TopicMetadataNS_9allocatorIS1_EEE22__base_destruct_at_endEPS1_                                                                                                                                                                                                                                                                                                                                                              
0000d105  _ZNSt3__16vectorI13TopicMetadataNS_9allocatorIS1_EEE6assignIPS1_EENS_9enable_ifIXaasr27__is_cpp17_forward_iteratorIT_EE5valuesr16is_constructibleIS1_NS_15iterator_traitsIS8_E9referenceEEE5valueEvE4typeES8_S8_                                                                                                                                                                                                                               
000133b9  _ZNSt3__16vectorI13TopicMetadataNS_9allocatorIS1_EEEC2ERKS4_                                                                                                                                                                                                                                                                                                                                                                                   
00015b23  _ZNSt3__16vectorI13TopicMetadataNS_9allocatorIS1_EEED2Ev                                                                                                                                                                                                                                                                                                                                                                                       
000155c5  _ZNSt3__16vectorI14BrokerMetadataNS_9allocatorIS1_EEE11__vallocateEj                                                                                                                                                                                                                                                                                                                                                                           
000144e5  _ZNSt3__16vectorI14BrokerMetadataNS_9allocatorIS1_EEE13__vdeallocateEv                                                                                                                                                                                                                                                                                                                                                                         
00014af1  _ZNSt3__16vectorI14BrokerMetadataNS_9allocatorIS1_EEE26__swap_out_circular_bufferERNS_14__split_bufferIS1_RS3_EE                                                                                                                                                                                                                                                                                                                               
0000ce1d  _ZNSt3__16vectorI14BrokerMetadataNS_9allocatorIS1_EEE6assignIPS1_EENS_9enable_ifIXaasr27__is_cpp17_forward_iteratorIT_EE5valuesr16is_constructibleIS1_NS_15iterator_traitsIS8_E9referenceEEE5valueEvE4typeES8_S8_                                                                                                                                                                                                                              
000136cd  _ZNSt3__16vectorI14BrokerMetadataNS_9allocatorIS1_EEEC2ERKS4_                                                                                                                                                                                                                                                                                                                                                                                  
00014b21  _ZNSt3__16vectorI14BrokerMetadataNS_9allocatorIS1_EEED2Ev                                                                                                                                                                                                                                                                                                                                                                                      
000155e7  _ZNSt3__16vectorIN8nlohmann16json_abi_v3_11_210basic_jsonINS_3mapES0_NS_12basic_stringIcNS_11char_traitsIcEENS_9allocatorIcEEEEbxydS8_NS2_14adl_serializerENS0_IhNS8_IhEEEEvEENS8_ISE_EEE11__vallocateEj                                                                                                                                                                                                                                       
0000fb77  _ZNSt3__16vectorIN8nlohmann16json_abi_v3_11_210basic_jsonINS_3mapES0_NS_12basic_stringIcNS_11char_traitsIcEENS_9allocatorIcEEEEbxydS8_NS2_14adl_serializerENS0_IhNS8_IhEEEEvEENS8_ISE_EEE12emplace_backIJDnEEEvDpOT_                                                                                                                                                                                                                           
0000fca9  _ZNSt3__16vectorIN8nlohmann16json_abi_v3_11_210basic_jsonINS_3mapES0_NS_12basic_stringIcNS_11char_traitsIcEENS_9allocatorIcEEEEbxydS8_NS2_14adl_serializerENS0_IhNS8_IhEEEEvEENS8_ISE_EEE12emplace_backIJNS2_6detail7value_tEEEEvDpOT_                                                                                                                                                                                                         
0000f357  _ZNSt3__16vectorIN8nlohmann16json_abi_v3_11_210basic_jsonINS_3mapES0_NS_12basic_stringIcNS_11char_traitsIcEENS_9allocatorIcEEEEbxydS8_NS2_14adl_serializerENS0_IhNS8_IhEEEEvEENS8_ISE_EEE12emplace_backIJRSA_EEEvDpOT_                                                                                                                                                                                                                         
0000e9bb  _ZNSt3__16vectorIN8nlohmann16json_abi_v3_11_210basic_jsonINS_3mapES0_NS_12basic_stringIcNS_11char_traitsIcEENS_9allocatorIcEEEEbxydS8_NS2_14adl_serializerENS0_IhNS8_IhEEEEvEENS8_ISE_EEE12emplace_backIJSE_EEEvDpOT_                                                                                                                                                                                                                          
00014621  _ZNSt3__16vectorIN8nlohmann16json_abi_v3_11_210basic_jsonINS_3mapES0_NS_12basic_stringIcNS_11char_traitsIcEENS_9allocatorIcEEEEbxydS8_NS2_14adl_serializerENS0_IhNS8_IhEEEEvEENS8_ISE_EEE22__base_destruct_at_endEPSE_                                                                                                                                                                                                                         
00014b51  _ZNSt3__16vectorIN8nlohmann16json_abi_v3_11_210basic_jsonINS_3mapES0_NS_12basic_stringIcNS_11char_traitsIcEENS_9allocatorIcEEEEbxydS8_NS2_14adl_serializerENS0_IhNS8_IhEEEEvEENS8_ISE_EEE26__swap_out_circular_bufferERNS_14__split_bufferISE_RSF_EE                                                                                                                                                                                           
00014655  _ZNSt3__16vectorIN8nlohmann16json_abi_v3_11_210basic_jsonINS_3mapES0_NS_12basic_stringIcNS_11char_traitsIcEENS_9allocatorIcEEEEbxydS8_NS2_14adl_serializerENS0_IhNS8_IhEEEEvEENS8_ISE_EEE5clearEv                                                                                                                                                                                                                                              
00013da3  _ZNSt3__16vectorIN8nlohmann16json_abi_v3_11_210basic_jsonINS_3mapES0_NS_12basic_stringIcNS_11char_traitsIcEENS_9allocatorIcEEEEbxydS8_NS2_14adl_serializerENS0_IhNS8_IhEEEEvEENS8_ISE_EEE7reserveEj                                                                                                                                                                                                                                            
00013f9d  _ZNSt3__16vectorIN8nlohmann16json_abi_v3_11_210basic_jsonINS_3mapES0_NS_12basic_stringIcNS_11char_traitsIcEENS_9allocatorIcEEEEbxydS8_NS2_14adl_serializerENS0_IhNS8_IhEEEEvEENS8_ISE_EEEC2ERKSG_                                                                                                                                                                                                                                              
00013ca1  _ZNSt3__16vectorIN8nlohmann16json_abi_v3_11_210basic_jsonINS_3mapES0_NS_12basic_stringIcNS_11char_traitsIcEENS_9allocatorIcEEEEbxydS8_NS2_14adl_serializerENS0_IhNS8_IhEEEEvEENS8_ISE_EEEC2IPKNS2_6detail8json_refISE_EEEET_NS_9enable_ifIXaasr27__is_cpp17_forward_iteratorISN_EE5valuesr16is_constructibleISE_NS_15iterator_traitsISN_E9referenceEEE5valueESN_E4typeE                                                                        
00013de5  _ZNSt3__16vectorIN8nlohmann16json_abi_v3_11_210basic_jsonINS_3mapES0_NS_12basic_stringIcNS_11char_traitsIcEENS_9allocatorIcEEEEbxydS8_NS2_14adl_serializerENS0_IhNS8_IhEEEEvEENS8_ISE_EEED2Ev                                                                                                                                                                                                                                                  
00015609  _ZNSt3__16vectorIbNS_9allocatorIbEEE11__vallocateEj                                                                                                                                                                                                                                                                                                                                                                                            
00010401  _ZNSt3__16vectorIbNS_9allocatorIbEEE18__construct_at_endINS_14__bit_iteratorIS3_Lb0ELj0EEEEENS_9enable_ifIXsr27__is_cpp17_forward_iteratorIT_EE5valueEvE4typeES8_S8_                                                                                                                                                                                                                                                                           
0001176b  _ZNSt3__16vectorIbNS_9allocatorIbEEE7reserveEj                                                                                                                                                                                                                                                                                                                                                                                                 
00011419  _ZNSt3__16vectorIbNS_9allocatorIbEEE9push_backERKb                                                                                                                                                                                                                                                                                                                                                                                             
0001582d  _ZNSt3__16vectorIhNS_9allocatorIhEEE11__vallocateEj                                                                                                                                                                                                                                                                                                                                                                                            
00014405  _ZNSt3__16vectorIhNS_9allocatorIhEEEC2ERKS3_                                                                                                                                                                                                                                                                                                                                                                                                   
0000e83d  _ZNSt3__19to_stringEi                                                                                                                                                                                                                                                                                                                                                                                                                          
000117d5  _ZNSt3__19to_stringEj                                                                                                                                                                                                                                                                                                                                                                                                                          
0000a4db  _ZNSt9bad_allocD1Ev                                                                                                                                                                                                                                                                                                                                                                                                                            
0000a4db  _ZNSt9bad_allocD2Ev                                                                                                                                                                                                                                                                                                                                                                                                                            
0000a4db  _ZNSt9exceptionD1Ev                                                                                                                                                                                                                                                                                                                                                                                                                            
0000a4db  _ZNSt9exceptionD2Ev                                                                                                                                                                                                                                                                                                                                                                                                                            
0000a767  _ZNSt9type_infoD1Ev                                                                                                                                                                                                                                                                                                                                                                                                                            
0000a767  _ZNSt9type_infoD2Ev                                                                                                                                                                                                                                                                                                                                                                                                                            
00015e25  _ZSt15get_new_handlerv                                                                                                                                                                                                                                                                                                                                                                                                                         
00015f7d  _ZSt28__throw_bad_array_new_lengthv                                                                                                                                                                                                                                                                                                                                                                                                            
00038088  _ZTIN10__cxxabiv116__shim_type_infoE                                                                                                                                                                                                                                                                                                                                                                                                           
00038094  _ZTIN10__cxxabiv117__class_type_infoE                                                                                                                                                                                                                                                                                                                                                                                                          
000380a0  _ZTIN10__cxxabiv120__si_class_type_infoE                                                                                                                                                                                                                                                                                                                                                                                                       
000380ac  _ZTISt13runtime_error                                                                                                                                                                                                                                                                                                                                                                                                                          
000371e8  _ZTISt9exception                                                                                                                                                                                                                                                                                                                                                                                                                               
000380c4  _ZTISt9type_info                                                                                                                                                                                                                                                                                                                                                                                                                               
00037e88  _ZTSN10__cxxabiv116__shim_type_infoE                                                                                                                                                                                                                                                                                                                                                                                                           
00037e44  _ZTSN10__cxxabiv117__class_type_infoE                                                                                                                                                                                                                                                                                                                                                                                                          
00037dd4  _ZTSN10__cxxabiv120__si_class_type_infoE                                                                                                                                                                                                                                                                                                                                                                                                       
0003801c  _ZTSSt13runtime_error                                                                                                                                                                                                                                                                                                                                                                                                                          
00038060  _ZTSSt9exception                                                                                                                                                                                                                                                                                                                                                                                                                               
0003806d  _ZTSSt9type_info                                                                                                                                                                                                                                                                                                                                                                                                                               
00037dfc  _ZTV10TopicProxy                                                                                                                                                                                                                                                                                                                                                                                                                               
00037ecc  _ZTV11UDPEndpoint                                                                                                                                                                                                                                                                                                                                                                                                                              
00038040  _ZTV14TI_DebugLogger                                                                                                                                                                                                                                                                                                                                                                                                                           
00037ee8  _ZTV17RPMessageEndpoint                                                                                                                                                                                                                                                                                                                                                                                                                        
00037f9c  _ZTV22RPMessageCommunication                                                                                                                                                                                                                                                                                                                                                                                                                   
00037e20  _ZTV5Topic                                                                                                                                                                                                                                                                                                                                                                                                                                     
00037d84  _ZTVN10__cxxabiv117__class_type_infoE                                                                                                                                                                                                                                                                                                                                                                                                          
00037dac  _ZTVN10__cxxabiv120__si_class_type_infoE                                                                                                                                                                                                                                                                                                                                                                                                       
00037fcc  _ZTVN8nlohmann16json_abi_v3_11_26detail11parse_errorE                                                                                                                                                                                                                                                                                                                                                                                          
00037fe0  _ZTVN8nlohmann16json_abi_v3_11_26detail12out_of_rangeE                                                                                                                                                                                                                                                                                                                                                                                         
00037fb4  _ZTVN8nlohmann16json_abi_v3_11_26detail21output_string_adapterIcNSt3__112basic_stringIcNS3_11char_traitsIcEENS3_9allocatorIcEEEEEE                                                                                                                                                                                                                                                                                                             
00037ff4  _ZTVN8nlohmann16json_abi_v3_11_26detail9exceptionE                                                                                                                                                                                                                                                                                                                                                                                             
00037f04  _ZTVNSt3__120__shared_ptr_emplaceIN8nlohmann16json_abi_v3_11_26detail21output_string_adapterIcNS_12basic_stringIcNS_11char_traitsIcEENS_9allocatorIcEEEEEENS8_ISB_EEEE                                                                                                                                                                                                                                                                         
00038008  _ZTVSt13runtime_error                                                                                                                                                                                                                                                                                                                                                                                                                          
0003758c  _ZZN8nlohmann16json_abi_v3_11_26detail10serializerINS0_10basic_jsonINSt3__13mapENS4_6vectorENS4_12basic_stringIcNS4_11char_traitsIcEENS4_9allocatorIcEEEEbxydSA_NS0_14adl_serializerENS6_IhNSA_IhEEEEvEEE12dump_integerIhLi0EEEvT_E12digits_to_99                                                                                                                                                                                              
00037654  _ZZN8nlohmann16json_abi_v3_11_26detail10serializerINS0_10basic_jsonINSt3__13mapENS4_6vectorENS4_12basic_stringIcNS4_11char_traitsIcEENS4_9allocatorIcEEEEbxydSA_NS0_14adl_serializerENS6_IhNSA_IhEEEEvEEE12dump_integerIxLi0EEEvT_E12digits_to_99                                                                                                                                                                                              
0003771c  _ZZN8nlohmann16json_abi_v3_11_26detail10serializerINS0_10basic_jsonINSt3__13mapENS4_6vectorENS4_12basic_stringIcNS4_11char_traitsIcEENS4_9allocatorIcEEEEbxydSA_NS0_14adl_serializerENS6_IhNSA_IhEEEEvEEE12dump_integerIyLi0EEEvT_E12digits_to_99                                                                                                                                                                                              
000365d5  _ZZN8nlohmann16json_abi_v3_11_26detail10serializerINS0_10basic_jsonINSt3__13mapENS4_6vectorENS4_12basic_stringIcNS4_11char_traitsIcEENS4_9allocatorIcEEEEbxydSA_NS0_14adl_serializerENS6_IhNSA_IhEEEEvEEE6decodeERhRjhE5utf8d                                                                                                                                                                                                                  
000353f0  _ZZN8nlohmann16json_abi_v3_11_26detail9dtoa_impl36get_cached_power_for_binary_exponentEiE13kCachedPowers                                                                                                                                                                                                                                                                                                                                       
00015f81  _ZdlPv                                                                                                                                                                                                                                                                                                                                                                                                                                         
00015465  _Znwj                                                                                                                                                                                                                                                                                                                                                                                                                                          
0003fe00  __BSS_END                                                                                                                                                                                                                                                                                                                                                                                                                                      
00038100  __BSS_START                                                                                                                                                                                                                                                                                                                                                                                                                                    
0003f52c  __CIOBUF_                                                                                                                                                                                                                                                                                                                                                                                                                                      
00021fb0  __STACK_END                                                                                                                                                                                                                                                                                                                                                                                                                                    
00004000  __STACK_SIZE                                                                                                                                                                                                                                                                                                                                                                                                                                   
00008000  __SYSMEM_SIZE                                                                                                                                                                                                                                                                                                                                                                                                                                  
UNDEFED   __TI_CINIT_Base                                                                                                                                                                                                                                                                                                                                                                                                                                
UNDEFED   __TI_CINIT_Limit                                                                                                                                                                                                                                                                                                                                                                                                                               
UNDEFED   __TI_Handler_Table_Base                                                                                                                                                                                                                                                                                                                                                                                                                        
UNDEFED   __TI_Handler_Table_Limit                                                                                                                                                                                                                                                                                                                                                                                                                       
00021fb8  __TI_UNWIND_TABLE_END                                                                                                                                                                                                                                                                                                                                                                                                                          
00021fb0  __TI_UNWIND_TABLE_START                                                                                                                                                                                                                                                                                                                                                                                                                        
00014475  __TI_auto_init_nobinit_nopinit                                                                                                                                                                                                                                                                                                                                                                                                                 
00014689  __TI_cleanup                                                                                                                                                                                                                                                                                                                                                                                                                                   
000004f4  __TI_cleanup_ptr                                                                                                                                                                                                                                                                                                                                                                                                                               
00010df1  __TI_closefile                                                                                                                                                                                                                                                                                                                                                                                                                                 
00013029  __TI_doflush                                                                                                                                                                                                                                                                                                                                                                                                                                   
000004f8  __TI_dtors_ptr                                                                                                                                                                                                                                                                                                                                                                                                                                 
00000518  __TI_ft_end                                                                                                                                                                                                                                                                                                                                                                                                                                    
00012733  __TI_ltoa                                                                                                                                                                                                                                                                                                                                                                                                                                      
ffffffff  __TI_pprof_out_hndl                                                                                                                                                                                                                                                                                                                                                                                                                            
00000201  __TI_printfi                                                                                                                                                                                                                                                                                                                                                                                                                                   
ffffffff  __TI_prof_data_size                                                                                                                                                                                                                                                                                                                                                                                                                            
ffffffff  __TI_prof_data_start                                                                                                                                                                                                                                                                                                                                                                                                                           
00014b81  __TI_readmsg                                                                                                                                                                                                                                                                                                                                                                                                                                   
00000000  __TI_static_base__                                                                                                                                                                                                                                                                                                                                                                                                                             
0003f8f4  __TI_tmpnams                                                                                                                                                                                                                                                                                                                                                                                                                                   
000146bd  __TI_writemsg                                                                                                                                                                                                                                                                                                                                                                                                                                  
00011f01  __TI_wrt_ok                                                                                                                                                                                                                                                                                                                                                                                                                                    
00008527  __adddf3                                                                                                                                                                                                                                                                                                                                                                                                                                       
000134dd  __aeabi_assert                                                                                                                                                                                                                                                                                                                                                                                                                                 
000371f0  __aeabi_ctype_table_                                                                                                                                                                                                                                                                                                                                                                                                                           
000371f0  __aeabi_ctype_table_C                                                                                                                                                                                                                                                                                                                                                                                                                          
0001356d  __aeabi_d2iz                                                                                                                                                                                                                                                                                                                                                                                                                                   
00013979  __aeabi_d2uiz                                                                                                                                                                                                                                                                                                                                                                                                                                  
00008527  __aeabi_dadd                                                                                                                                                                                                                                                                                                                                                                                                                                   
00011e3d  __aeabi_dcmpeq                                                                                                                                                                                                                                                                                                                                                                                                                                 
00011e79  __aeabi_dcmpge                                                                                                                                                                                                                                                                                                                                                                                                                                 
00011e8d  __aeabi_dcmpgt                                                                                                                                                                                                                                                                                                                                                                                                                                 
00011e65  __aeabi_dcmple                                                                                                                                                                                                                                                                                                                                                                                                                                 
00011e51  __aeabi_dcmplt                                                                                                                                                                                                                                                                                                                                                                                                                                 
00014bb1  __aeabi_dcmpun                                                                                                                                                                                                                                                                                                                                                                                                                                 
0000ab11  __aeabi_ddiv                                                                                                                                                                                                                                                                                                                                                                                                                                   
0000cb29  __aeabi_dmul                                                                                                                                                                                                                                                                                                                                                                                                                                   
0000851d  __aeabi_dsub                                                                                                                                                                                                                                                                                                                                                                                                                                   
0000051c  __aeabi_errno                                                                                                                                                                                                                                                                                                                                                                                                                                  
00015ef9  __aeabi_errno_addr                                                                                                                                                                                                                                                                                                                                                                                                                             
00014d8d  __aeabi_i2d                                                                                                                                                                                                                                                                                                                                                                                                                                    
0000a9d7  __aeabi_ldiv0                                                                                                                                                                                                                                                                                                                                                                                                                                  
00015c51  __aeabi_memclr                                                                                                                                                                                                                                                                                                                                                                                                                                 
00015c51  __aeabi_memclr4                                                                                                                                                                                                                                                                                                                                                                                                                                
00015c51  __aeabi_memclr8                                                                                                                                                                                                                                                                                                                                                                                                                                
00015f9d  __aeabi_memcpy                                                                                                                                                                                                                                                                                                                                                                                                                                 
00015f9d  __aeabi_memcpy4                                                                                                                                                                                                                                                                                                                                                                                                                                
00015f9d  __aeabi_memcpy8                                                                                                                                                                                                                                                                                                                                                                                                                                
00015fa1  __aeabi_memmove                                                                                                                                                                                                                                                                                                                                                                                                                                
00015fa1  __aeabi_memmove4                                                                                                                                                                                                                                                                                                                                                                                                                               
00015fa1  __aeabi_memmove8                                                                                                                                                                                                                                                                                                                                                                                                                               
00015c45  __aeabi_memset                                                                                                                                                                                                                                                                                                                                                                                                                                 
00015c45  __aeabi_memset4                                                                                                                                                                                                                                                                                                                                                                                                                                
00015c45  __aeabi_memset8                                                                                                                                                                                                                                                                                                                                                                                                                                
0001584d  __aeabi_ui2d                                                                                                                                                                                                                                                                                                                                                                                                                                   
00015c59  __aeabi_uldivmod                                                                                                                                                                                                                                                                                                                                                                                                                               
ffffffff  __binit__                                                                                                                                                                                                                                                                                                                                                                                                                                      
0001133d  __cmpdf2                                                                                                                                                                                                                                                                                                                                                                                                                                       
00000520  __cxa_new_handler                                                                                                                                                                                                                                                                                                                                                                                                                              
00015e31  __cxa_pure_virtual                                                                                                                                                                                                                                                                                                                                                                                                                             
0000ab11  __divdf3                                                                                                                                                                                                                                                                                                                                                                                                                                       
0001133d  __eqdf2                                                                                                                                                                                                                                                                                                                                                                                                                                        
0001356d  __fixdfsi                                                                                                                                                                                                                                                                                                                                                                                                                                      
00013979  __fixunsdfsi                                                                                                                                                                                                                                                                                                                                                                                                                                   
00014d8d  __floatsidf                                                                                                                                                                                                                                                                                                                                                                                                                                    
0001584d  __floatunsidf                                                                                                                                                                                                                                                                                                                                                                                                                                  
000112cd  __gedf2                                                                                                                                                                                                                                                                                                                                                                                                                                        
000112cd  __gtdf2                                                                                                                                                                                                                                                                                                                                                                                                                                        
0001133d  __ledf2                                                                                                                                                                                                                                                                                                                                                                                                                                        
0001133d  __ltdf2                                                                                                                                                                                                                                                                                                                                                                                                                                        
00015f89  __mpu_init                                                                                                                                                                                                                                                                                                                                                                                                                                     
0000cb29  __muldf3                                                                                                                                                                                                                                                                                                                                                                                                                                       
0001133d  __nedf2                                                                                                                                                                                                                                                                                                                                                                                                                                        
0001dfb0  __stack                                                                                                                                                                                                                                                                                                                                                                                                                                        
00030000  __start___llvm_prf_bits                                                                                                                                                                                                                                                                                                                                                                                                                        
00030000  __start___llvm_prf_cnts                                                                                                                                                                                                                                                                                                                                                                                                                        
00030000  __stop___llvm_prf_bits                                                                                                                                                                                                                                                                                                                                                                                                                         
00030000  __stop___llvm_prf_cnts                                                                                                                                                                                                                                                                                                                                                                                                                         
0000851d  __subdf3                                                                                                                                                                                                                                                                                                                                                                                                                                       
00015d1b  __time64                                                                                                                                                                                                                                                                                                                                                                                                                                       
0000ef59  __udivmoddi4                                                                                                                                                                                                                                                                                                                                                                                                                                   
00014bb1  __unorddf2                                                                                                                                                                                                                                                                                                                                                                                                                                     
000159b1  _abort_msg                                                                                                                                                                                                                                                                                                                                                                                                                                     
0001241b  _c_int00                                                                                                                                                                                                                                                                                                                                                                                                                                       
00000350  _device                                                                                                                                                                                                                                                                                                                                                                                                                                        
00000000  _ftable                                                                                                                                                                                                                                                                                                                                                                                                                                        
00000524  _lock                                                                                                                                                                                                                                                                                                                                                                                                                                          
0000ab0f  _nop                                                                                                                                                                                                                                                                                                                                                                                                                                           
000003c8  _stream                                                                                                                                                                                                                                                                                                                                                                                                                                        
00015fb0  _sys_memory                                                                                                                                                                                                                                                                                                                                                                                                                                    
UNDEFED   _system_post_cinit                                                                                                                                                                                                                                                                                                                                                                                                                             
00000528  _unlock                                                                                                                                                                                                                                                                                                                                                                                                                                        
00015f99  abort                                                                                                                                                                                                                                                                                                                                                                                                                                          
00015f85  abort_message                                                                                                                                                                                                                                                                                                                                                                                                                                  
0000b46d  aligned_alloc                                                                                                                                                                                                                                                                                                                                                                                                                                  
00013525  atoi                                                                                                                                                                                                                                                                                                                                                                                                                                           
ffffffff  binit                                                                                                                                                                                                                                                                                                                                                                                                                                          
00011f61  close                                                                                                                                                                                                                                                                                                                                                                                                                                          
0000f68b  eTaskGetState                                                                                                                                                                                                                                                                                                                                                                                                                                  
00014c41  exit                                                                                                                                                                                                                                                                                                                                                                                                                                           
00010e65  fflush                                                                                                                                                                                                                                                                                                                                                                                                                                         
00014725  finddevice                                                                                                                                                                                                                                                                                                                                                                                                                                     
0000d2e9  fputs                                                                                                                                                                                                                                                                                                                                                                                                                                          
0000cf15  free                                                                                                                                                                                                                                                                                                                                                                                                                                           
00011841  frexp                                                                                                                                                                                                                                                                                                                                                                                                                                          
00011841  frexpl                                                                                                                                                                                                                                                                                                                                                                                                                                         
00015f8d  fseek                                                                                                                                                                                                                                                                                                                                                                                                                                          
000118a9  fseeko                                                                                                                                                                                                                                                                                                                                                                                                                                         
000004dc  gAddrTranslateConfig                                                                                                                                                                                                                                                                                                                                                                                                                           
000002d0  gAddrTranslateRegionConfig                                                                                                                                                                                                                                                                                                                                                                                                                     
000004c8  gClockConfig                                                                                                                                                                                                                                                                                                                                                                                                                                   
0003fd00  gClockCtrl                                                                                                                                                                                                                                                                                                                                                                                                                                     
0000052c  gDebugLogZone                                                                                                                                                                                                                                                                                                                                                                                                                                  
0003c100  gDebugMemLog                                                                                                                                                                                                                                                                                                                                                                                                                                   
00000534  gDebugMemLogSize                                                                                                                                                                                                                                                                                                                                                                                                                               
0003f2ac  gHwiCtrl                                                                                                                                                                                                                                                                                                                                                                                                                                       
00000000  gHwiP_vectorTable                                                                                                                                                                                                                                                                                                                                                                                                                              
0003f84c  gIpcNotifyCtrl                                                                                                                                                                                                                                                                                                                                                                                                                                 
00000540  gIpcNotifyInterruptConfigNum_m4fss0_0                                                                                                                                                                                                                                                                                                                                                                                                          
00000450  gIpcNotifyInterruptConfig_m4fss0_0                                                                                                                                                                                                                                                                                                                                                                                                             
00000480  gIpcNotifyMailboxBaseAddr                                                                                                                                                                                                                                                                                                                                                                                                                      
000001b0  gIpcNotifyMailboxConfig                                                                                                                                                                                                                                                                                                                                                                                                                        
0003e100  gIpcRpmsgCtrl                                                                                                                                                                                                                                                                                                                                                                                                                                  
0003f994  gMainTask                                                                                                                                                                                                                                                                                                                                                                                                                                      
00000244  gMainTaskObj                                                                                                                                                                                                                                                                                                                                                                                                                                   
00038100  gMainTaskStack                                                                                                                                                                                                                                                                                                                                                                                                                                 
000380b8  gMpuConfig                                                                                                                                                                                                                                                                                                                                                                                                                                     
00037c70  gMpuRegionConfig                                                                                                                                                                                                                                                                                                                                                                                                                               
00000544  gMsgEchoCount                                                                                                                                                                                                                                                                                                                                                                                                                                  
a5000000  gRPMessageVringMem                                                                                                                                                                                                                                                                                                                                                                                                                             
a4100000  gRPMessage_linuxResourceTable                                                                                                                                                                                                                                                                                                                                                                                                                  
0003fcac  gRovDummyQueue                                                                                                                                                                                                                                                                                                                                                                                                                                 
00036fb0  gSciclientMap                                                                                                                                                                                                                                                                                                                                                                                                                                  
000004a8  gSciclientSecProxyCfg                                                                                                                                                                                                                                                                                                                                                                                                                          
0000055c  gSocModules                                                                                                                                                                                                                                                                                                                                                                                                                                    
000004e8  gSocModulesClockFrequency                                                                                                                                                                                                                                                                                                                                                                                                                      
0003f998  gTaskP_ctrl                                                                                                                                                                                                                                                                                                                                                                                                                                    
00011911  getdevice                                                                                                                                                                                                                                                                                                                                                                                                                                      
0000bc01  ldexp                                                                                                                                                                                                                                                                                                                                                                                                                                          
0000bc01  ldexpl                                                                                                                                                                                                                                                                                                                                                                                                                                         
00015f09  localeconv                                                                                                                                                                                                                                                                                                                                                                                                                                     
00014e6d  lseek                                                                                                                                                                                                                                                                                                                                                                                                                                          
00010731  main                                                                                                                                                                                                                                                                                                                                                                                                                                           
00015f11  malloc                                                                                                                                                                                                                                                                                                                                                                                                                                         
0000b46d  memalign                                                                                                                                                                                                                                                                                                                                                                                                                                       
00015921  memccpy                                                                                                                                                                                                                                                                                                                                                                                                                                        
0001562b  memcmp                                                                                                                                                                                                                                                                                                                                                                                                                                         
000152e9  memmove                                                                                                                                                                                                                                                                                                                                                                                                                                        
0003fdc4  parmbuf                                                                                                                                                                                                                                                                                                                                                                                                                                        
00015f91  putchar_                                                                                                                                                                                                                                                                                                                                                                                                                                       
00015b83  pvTaskIncrementMutexHeldCount                                                                                                                                                                                                                                                                                                                                                                                                                  
00000568  pxCurrentTCB                                                                                                                                                                                                                                                                                                                                                                                                                                   
00015311  pxPortInitialiseStack                                                                                                                                                                                                                                                                                                                                                                                                                          
00014759  rand                                                                                                                                                                                                                                                                                                                                                                                                                                           
00015f95  remove                                                                                                                                                                                                                                                                                                                                                                                                                                         
0000bc01  scalbn                                                                                                                                                                                                                                                                                                                                                                                                                                         
0000bc01  scalbnl                                                                                                                                                                                                                                                                                                                                                                                                                                        
0000d939  setvbuf                                                                                                                                                                                                                                                                                                                                                                                                                                        
000138f1  snprintf                                                                                                                                                                                                                                                                                                                                                                                                                                       
000147bf  snprintf_                                                                                                                                                                                                                                                                                                                                                                                                                                      
0001443d  sprintf                                                                                                                                                                                                                                                                                                                                                                                                                                        
00015489  srand                                                                                                                                                                                                                                                                                                                                                                                                                                          
00015dc9  strlen                                                                                                                                                                                                                                                                                                                                                                                                                                         
00002cd1  strtod                                                                                                                                                                                                                                                                                                                                                                                                                                         
00002cd1  strtold                                                                                                                                                                                                                                                                                                                                                                                                                                        
00007e29  strtoll                                                                                                                                                                                                                                                                                                                                                                                                                                        
0000a4dd  strtoull                                                                                                                                                                                                                                                                                                                                                                                                                                       
00015f19  uiPortGetRunTimeCounterValue                                                                                                                                                                                                                                                                                                                                                                                                                   
00014e99  unlink                                                                                                                                                                                                                                                                                                                                                                                                                                         
000154ad  uxListRemove                                                                                                                                                                                                                                                                                                                                                                                                                                   
000380cc  uxTopUsedPriority                                                                                                                                                                                                                                                                                                                                                                                                                              
000159e9  vApplicationGetIdleTaskMemory                                                                                                                                                                                                                                                                                                                                                                                                                  
00015a05  vApplicationGetTimerTaskMemory                                                                                                                                                                                                                                                                                                                                                                                                                 
00015ed7  vApplicationIdleHook                                                                                                                                                                                                                                                                                                                                                                                                                           
00013fdb  vApplicationLoadHook                                                                                                                                                                                                                                                                                                                                                                                                                           
00014ca1  vApplicationStackOverflowHook                                                                                                                                                                                                                                                                                                                                                                                                                  
00015bf3  vListInitialise                                                                                                                                                                                                                                                                                                                                                                                                                                
00015f3f  vListInitialiseItem                                                                                                                                                                                                                                                                                                                                                                                                                            
000142b1  vListInsert                                                                                                                                                                                                                                                                                                                                                                                                                                    
00015a21  vListInsertEnd                                                                                                                                                                                                                                                                                                                                                                                                                                 
0000b34b  vPortConfigTimerForRunTimeStats                                                                                                                                                                                                                                                                                                                                                                                                                
00012199  vPortEnterCritical                                                                                                                                                                                                                                                                                                                                                                                                                             
00013935  vPortExitCritical                                                                                                                                                                                                                                                                                                                                                                                                                              
00015abf  vPortFree                                                                                                                                                                                                                                                                                                                                                                                                                                      
000154d1  vPortSVCHandler                                                                                                                                                                                                                                                                                                                                                                                                                                
00014019  vPortTimerTickHandler                                                                                                                                                                                                                                                                                                                                                                                                                          
00015339  vQueueAddToRegistry                                                                                                                                                                                                                                                                                                                                                                                                                            
00011ca1  vQueueDelete                                                                                                                                                                                                                                                                                                                                                                                                                                   
00013713  vQueueWaitForMessageRestricted                                                                                                                                                                                                                                                                                                                                                                                                                 
0000b229  vTaskDelete                                                                                                                                                                                                                                                                                                                                                                                                                                    
0000fd41  vTaskGetInfo                                                                                                                                                                                                                                                                                                                                                                                                                                   
00015ad9  vTaskInternalSetTimeOutState                                                                                                                                                                                                                                                                                                                                                                                                                   
00015de5  vTaskMissedYield                                                                                                                                                                                                                                                                                                                                                                                                                               
000130c5  vTaskPlaceOnEventList                                                                                                                                                                                                                                                                                                                                                                                                                          
00012685  vTaskPlaceOnEventListRestricted                                                                                                                                                                                                                                                                                                                                                                                                                
0000d85d  vTaskPriorityDisinheritAfterTimeout                                                                                                                                                                                                                                                                                                                                                                                                            
0000e471  vTaskStartScheduler                                                                                                                                                                                                                                                                                                                                                                                                                            
00015d2b  vTaskSuspendAll                                                                                                                                                                                                                                                                                                                                                                                                                                
0000d00d  vTaskSwitchContext                                                                                                                                                                                                                                                                                                                                                                                                                             
000154f5  vprintf_                                                                                                                                                                                                                                                                                                                                                                                                                                       
00014239  vsnprintf                                                                                                                                                                                                                                                                                                                                                                                                                                      
00015d3b  wcslen                                                                                                                                                                                                                                                                                                                                                                                                                                         
00014ec5  write                                                                                                                                                                                                                                                                                                                                                                                                                                          
