******************************************************************************
            TI ARM Clang Linker Unix v2.1.2                    
******************************************************************************
>> Linked Wed Aug  2 14:40:36 2023

OUTPUT FILE NAME:   <embedded_kafka.release.out>
ENTRY POINT SYMBOL: "_vectors"  address: 00000000


MEMORY CONFIGURATION

         name            origin    length      used     unused   attr    fill
----------------------  --------  ---------  --------  --------  ----  --------
  R5F_VECS              00000000   00000040  00000040  00000000  RWIX
  R5F_TCMA              00000040   00007fc0  00000008  00007fb8  RWIX
  R5F_TCMB0             41010000   00008000  00000000  00008000  RWIX
  FLASH                 60200000   00080000  00000000  00080000  RWIX
  NON_CACHE_MEM         70070000   00008000  00000000  00008000  RWIX
  MSRAM                 70100000   00040000  0003ef20  000010e0  RWIX
  USER_SHM_MEM          701d0000   00000080  00000000  00000080  RWIX
  LOG_SHM_MEM           701d0080   00003f80  00003800  00000780  RWIX
  RTOS_NORTOS_IPC_SHM_M 701d4000   0000c000  000099c0  00002640  RWIX


SEGMENT ALLOCATION MAP

run origin  load origin   length   init length attrs members
----------  ----------- ---------- ----------- ----- -------
00000000    00000000    00000048   00000048    r-x
  00000000    00000000    00000040   00000040    r-x .vectors
  00000040    00000040    00000008   00000008    r-- .ARM.exidx
70100000    70100000    00027650   00027650    r-x
  70100000    70100000    0001d7e0   0001d7e0    r-x .text
  7011d7e0    7011d7e0    00009e70   00009e70    r-- .rodata
70127660    70127660    00014da0   00000000    rw-
  70127660    70127660    00008da0   00000000    rw- .bss
  70130400    70130400    00008000   00000000    rw- .sysmem
  70138400    70138400    00004000   00000000    rw- .stack
7013c400    7013c400    00001098   00001098    r-x
  7013c400    7013c400    000008d0   000008d0    r-x .text.hwi
  7013ccd0    7013ccd0    00000450   00000450    r-x .text.cache
  7013d120    7013d120    00000240   00000240    r-x .text.mpu
  7013d360    7013d360    00000130   00000130    r-x .text.boot
  7013d490    7013d490    00000008   00000008    r-x .text:abort
7013d498    7013d498    00000698   00000698    rw-
  7013d498    7013d498    00000698   00000698    rw- .data
7013db30    7013db30    00001400   00000000    r--
  7013db30    7013db30    00000100   00000000    r-- .irqstack
  7013dc30    7013dc30    00000100   00000000    r-- .fiqstack
  7013dd30    7013dd30    00001000   00000000    r-- .svcstack
  7013ed30    7013ed30    00000100   00000000    r-- .abortstack
  7013ee30    7013ee30    00000100   00000000    r-- .undefinedstack


SECTION ALLOCATION MAP

 output                                  attributes/
section   page    origin      length       input sections
--------  ----  ----------  ----------   ----------------
.vectors   0    00000000    00000040     
                  00000000    00000040     freertos.am64x.r5f.ti-arm-clang.release.lib : HwiP_armv7r_vectors_freertos_asm.obj (.vectors)

.init_array 
*          0    00000048    00000000     UNINITIALIZED

.fini_array 
*          0    00000048    00000000     UNINITIALIZED

.text      0    70100000    0001d7e0     
                  70100000    00000fe8     libc.a : _printfi.c.obj (.text:__TI_printfi)
                  70100fe8    00000004            : _lock.c.obj (.text._nop)
                  70100fec    00000004            : fseek.c.obj (.text.fseek)
                  70100ff0    000007cc     Configurer.obj (.text._ZN8nlohmann16json_abi_v3_11_26detail10serializerINS0_10basic_jsonINSt3__13mapENS4_6vectorENS4_12basic_stringIcNS4_11char_traitsIcEENS4_9allocatorIcEEEEbxydSA_NS0_14adl_serializerENS6_IhNSA_IhEEEEvEEE4dumpERKSG_bbjj)
                  701017bc    00000004     libsysbm.a : remove.c.obj (.text.remove)
                  701017c0    000005aa     Configurer.obj (.text._ZN8nlohmann16json_abi_v3_11_26detail5lexerINS0_10basic_jsonINSt3__13mapENS4_6vectorENS4_12basic_stringIcNS4_11char_traitsIcEENS4_9allocatorIcEEEEbxydSA_NS0_14adl_serializerENS6_IhNSA_IhEEEEvEENS1_22iterator_input_adapterIPKcEEE11scan_stringEv)
                  70101d6a    00000002     --HOLE-- [fill = 0]
                  70101d6c    00000004     libclang_rt.builtins.a : aeabi_memcpy.S.obj (.text)
                  70101d70    000005aa     Configurer.obj (.text._ZN8nlohmann16json_abi_v3_11_26detail5lexerINS0_10basic_jsonINSt3__13mapENS4_6vectorENS4_12basic_stringIcNS4_11char_traitsIcEENS4_9allocatorIcEEEEbxydSA_NS0_14adl_serializerENS6_IhNSA_IhEEEEvEENS1_22iterator_input_adapterIPcEEE11scan_stringEv)
                  7010231a    00000002     --HOLE-- [fill = 0]
                  7010231c    00000004     libclang_rt.builtins.a : aeabi_memmove.S.obj (.text)
                  70102320    00000596     freertos.am64x.r5f.ti-arm-clang.release.lib : printf.obj (.text._vsnprintf)
                  701028b6    00000002     --HOLE-- [fill = 0]
                  701028b8    00000008     libc++.a : string.cpp.obj (.tramp._ZNSt3__112basic_stringIcNS_11char_traitsIcEENS_9allocatorIcEEEC1ERKS5_.1)
                  701028c0    00000516     Configurer.obj (.text._ZN10Configurer15handleOperationEPKcP8Endpoint)
                  70102dd6    00000002     --HOLE-- [fill = 0]
                  70102dd8    00000008     libc++abi.a : stdlib_stdexcept.cpp.obj (.tramp._ZNKSt13runtime_error4whatEv.1)
                  70102de0    000004e8     drivers.am64x.r5f.ti-arm-clang.release.lib : uart_v0.obj (.text.UART_open)
                  701032c8    000004cc     libc.a : strtod.c.obj (.text.strtod)
                  70103794    0000000c            : aeabi_portable.c.obj (.text.__aeabi_errno_addr)
                  701037a0    00000478     Configurer.obj (.text._ZN8nlohmann16json_abi_v3_11_26detail6parserINS0_10basic_jsonINSt3__13mapENS4_6vectorENS4_12basic_stringIcNS4_11char_traitsIcEENS4_9allocatorIcEEEEbxydSA_NS0_14adl_serializerENS6_IhNSA_IhEEEEvEENS1_22iterator_input_adapterIPKcEEE18sax_parse_internalINS1_28json_sax_dom_callback_parserISG_EEEEbPT_)
                  70103c18    00000008     libc++.a : string.cpp.obj (.tramp._ZNSt3__112basic_stringIcNS_11char_traitsIcEENS_9allocatorIcEEE6appendEPKcj.1)
                  70103c20    00000478     Configurer.obj (.text._ZN8nlohmann16json_abi_v3_11_26detail6parserINS0_10basic_jsonINSt3__13mapENS4_6vectorENS4_12basic_stringIcNS4_11char_traitsIcEENS4_9allocatorIcEEEEbxydSA_NS0_14adl_serializerENS6_IhNSA_IhEEEEvEENS1_22iterator_input_adapterIPcEEE18sax_parse_internalINS1_28json_sax_dom_callback_parserISG_EEEEbPT_)
                  70104098    00000008     libc++.a : string.cpp.obj (.tramp._ZNSt3__112basic_stringIcNS_11char_traitsIcEENS_9allocatorIcEEE9push_backEc.1)
                  701040a0    0000045c     Configurer.obj (.text._ZN8nlohmann16json_abi_v3_11_26detail6parserINS0_10basic_jsonINSt3__13mapENS4_6vectorENS4_12basic_stringIcNS4_11char_traitsIcEENS4_9allocatorIcEEEEbxydSA_NS0_14adl_serializerENS6_IhNSA_IhEEEEvEENS1_22iterator_input_adapterIPKcEEE18sax_parse_internalINS1_19json_sax_dom_parserISG_EEEEbPT_)
                  701044fc    00000004     --HOLE-- [fill = 0]
                  70104500    0000045c     Configurer.obj (.text._ZN8nlohmann16json_abi_v3_11_26detail6parserINS0_10basic_jsonINSt3__13mapENS4_6vectorENS4_12basic_stringIcNS4_11char_traitsIcEENS4_9allocatorIcEEEEbxydSA_NS0_14adl_serializerENS6_IhNSA_IhEEEEvEENS1_22iterator_input_adapterIPcEEE18sax_parse_internalINS1_19json_sax_dom_parserISG_EEEEbPT_)
                  7010495c    00000004     --HOLE-- [fill = 0]
                  70104960    00000452     Broker.obj (.text._ZN6Broker15handleOperationEPKcP8Endpoint)
                  70104db2    00000002     --HOLE-- [fill = 0]
                  70104db4    0000000c     libc.a : setlocale.c.obj (.text.localeconv)
                  70104dc0    000003b0     Configurer.obj (.text._ZN8nlohmann16json_abi_v3_11_26detail9dtoa_impl16grisu2_digit_genEPcRiS4_NS2_5diyfpES5_S5_)
                  70105170    000003a2     Configurer.obj (.text._ZN10Configurer9checkInitEv)
                  70105512    00000002     --HOLE-- [fill = 0]
                  70105514    0000000c     libc.a : memory.c.obj (.text.malloc)
                  70105520    00000390     Configurer.obj (.text._ZN8nlohmann16json_abi_v3_11_210basic_jsonINSt3__13mapENS2_6vectorENS2_12basic_stringIcNS2_11char_traitsIcEENS2_9allocatorIcEEEEbxydS8_NS0_14adl_serializerENS4_IhNS8_IhEEEEvE10json_value7destroyENS0_6detail7value_tE)
                  701058b0    00000388     freertos.am64x.r5f.ti-arm-clang.release.lib : printf.obj (.text._ftoa)
                  70105c38    00000008     libc++.a : memory.cpp.obj (.tramp._ZNSt3__119__shared_weak_countD2Ev.1)
                  70105c40    0000037e     drivers.am64x.r5f.ti-arm-clang.release.lib : sciclient.obj (.text.Sciclient_service)
                  70105fbe    00000002     --HOLE-- [fill = 0]
                  70105fc0    00000372                                                : ipc_notify_v0.obj (.text.IpcNotify_init)
                  70106332    00000002     --HOLE-- [fill = 0]
                  70106334    00000008     libc++.a : string.cpp.obj (.tramp._ZNSt3__112basic_stringIcNS_11char_traitsIcEENS_9allocatorIcEEEaSERKS5_.1)
                  7010633c    00000004     --HOLE-- [fill = 0]
                  70106340    00000354              : charconv.cpp.obj (.text._ZNSt3__16__itoa8__u32toaEjPc)
                  70106694    00000008     libc++abi.a : stdlib_exception.cpp.obj (.tramp._ZNSt9exceptionD2Ev.1)
                  7010669c    00000004     --HOLE-- [fill = 0]
                  701066a0    00000310     freertos.am64x.r5f.ti-arm-clang.release.lib : printf.obj (.text._etoa)
                  701069b0    000002d0     Configurer.obj (.text._ZN8nlohmann16json_abi_v3_11_26detail5lexerINS0_10basic_jsonINSt3__13mapENS4_6vectorENS4_12basic_stringIcNS4_11char_traitsIcEENS4_9allocatorIcEEEEbxydSA_NS0_14adl_serializerENS6_IhNSA_IhEEEEvEENS1_22iterator_input_adapterIPKcEEE11scan_numberEv)
                  70106c80    000002d0     Configurer.obj (.text._ZN8nlohmann16json_abi_v3_11_26detail5lexerINS0_10basic_jsonINSt3__13mapENS4_6vectorENS4_12basic_stringIcNS4_11char_traitsIcEENS4_9allocatorIcEEEEbxydSA_NS0_14adl_serializerENS6_IhNSA_IhEEEEvEENS1_22iterator_input_adapterIPcEEE11scan_numberEv)
                  70106f50    000002ce     Broker.obj (.text._ZN6Broker12askForTopicsEv)
                  7010721e    00000002     --HOLE-- [fill = 0]
                  70107220    000002ac     Configurer.obj (.text._ZN8nlohmann16json_abi_v3_11_26detail6parserINS0_10basic_jsonINSt3__13mapENS4_6vectorENS4_12basic_stringIcNS4_11char_traitsIcEENS4_9allocatorIcEEEEbxydSA_NS0_14adl_serializerENS6_IhNSA_IhEEEEvEENS1_22iterator_input_adapterIPKcEEE5parseEbRSG_)
                  701074cc    00000004     --HOLE-- [fill = 0]
                  701074d0    000002ac     Configurer.obj (.text._ZN8nlohmann16json_abi_v3_11_26detail6parserINS0_10basic_jsonINSt3__13mapENS4_6vectorENS4_12basic_stringIcNS4_11char_traitsIcEENS4_9allocatorIcEEEEbxydSA_NS0_14adl_serializerENS6_IhNSA_IhEEEEvEENS1_22iterator_input_adapterIPcEEE5parseEbRSG_)
                  7010777c    00000004     --HOLE-- [fill = 0]
                  70107780    000002a6     Configurer.obj (.text._ZN8nlohmann16json_abi_v3_11_26detail10serializerINS0_10basic_jsonINSt3__13mapENS4_6vectorENS4_12basic_stringIcNS4_11char_traitsIcEENS4_9allocatorIcEEEEbxydSA_NS0_14adl_serializerENS6_IhNSA_IhEEEEvEEE12dump_escapedERKSC_b)
                  70107a26    00000002     --HOLE-- [fill = 0]
                  70107a28    00000008     freertos.am64x.r5f.ti-arm-clang.release.lib : HwiP_armv7r_asm.obj (.tramp.HwiP_enable.1)
                  70107a30    000002a2     embedded_kafka.obj (.text._Z6testeriiNSt3__112basic_stringIcNS_11char_traitsIcEENS_9allocatorIcEEEE)
                  70107cd2    00000002     --HOLE-- [fill = 0]
                  70107cd4    0000028c     libc.a : strtoll.c.obj (.text.strtoll)
                  70107f60    0000027c     Configurer.obj (.text._ZN10Configurer14retrieveTopicsEv)
                  701081dc    00000004     --HOLE-- [fill = 0]
                  701081e0    00000278     libc.a : _printfi.c.obj (.text._pconv_a)
                  70108458    00000008     freertos.am64x.r5f.ti-arm-clang.release.lib : PmuP_armv7r_asm.obj (.tramp.PmuP_enableCounters.1)
                  70108460    00000242     Configurer.obj (.text._ZNSt3__113__tree_removeIPNS_16__tree_node_baseIPvEEEEvT_S5_)
                  701086a2    00000006     --HOLE-- [fill = 0]
                  701086a8    00000230     libc.a : _printfi.c.obj (.text._pconv_g)
                  701088d8    00000230            : strtoull.c.obj (.text.strtoull)
                  70108b08    00000008     libc++abi.a : stdlib_new_delete.cpp.obj (.tramp._ZdlPv.1)
                  70108b10    00000224     TopicProxy.obj (.text._ZN10TopicProxy4pollE16ConsumerMetadata)
                  70108d34    00000008     libc.a : aeabi_portable.c.obj (.tramp.__aeabi_assert.1)
                  70108d3c    00000004     --HOLE-- [fill = 0]
                  70108d40    0000021e     freertos.am64x.r5f.ti-arm-clang.release.lib : timers.obj (.text.prvTimerTask)
                  70108f5e    00000002     --HOLE-- [fill = 0]
                  70108f60    0000021a     drivers.am64x.r5f.ti-arm-clang.release.lib : uart_v0.obj (.text.UART_masterIsr)
                  7010917a    00000006     --HOLE-- [fill = 0]
                  70109180    00000210     libc++abi.a : private_typeinfo.cpp.obj (.text._ZNK10__cxxabiv120__si_class_type_info16search_below_dstEPNS_19__dynamic_cast_infoEPKvib)
                  70109390    0000020a     Configurer.obj (.text._ZN8nlohmann16json_abi_v3_11_26detail6parserINS0_10basic_jsonINSt3__13mapENS4_6vectorENS4_12basic_stringIcNS4_11char_traitsIcEENS4_9allocatorIcEEEEbxydSA_NS0_14adl_serializerENS6_IhNSA_IhEEEEvEENS1_22iterator_input_adapterIPKcEEE17exception_messageENS1_10lexer_baseISG_E10token_typeERKSC_)
                  7010959a    00000006     --HOLE-- [fill = 0]
                  701095a0    0000020a     Configurer.obj (.text._ZN8nlohmann16json_abi_v3_11_26detail6parserINS0_10basic_jsonINSt3__13mapENS4_6vectorENS4_12basic_stringIcNS4_11char_traitsIcEENS4_9allocatorIcEEEEbxydSA_NS0_14adl_serializerENS6_IhNSA_IhEEEEvEENS1_22iterator_input_adapterIPcEEE17exception_messageENS1_10lexer_baseISG_E10token_typeERKSC_)
                  701097aa    00000006     --HOLE-- [fill = 0]
                  701097b0    00000208     libc++.a : string.cpp.obj (.text._ZNSt3__112basic_stringIcNS_11char_traitsIcEENS_9allocatorIcEEEaSERKS5_)
                  701099b8    00000008     --HOLE-- [fill = 0]
                  701099c0    00000204     Configurer.obj (.text._ZN8nlohmann16json_abi_v3_11_26detail10serializerINS0_10basic_jsonINSt3__13mapENS4_6vectorENS4_12basic_stringIcNS4_11char_traitsIcEENS4_9allocatorIcEEEEbxydSA_NS0_14adl_serializerENS6_IhNSA_IhEEEEvEEE12dump_integerIxLi0EEEvT_)
                  70109bc4    0000000c     --HOLE-- [fill = 0]
                  70109bd0    000001fe     drivers.am64x.r5f.ti-arm-clang.release.lib : uart_v0.obj (.text.UART_write)
                  70109dce    00000002     --HOLE-- [fill = 0]
                  70109dd0    000001fe     Configurer.obj (.text._ZN8nlohmann16json_abi_v3_11_26detail28json_sax_dom_callback_parserINS0_10basic_jsonINSt3__13mapENS4_6vectorENS4_12basic_stringIcNS4_11char_traitsIcEENS4_9allocatorIcEEEEbxydSA_NS0_14adl_serializerENS6_IhNSA_IhEEEEvEEE12handle_valueIRSC_EENS4_4pairIbPSG_EEOT_b)
                  70109fce    00000002     --HOLE-- [fill = 0]
                  70109fd0    000001fc     Configurer.obj (.text._ZN8nlohmann16json_abi_v3_11_26detail28json_sax_dom_callback_parserINS0_10basic_jsonINSt3__13mapENS4_6vectorENS4_12basic_stringIcNS4_11char_traitsIcEENS4_9allocatorIcEEEEbxydSA_NS0_14adl_serializerENS6_IhNSA_IhEEEEvEEE12handle_valueIDnEENS4_4pairIbPSG_EEOT_b)
                  7010a1cc    00000004     --HOLE-- [fill = 0]
                  7010a1d0    000001fa     Configurer.obj (.text._ZN8nlohmann16json_abi_v3_11_26detail28json_sax_dom_callback_parserINS0_10basic_jsonINSt3__13mapENS4_6vectorENS4_12basic_stringIcNS4_11char_traitsIcEENS4_9allocatorIcEEEEbxydSA_NS0_14adl_serializerENS6_IhNSA_IhEEEEvEEE12handle_valueINS1_7value_tEEENS4_4pairIbPSG_EEOT_b)
                  7010a3ca    00000006     --HOLE-- [fill = 0]
                  7010a3d0    000001f6     BrokerMetadata.obj (.text._ZN14BrokerMetadata9from_jsonERKN8nlohmann16json_abi_v3_11_210basic_jsonINSt3__13mapENS3_6vectorENS3_12basic_stringIcNS3_11char_traitsIcEENS3_9allocatorIcEEEEbxydS9_NS1_14adl_serializerENS5_IhNS9_IhEEEEvEE)
                  7010a5c6    0000000a     --HOLE-- [fill = 0]
                  7010a5d0    000001f0     libc++abi.a : private_typeinfo.cpp.obj (.text._ZNK10__cxxabiv117__class_type_info9can_catchEPKNS_16__shim_type_infoERPv)
                  7010a7c0    000001ec     Configurer.obj (.text._ZN8nlohmann16json_abi_v3_11_26detail28json_sax_dom_callback_parserINS0_10basic_jsonINSt3__13mapENS4_6vectorENS4_12basic_stringIcNS4_11char_traitsIcEENS4_9allocatorIcEEEEbxydSA_NS0_14adl_serializerENS6_IhNSA_IhEEEEvEEE12handle_valueIRbEENS4_4pairIbPSG_EEOT_b)
                  7010a9ac    00000004     --HOLE-- [fill = 0]
                  7010a9b0    000001ec     Configurer.obj (.text._ZN8nlohmann16json_abi_v3_11_26detail28json_sax_dom_callback_parserINS0_10basic_jsonINSt3__13mapENS4_6vectorENS4_12basic_stringIcNS4_11char_traitsIcEENS4_9allocatorIcEEEEbxydSA_NS0_14adl_serializerENS6_IhNSA_IhEEEEvEEE12handle_valueIRdEENS4_4pairIbPSG_EEOT_b)
                  7010ab9c    00000004     --HOLE-- [fill = 0]
                  7010aba0    000001ec     Configurer.obj (.text._ZN8nlohmann16json_abi_v3_11_26detail28json_sax_dom_callback_parserINS0_10basic_jsonINSt3__13mapENS4_6vectorENS4_12basic_stringIcNS4_11char_traitsIcEENS4_9allocatorIcEEEEbxydSA_NS0_14adl_serializerENS6_IhNSA_IhEEEEvEEE12handle_valueIRxEENS4_4pairIbPSG_EEOT_b)
                  7010ad8c    00000004     --HOLE-- [fill = 0]
                  7010ad90    000001ec     Configurer.obj (.text._ZN8nlohmann16json_abi_v3_11_26detail28json_sax_dom_callback_parserINS0_10basic_jsonINSt3__13mapENS4_6vectorENS4_12basic_stringIcNS4_11char_traitsIcEENS4_9allocatorIcEEEEbxydSA_NS0_14adl_serializerENS6_IhNSA_IhEEEEvEEE12handle_valueIRyEENS4_4pairIbPSG_EEOT_b)
                  7010af7c    00000004     --HOLE-- [fill = 0]
                  7010af80    000001de     TopicFactory.obj (.text._ZN12TopicFactory12createTopicsEv)
                  7010b15e    00000002     --HOLE-- [fill = 0]
                  7010b160    000001dc     Configurer.obj (.text._ZN8nlohmann16json_abi_v3_11_26detail9dtoa_impl13format_bufferEPciiii)
                  7010b33c    000001d0     libclang_rt.builtins.a : udivsi3.S.obj (.text)
                  7010b50c    00000004     --HOLE-- [fill = 0]
                  7010b510    000001cc     Configurer.obj (.text._ZNSt3__116__copy_unalignedINS_6vectorIbNS_9allocatorIbEEEELb0EEENS_14__bit_iteratorIT_Lb0ELi0EEENS5_IS6_XT0_ELi0EEES8_S7_)
                  7010b6dc    00000004     --HOLE-- [fill = 0]
                  7010b6e0    000001cc     freertos.am64x.r5f.ti-arm-clang.release.lib : queue.obj (.text.xQueueSemaphoreTake)
                  7010b8ac    00000004     --HOLE-- [fill = 0]
                  7010b8b0    000001c6     UDPEndpoint.obj (.text._ZNK11UDPEndpoint7to_jsonERN8nlohmann16json_abi_v3_11_210basic_jsonINSt3__13mapENS3_6vectorENS3_12basic_stringIcNS3_11char_traitsIcEENS3_9allocatorIcEEEEbxydS9_NS1_14adl_serializerENS5_IhNS9_IhEEEEvEE)
                  7010ba76    0000000a     --HOLE-- [fill = 0]
                  7010ba80    000001c0     freertos.am64x.r5f.ti-arm-clang.release.lib : TimerP.obj (.text.TimerP_setup)
                  7010bc40    000001b8     libc++.a : string.cpp.obj (.text._ZNSt3__112basic_stringIcNS_11char_traitsIcEENS_9allocatorIcEEE6resizeEjc)
                  7010bdf8    000001b8     libc.a : memory.c.obj (.text.aligned_alloc)
                  7010bfb0    000001b8            : memory.c.obj (.text.free)
                  7010c168    00000008     --HOLE-- [fill = 0]
                  7010c170    000001b4     RPMessageEndpoint.obj (.text._ZNK17RPMessageEndpoint7to_jsonERN8nlohmann16json_abi_v3_11_210basic_jsonINSt3__13mapENS3_6vectorENS3_12basic_stringIcNS3_11char_traitsIcEENS3_9allocatorIcEEEEbxydS9_NS1_14adl_serializerENS5_IhNS9_IhEEEEvEE)
                  7010c324    0000000c     --HOLE-- [fill = 0]
                  7010c330    000001b2     TopicProxy.obj (.text._ZN10TopicProxy7publishE16ProducerMetadata6Record)
                  7010c4e2    0000000e     --HOLE-- [fill = 0]
                  7010c4f0    000001ae     freertos.am64x.r5f.ti-arm-clang.release.lib : queue.obj (.text.xQueueGenericSend)
                  7010c69e    00000002     --HOLE-- [fill = 0]
                  7010c6a0    000001a8     libc++.a : string.cpp.obj (.text._ZNSt3__112basic_stringIcNS_11char_traitsIcEENS_9allocatorIcEEE6appendEPKc)
                  7010c848    000001a4     libc.a : fputs.c.obj (.text.fputs)
                  7010c9ec    00000004     --HOLE-- [fill = 0]
                  7010c9f0    00000198     libc++.a : string.cpp.obj (.text._ZNSt3__112basic_stringIcNS_11char_traitsIcEENS_9allocatorIcEEE6appendEPKcj)
                  7010cb88    00000008     --HOLE-- [fill = 0]
                  7010cb90    00000184     freertos.am64x.r5f.ti-arm-clang.release.lib : queue.obj (.text.xQueueReceive)
                  7010cd14    0000000c     --HOLE-- [fill = 0]
                  7010cd20    00000176     TopicHandler.obj (.text._ZN12TopicHandler4saveE6Record13TopicMetadata16ProducerMetadata)
                  7010ce96    0000000a     --HOLE-- [fill = 0]
                  7010cea0    00000176     ClusterMetadata.obj (.text._ZN15ClusterMetadata9from_jsonERKN8nlohmann16json_abi_v3_11_210basic_jsonINSt3__13mapENS3_6vectorENS3_12basic_stringIcNS3_11char_traitsIcEENS3_9allocatorIcEEEEbxydS9_NS1_14adl_serializerENS5_IhNS9_IhEEEEvEE)
                  7010d016    0000000a     --HOLE-- [fill = 0]
                  7010d020    00000174     Configurer.obj (.text._ZN8nlohmann16json_abi_v3_11_26detail28json_sax_dom_callback_parserINS0_10basic_jsonINSt3__13mapENS4_6vectorENS4_12basic_stringIcNS4_11char_traitsIcEENS4_9allocatorIcEEEEbxydSA_NS0_14adl_serializerENS6_IhNSA_IhEEEEvEEE10end_objectEv)
                  7010d194    0000000c     --HOLE-- [fill = 0]
                  7010d1a0    00000168     TopicProxy.obj (.text._ZN10TopicProxy11unsubscribeE16ConsumerMetadata)
                  7010d308    00000008     --HOLE-- [fill = 0]
                  7010d310    00000168     TopicProxy.obj (.text._ZN10TopicProxy9subscribeE16ConsumerMetadata)
                  7010d478    00000008     --HOLE-- [fill = 0]
                  7010d480    00000168     SystemManager.obj (.text._ZN13SystemManager8askForIDEv)
                  7010d5e8    00000008     --HOLE-- [fill = 0]
                  7010d5f0    00000168     libc++.a : string.cpp.obj (.text._ZNSt3__112basic_stringIcNS_11char_traitsIcEENS_9allocatorIcEEE7reserveEj)
                  7010d758    00000008     --HOLE-- [fill = 0]
                  7010d760    00000164     Configurer.obj (.text._ZN8nlohmann16json_abi_v3_11_26detail9dtoa_impl12grisu2_roundEPciyyyy)
                  7010d8c4    0000000c     --HOLE-- [fill = 0]
                  7010d8d0    0000015e     freertos.am64x.r5f.ti-arm-clang.release.lib : tasks.obj (.text.xTaskIncrementTick)
                  7010da2e    00000002     --HOLE-- [fill = 0]
                  7010da30    0000015c     Configurer.obj (.text._ZN8nlohmann16json_abi_v3_11_26detail10serializerINS0_10basic_jsonINSt3__13mapENS4_6vectorENS4_12basic_stringIcNS4_11char_traitsIcEENS4_9allocatorIcEEEEbxydSA_NS0_14adl_serializerENS6_IhNSA_IhEEEEvEEE12dump_integerIyLi0EEEvT_)
                  7010db8c    00000004     --HOLE-- [fill = 0]
                  7010db90    00000158     SystemManager.obj (.text._ZN13SystemManager4initEv)
                  7010dce8    00000008     --HOLE-- [fill = 0]
                  7010dcf0    00000154     libc++abi.a : private_typeinfo.cpp.obj (.text._ZNK10__cxxabiv117__class_type_info16search_below_dstEPNS_19__dynamic_cast_infoEPKvib)
                  7010de44    0000000c     --HOLE-- [fill = 0]
                  7010de50    00000150     Configurer.obj (.text._ZN8nlohmann16json_abi_v3_11_26detail5lexerINS0_10basic_jsonINSt3__13mapENS4_6vectorENS4_12basic_stringIcNS4_11char_traitsIcEENS4_9allocatorIcEEEEbxydSA_NS0_14adl_serializerENS6_IhNSA_IhEEEEvEENS1_22iterator_input_adapterIPKcEEE4scanEv)
                  7010dfa0    00000150     Configurer.obj (.text._ZN8nlohmann16json_abi_v3_11_26detail5lexerINS0_10basic_jsonINSt3__13mapENS4_6vectorENS4_12basic_stringIcNS4_11char_traitsIcEENS4_9allocatorIcEEEEbxydSA_NS0_14adl_serializerENS6_IhNSA_IhEEEEvEENS1_22iterator_input_adapterIPcEEE4scanEv)
                  7010e0f0    0000014c     Configurer.obj (.text._ZN8nlohmann16json_abi_v3_11_26detail19json_sax_dom_parserINS0_10basic_jsonINSt3__13mapENS4_6vectorENS4_12basic_stringIcNS4_11char_traitsIcEENS4_9allocatorIcEEEEbxydSA_NS0_14adl_serializerENS6_IhNSA_IhEEEEvEEE12handle_valueIRbEEPSG_OT_)
                  7010e23c    00000004     --HOLE-- [fill = 0]
                  7010e240    0000014c     Configurer.obj (.text._ZN8nlohmann16json_abi_v3_11_26detail19json_sax_dom_parserINS0_10basic_jsonINSt3__13mapENS4_6vectorENS4_12basic_stringIcNS4_11char_traitsIcEENS4_9allocatorIcEEEEbxydSA_NS0_14adl_serializerENS6_IhNSA_IhEEEEvEEE12handle_valueIRdEEPSG_OT_)
                  7010e38c    00000004     --HOLE-- [fill = 0]
                  7010e390    0000014c     Configurer.obj (.text._ZN8nlohmann16json_abi_v3_11_26detail19json_sax_dom_parserINS0_10basic_jsonINSt3__13mapENS4_6vectorENS4_12basic_stringIcNS4_11char_traitsIcEENS4_9allocatorIcEEEEbxydSA_NS0_14adl_serializerENS6_IhNSA_IhEEEEvEEE12handle_valueIRxEEPSG_OT_)
                  7010e4dc    00000004     --HOLE-- [fill = 0]
                  7010e4e0    0000014c     Configurer.obj (.text._ZN8nlohmann16json_abi_v3_11_26detail19json_sax_dom_parserINS0_10basic_jsonINSt3__13mapENS4_6vectorENS4_12basic_stringIcNS4_11char_traitsIcEENS4_9allocatorIcEEEEbxydSA_NS0_14adl_serializerENS6_IhNSA_IhEEEEvEEE12handle_valueIRyEEPSG_OT_)
                  7010e62c    00000004     --HOLE-- [fill = 0]
                  7010e630    00000148     libc.a : _printfi.c.obj (.text.fcvt)
                  7010e778    00000008     --HOLE-- [fill = 0]
                  7010e780    00000146     drivers.am64x.r5f.ti-arm-clang.release.lib : uart_v0.obj (.text.UART_close)
                  7010e8c6    00000002     --HOLE-- [fill = 0]
                  7010e8c8    00000144     libc.a : setvbuf.c.obj (.text.setvbuf)
                  7010ea0c    00000004     --HOLE-- [fill = 0]
                  7010ea10    00000140            : s_scalbn.c.obj (.text.scalbn)
                  7010eb50    00000140     freertos.am64x.r5f.ti-arm-clang.release.lib : tasks.obj (.text.xTaskResumeAll)
                  7010ec90    0000013c     Configurer.obj (.text._ZN8nlohmann16json_abi_v3_11_26detail9dtoa_impl6grisu2EPcRiS4_NS2_5diyfpES5_S5_)
                  7010edcc    00000004     --HOLE-- [fill = 0]
                  7010edd0    00000138     Configurer.obj (.text._ZN8nlohmann16json_abi_v3_11_26detail8to_charsIdEEPcS3_PKcT_)
                  7010ef08    00000008     --HOLE-- [fill = 0]
                  7010ef10    00000138     BrokerMetadata.obj (.text._ZNK14BrokerMetadata7to_jsonERN8nlohmann16json_abi_v3_11_210basic_jsonINSt3__13mapENS3_6vectorENS3_12basic_stringIcNS3_11char_traitsIcEENS3_9allocatorIcEEEEbxydS9_NS1_14adl_serializerENS5_IhNS9_IhEEEEvEE)
                  7010f048    00000138     libc.a : _printfi.c.obj (.text._pconv_e)
                  7010f180    00000136     freertos.am64x.r5f.ti-arm-clang.release.lib : ClockP_freertos_r5.obj (.text.ClockP_init)
                  7010f2b6    0000000a     --HOLE-- [fill = 0]
                  7010f2c0    00000136     drivers.am64x.r5f.ti-arm-clang.release.lib : ipc_rpmsg.obj (.text.RPMessage_recv)
                  7010f3f6    0000000a     --HOLE-- [fill = 0]
                  7010f400    00000132     Configurer.obj (.text._ZNSt3__127__tree_balance_after_insertIPNS_16__tree_node_baseIPvEEEEvT_S5_)
                  7010f532    0000000e     --HOLE-- [fill = 0]
                  7010f540    00000132     freertos.am64x.r5f.ti-arm-clang.release.lib : printf.obj (.text._ntoa_format)
                  7010f672    0000000e     --HOLE-- [fill = 0]
                  7010f680    00000130     Configurer.obj (.text._ZN8nlohmann16json_abi_v3_11_26detail12out_of_range6createIDnLi0EEES2_iRKNSt3__112basic_stringIcNS4_11char_traitsIcEENS4_9allocatorIcEEEET_)
                  7010f7b0    0000012a     drivers.am64x.r5f.ti-arm-clang.release.lib : soc.obj (.text.SOC_moduleSetClockFrequency)
                  7010f8da    00000006     --HOLE-- [fill = 0]
                  7010f8e0    0000012a     ConsumerMetadata.obj (.text._ZNK16ConsumerMetadata7to_jsonERN8nlohmann16json_abi_v3_11_210basic_jsonINSt3__13mapENS3_6vectorENS3_12basic_stringIcNS3_11char_traitsIcEENS3_9allocatorIcEEEEbxydS9_NS1_14adl_serializerENS5_IhNS9_IhEEEEvEE)
                  7010fa0a    00000006     --HOLE-- [fill = 0]
                  7010fa10    00000128     libc++abi.a : private_typeinfo.cpp.obj (.text._ZNK10__cxxabiv120__si_class_type_info16search_above_dstEPNS_19__dynamic_cast_infoEPKvS4_ib)
                  7010fb38    00000008     --HOLE-- [fill = 0]
                  7010fb40    00000128     libc++.a : string.cpp.obj (.text._ZNSt3__19to_stringEi)
                  7010fc68    00000008     --HOLE-- [fill = 0]
                  7010fc70    00000128     freertos.am64x.r5f.ti-arm-clang.release.lib : tasks.obj (.text.vTaskSwitchContext)
                  7010fd98    00000008     --HOLE-- [fill = 0]
                  7010fda0    00000126                                                 : queue.obj (.text.xQueueGenericSendFromISR)
                  7010fec6    0000000a     --HOLE-- [fill = 0]
                  7010fed0    00000120     Configurer.obj (.text._ZN8nlohmann16json_abi_v3_11_26detail9dtoa_impl18compute_boundariesIdEENS2_10boundariesET_)
                  7010fff0    00000118     libclang_rt.builtins.a : udivmoddi4.S.obj (.text)
                  70110108    00000008     --HOLE-- [fill = 0]
                  70110110    00000116     TopicHandler.obj (.text._ZN12TopicHandler4pollE16ConsumerMetadata13TopicMetadata)
                  70110226    0000000a     --HOLE-- [fill = 0]
                  70110230    00000114     libc++abi.a : private_typeinfo.cpp.obj (.text._ZNK10__cxxabiv117__class_type_info16search_above_dstEPNS_19__dynamic_cast_infoEPKvS4_ib)
                  70110344    0000000c     --HOLE-- [fill = 0]
                  70110350    00000112     Configurer.obj (.text._ZN8nlohmann16json_abi_v3_11_26detail9dtoa_impl36get_cached_power_for_binary_exponentEi)
                  70110462    0000000e     --HOLE-- [fill = 0]
                  70110470    00000112     freertos.am64x.r5f.ti-arm-clang.release.lib : tasks.obj (.text.prvAddNewTaskToReadyList)
                  70110582    0000000e     --HOLE-- [fill = 0]
                  70110590    0000010c     drivers.am64x.r5f.ti-arm-clang.release.lib : ipc_rpmsg.obj (.text.RPMessage_recvHandler)
                  7011069c    00000004     --HOLE-- [fill = 0]
                  701106a0    0000010c     Configurer.obj (.text._ZN8nlohmann16json_abi_v3_11_26detail19json_sax_dom_parserINS0_10basic_jsonINSt3__13mapENS4_6vectorENS4_12basic_stringIcNS4_11char_traitsIcEENS4_9allocatorIcEEEEbxydSA_NS0_14adl_serializerENS6_IhNSA_IhEEEEvEEE12handle_valueIRSC_EEPSG_OT_)
                  701107ac    00000004     --HOLE-- [fill = 0]
                  701107b0    00000108     ti_drivers_config.obj (.text.System_init)
                  701108b8    00000008     --HOLE-- [fill = 0]
                  701108c0    00000108     Configurer.obj (.text._ZN8nlohmann16json_abi_v3_11_26detail19json_sax_dom_parserINS0_10basic_jsonINSt3__13mapENS4_6vectorENS4_12basic_stringIcNS4_11char_traitsIcEENS4_9allocatorIcEEEEbxydSA_NS0_14adl_serializerENS6_IhNSA_IhEEEEvEEE12handle_valueIDnEEPSG_OT_)
                  701109c8    00000008     --HOLE-- [fill = 0]
                  701109d0    00000106     freertos.am64x.r5f.ti-arm-clang.release.lib : queue.obj (.text.xQueueGiveFromISR)
                  70110ad6    0000000a     --HOLE-- [fill = 0]
                  70110ae0    00000100     drivers.am64x.r5f.ti-arm-clang.release.lib : ipc_rpmsg.obj (.text.RPMessage_send)
                  70110be0    00000100     Configurer.obj (.text._ZN8nlohmann16json_abi_v3_11_26detail19json_sax_dom_parserINS0_10basic_jsonINSt3__13mapENS4_6vectorENS4_12basic_stringIcNS4_11char_traitsIcEENS4_9allocatorIcEEEEbxydSA_NS0_14adl_serializerENS6_IhNSA_IhEEEEvEEE12handle_valueINS1_7value_tEEEPSG_OT_)
                  70110ce0    00000100     Configurer.obj (.text._ZN8nlohmann16json_abi_v3_11_26detail28json_sax_dom_callback_parserINS0_10basic_jsonINSt3__13mapENS4_6vectorENS4_12basic_stringIcNS4_11char_traitsIcEENS4_9allocatorIcEEEEbxydSA_NS0_14adl_serializerENS6_IhNSA_IhEEEEvEEE11start_arrayEj)
                  70110de0    00000100     RealTopic.obj (.text._ZN9RealTopic4pollE16ConsumerMetadata)
                  70110ee0    000000fe     Configurer.obj (.text._ZN8nlohmann16json_abi_v3_11_26detail28json_sax_dom_callback_parserINS0_10basic_jsonINSt3__13mapENS4_6vectorENS4_12basic_stringIcNS4_11char_traitsIcEENS4_9allocatorIcEEEEbxydSA_NS0_14adl_serializerENS6_IhNSA_IhEEEEvEEE12start_objectEj)
                  70110fde    00000002     --HOLE-- [fill = 0]
                  70110fe0    000000fe     Configurer.obj (.text._ZNSt3__16__treeINS_12__value_typeINS_12basic_stringIcNS_11char_traitsIcEENS_9allocatorIcEEEEN8nlohmann16json_abi_v3_11_210basic_jsonINS_3mapENS_6vectorES7_bxydS5_NS9_14adl_serializerENSC_IhNS5_IhEEEEvEEEENS_19__map_value_compareIS7_SH_NS_4lessIvEELb1EEENS5_ISH_EEE12__find_equalIS7_EERPNS_16__tree_node_baseIPvEENS_21__tree_const_iteratorISH_PNS_11__tree_nodeISH_SQ_EEiEERPNS_15__tree_end_nodeISS_EEST_RKT_)
                  701110de    00000002     --HOLE-- [fill = 0]
                  701110e0    000000fc     Configurer.obj (.text._ZN8nlohmann16json_abi_v3_11_210basic_jsonINSt3__13mapENS2_6vectorENS2_12basic_stringIcNS2_11char_traitsIcEENS2_9allocatorIcEEEEbxydS8_NS0_14adl_serializerENS4_IhNS8_IhEEEEvE5eraseINS0_6detail9iter_implISE_EELi0EEET_SJ_)
                  701111dc    00000004     --HOLE-- [fill = 0]
                  701111e0    000000fc     Configurer.obj (.text._ZN8nlohmann16json_abi_v3_11_26detail6concatINSt3__112basic_stringIcNS3_11char_traitsIcEENS3_9allocatorIcEEEEJS9_RA12_KcS9_RA3_SA_S9_RKS9_EEET_DpOT0_)
                  701112dc    00000004     --HOLE-- [fill = 0]
                  701112e0    000000fc     freertos.am64x.r5f.ti-arm-clang.release.lib : queue.obj (.text.xQueueGenericCreateStatic)
                  701113dc    00000004     --HOLE-- [fill = 0]
                  701113e0    000000fa                                                 : queue.obj (.text.xQueueReceiveFromISR)
                  701114da    00000006     --HOLE-- [fill = 0]
                  701114e0    000000f8     libc++.a : string.cpp.obj (.text._ZNSt3__112basic_stringIcNS_11char_traitsIcEENS_9allocatorIcEEE9push_backEc)
                  701115d8    00000008     --HOLE-- [fill = 0]
                  701115e0    000000ee     Record.obj (.text._ZN8nlohmann16json_abi_v3_11_210basic_jsonINSt3__13mapENS2_6vectorENS2_12basic_stringIcNS2_11char_traitsIcEENS2_9allocatorIcEEEEbxydS8_NS0_14adl_serializerENS4_IhNS8_IhEEEEvEC2ESt16initializer_listINS0_6detail8json_refISE_EEEbNSG_7value_tE)
                  701116ce    00000002     --HOLE-- [fill = 0]
                  701116d0    000000ee     Configurer.obj (.text._ZN8nlohmann16json_abi_v3_11_26detail11parse_error6createIDnLi0EEES2_iRKNS1_10position_tERKNSt3__112basic_stringIcNS7_11char_traitsIcEENS7_9allocatorIcEEEET_)
                  701117be    00000002     --HOLE-- [fill = 0]
                  701117c0    000000ee     TopicFactory.obj (.text._ZNSt3__16vectorI14BrokerMetadataNS_9allocatorIS1_EEE6assignIPS1_EENS_9enable_ifIXaasr27__is_cpp17_forward_iteratorIT_EE5valuesr16is_constructibleIS1_NS_15iterator_traitsIS8_E9referenceEEE5valueEvE4typeES8_S8_)
                  701118ae    00000002     --HOLE-- [fill = 0]
                  701118b0    000000ee     freertos.am64x.r5f.ti-arm-clang.release.lib : tasks.obj (.text.vTaskDelete)
                  7011199e    00000002     --HOLE-- [fill = 0]
                  701119a0    000000e4     ConsumerMetadata.obj (.text._ZN16ConsumerMetadata9from_jsonERKN8nlohmann16json_abi_v3_11_210basic_jsonINSt3__13mapENS3_6vectorENS3_12basic_stringIcNS3_11char_traitsIcEENS3_9allocatorIcEEEEbxydS9_NS1_14adl_serializerENS5_IhNS9_IhEEEEvEE)
                  70111a84    0000000c     --HOLE-- [fill = 0]
                  70111a90    000000e4     TopicHandler.obj (.text._ZNSt3__16__treeINS_12__value_typeI16ConsumerMetadataiEENS_19__map_value_compareIS2_S3_NS_4lessIS2_EELb1EEENS_9allocatorIS3_EEE12__find_equalIS2_EERPNS_16__tree_node_baseIPvEENS_21__tree_const_iteratorIS3_PNS_11__tree_nodeIS3_SD_EEiEERPNS_15__tree_end_nodeISF_EESG_RKT_)
                  70111b74    0000000c     --HOLE-- [fill = 0]
                  70111b80    000000e2     drivers.am64x.r5f.ti-arm-clang.release.lib : ipc_rpmsg.obj (.text.RPMessage_init)
                  70111c62    0000000e     --HOLE-- [fill = 0]
                  70111c70    000000e2     TopicFactory.obj (.text._ZNSt3__16vectorI13TopicMetadataNS_9allocatorIS1_EEE6assignIPS1_EENS_9enable_ifIXaasr27__is_cpp17_forward_iteratorIT_EE5valuesr16is_constructibleIS1_NS_15iterator_traitsIS8_E9referenceEEE5valueEvE4typeES8_S8_)
                  70111d52    0000000e     --HOLE-- [fill = 0]
                  70111d60    000000d6     TopicHandler.obj (.text._ZN12TopicHandler14findTopicIndexE13TopicMetadata)
                  70111e36    0000000a     --HOLE-- [fill = 0]
                  70111e40    000000d6     Configurer.obj (.text._ZNSt3__114__copy_alignedINS_6vectorIbNS_9allocatorIbEEEELb0EEENS_14__bit_iteratorIT_Lb0ELi0EEENS5_IS6_XT0_ELi0EEES8_S7_)
                  70111f16    0000000a     --HOLE-- [fill = 0]
                  70111f20    000000d2     Configurer.obj (.text._ZN8nlohmann16json_abi_v3_11_26detail19json_sax_dom_parserINS0_10basic_jsonINSt3__13mapENS4_6vectorENS4_12basic_stringIcNS4_11char_traitsIcEENS4_9allocatorIcEEEEbxydSA_NS0_14adl_serializerENS6_IhNSA_IhEEEEvEEE11start_arrayEj)
                  70111ff2    0000000e     --HOLE-- [fill = 0]
                  70112000    000000ce     Configurer.obj (.text._ZN8nlohmann16json_abi_v3_11_26detail19json_sax_dom_parserINS0_10basic_jsonINSt3__13mapENS4_6vectorENS4_12basic_stringIcNS4_11char_traitsIcEENS4_9allocatorIcEEEEbxydSA_NS0_14adl_serializerENS6_IhNSA_IhEEEEvEEE12start_objectEj)
                  701120ce    00000002     --HOLE-- [fill = 0]
                  701120d0    000000ce     freertos.am64x.r5f.ti-arm-clang.release.lib : tasks.obj (.text.vTaskPriorityDisinheritAfterTimeout)
                  7011219e    00000002     --HOLE-- [fill = 0]
                  701121a0    000000cc                                                 : timers.obj (.text.prvSampleTimeNow)
                  7011226c    00000004     --HOLE-- [fill = 0]
                  70112270    000000ca     TopicFactory.obj (.text._ZN12TopicFactory9findTopicE13TopicMetadata)
                  7011233a    00000006     --HOLE-- [fill = 0]
                  70112340    000000ca     TopicMetadata.obj (.text._ZNK13TopicMetadata7to_jsonERN8nlohmann16json_abi_v3_11_210basic_jsonINSt3__13mapENS3_6vectorENS3_12basic_stringIcNS3_11char_traitsIcEENS3_9allocatorIcEEEEbxydS9_NS1_14adl_serializerENS5_IhNS9_IhEEEEvEE)
                  7011240a    00000006     --HOLE-- [fill = 0]
                  70112410    000000ca     ClusterMetadata.obj (.text._ZNK15ClusterMetadata7to_jsonERN8nlohmann16json_abi_v3_11_210basic_jsonINSt3__13mapENS3_6vectorENS3_12basic_stringIcNS3_11char_traitsIcEENS3_9allocatorIcEEEEbxydS9_NS1_14adl_serializerENS5_IhNS9_IhEEEEvEE)
                  701124da    00000006     --HOLE-- [fill = 0]
                  701124e0    000000ca     Record.obj (.text._ZNK6Record7to_jsonERN8nlohmann16json_abi_v3_11_210basic_jsonINSt3__13mapENS3_6vectorENS3_12basic_stringIcNS3_11char_traitsIcEENS3_9allocatorIcEEEEbxydS9_NS1_14adl_serializerENS5_IhNS9_IhEEEEvEE)
                  701125aa    00000006     --HOLE-- [fill = 0]
                  701125b0    000000c8     drivers.am64x.r5f.ti-arm-clang.release.lib : ipc_notify_v0.obj (.text.IpcNotify_sendMsg)
                  70112678    000000c8     libc.a : getdevice.c.obj (.text.getdevice)
                  70112740    000000c6     drivers.am64x.r5f.ti-arm-clang.release.lib : ipc_notify_v0.obj (.text.IpcNotify_isr)
                  70112806    0000000a     --HOLE-- [fill = 0]
                  70112810    000000c6     freertos.am64x.r5f.ti-arm-clang.release.lib : tasks.obj (.text.prvInitialiseNewTask)
                  701128d6    0000000a     --HOLE-- [fill = 0]
                  701128e0    000000c6                                                 : tasks.obj (.text.xTaskCreateStatic)
                  701129a6    0000000a     --HOLE-- [fill = 0]
                  701129b0    000000c4     Configurer.obj (.text._ZN8nlohmann16json_abi_v3_11_26detail28json_sax_dom_callback_parserINS0_10basic_jsonINSt3__13mapENS4_6vectorENS4_12basic_stringIcNS4_11char_traitsIcEENS4_9allocatorIcEEEEbxydSA_NS0_14adl_serializerENS6_IhNSA_IhEEEEvEEE9end_arrayEv)
                  70112a74    0000000c     --HOLE-- [fill = 0]
                  70112a80    000000c4     Configurer.obj (.text._ZNSt3__120back_insert_iteratorINS_6vectorIN8nlohmann16json_abi_v3_11_210basic_jsonINS_3mapES1_NS_12basic_stringIcNS_11char_traitsIcEENS_9allocatorIcEEEEbxydS9_NS3_14adl_serializerENS1_IhNS9_IhEEEEvEENS9_ISF_EEEEEaSEOSF_)
                  70112b44    0000000c     --HOLE-- [fill = 0]
                  70112b50    000000c4     Configurer.obj (.text._ZNSt3__16vectorI13TopicMetadataNS_9allocatorIS1_EEE21__push_back_slow_pathIRKS1_EEvOT_)
                  70112c14    0000000c     --HOLE-- [fill = 0]
                  70112c20    000000c4     RealTopic.obj (.text._ZNSt3__16vectorI6RecordNS_9allocatorIS1_EEE21__push_back_slow_pathIRKS1_EEvOT_)
                  70112ce4    0000000c     --HOLE-- [fill = 0]
                  70112cf0    000000c2     Configurer.obj (.text._ZN8nlohmann16json_abi_v3_11_26detail28json_sax_dom_callback_parserINS0_10basic_jsonINSt3__13mapENS4_6vectorENS4_12basic_stringIcNS4_11char_traitsIcEENS4_9allocatorIcEEEEbxydSA_NS0_14adl_serializerENS6_IhNSA_IhEEEEvEEE3keyERSC_)
                  70112db2    0000000e     --HOLE-- [fill = 0]
                  70112dc0    000000c2     Configurer.obj (.text._ZN8nlohmann16json_abi_v3_11_26detail5lexerINS0_10basic_jsonINSt3__13mapENS4_6vectorENS4_12basic_stringIcNS4_11char_traitsIcEENS4_9allocatorIcEEEEbxydSA_NS0_14adl_serializerENS6_IhNSA_IhEEEEvEENS1_22iterator_input_adapterIPKcEEE3getEv)
                  70112e82    0000000e     --HOLE-- [fill = 0]
                  70112e90    000000c2     Configurer.obj (.text._ZN8nlohmann16json_abi_v3_11_26detail5lexerINS0_10basic_jsonINSt3__13mapENS4_6vectorENS4_12basic_stringIcNS4_11char_traitsIcEENS4_9allocatorIcEEEEbxydSA_NS0_14adl_serializerENS6_IhNSA_IhEEEEvEENS1_22iterator_input_adapterIPcEEE3getEv)
                  70112f52    0000000e     --HOLE-- [fill = 0]
                  70112f60    000000c0     Configurer.obj (.text._ZN8nlohmann16json_abi_v3_11_26detail9dtoa_impl6grisu2IdEEvPcRiS5_T_)
                  70113020    000000c0     libc.a : _printfi.c.obj (.text._mcpy)
                  701130e0    000000c0     freertos.am64x.r5f.ti-arm-clang.release.lib : tasks.obj (.text.xTaskCheckForTimeOut)
                  701131a0    000000be     drivers.am64x.r5f.ti-arm-clang.release.lib : ipc_rpmsg_vring.obj (.text.RPMessage_vringReset)
                  7011325e    00000002     --HOLE-- [fill = 0]
                  70113260    000000be     Configurer.obj (.text._ZN10Configurer17initCommunicationEv)
                  7011331e    00000002     --HOLE-- [fill = 0]
                  70113320    000000bc     drivers.am64x.r5f.ti-arm-clang.release.lib : pinmux.obj (.text.Pinmux_config)
                  701133dc    00000004     --HOLE-- [fill = 0]
                  701133e0    000000bc     Configurer.obj (.text._ZNSt3__16vectorIN8nlohmann16json_abi_v3_11_210basic_jsonINS_3mapES0_NS_12basic_stringIcNS_11char_traitsIcEENS_9allocatorIcEEEEbxydS8_NS2_14adl_serializerENS0_IhNS8_IhEEEEvEENS8_ISE_EEE12emplace_backIJSE_EEEvDpOT_)
                  7011349c    00000004     --HOLE-- [fill = 0]
                  701134a0    000000ba     freertos.am64x.r5f.ti-arm-clang.release.lib : tasks.obj (.text.vTaskStartScheduler)
                  7011355a    00000006     --HOLE-- [fill = 0]
                  70113560    000000b8     drivers.am64x.r5f.ti-arm-clang.release.lib : uart_v0.obj (.text.UART_divisorLatchWrite)
                  70113618    00000008     --HOLE-- [fill = 0]
                  70113620    000000b8     ProducerMetadata.obj (.text._ZNK16ProducerMetadata7to_jsonERN8nlohmann16json_abi_v3_11_210basic_jsonINSt3__13mapENS3_6vectorENS3_12basic_stringIcNS3_11char_traitsIcEENS3_9allocatorIcEEEEbxydS9_NS1_14adl_serializerENS5_IhNS9_IhEEEEvEE)
                  701136d8    000000b4     libc.a : fclose.c.obj (.text.__TI_closefile)
                  7011378c    000000b4            : fseek.c.obj (.text.fseeko)
                  70113840    000000b2     drivers.am64x.r5f.ti-arm-clang.release.lib : uart_v0.obj (.text.UART_flushTxFifo)
                  701138f2    0000000e     --HOLE-- [fill = 0]
                  70113900    000000b2     TopicHandler.obj (.text._ZN12TopicHandler15addHandledTopicE13TopicMetadata)
                  701139b2    0000000e     --HOLE-- [fill = 0]
                  701139c0    000000b2     freertos.am64x.r5f.ti-arm-clang.release.lib : tasks.obj (.text.eTaskGetState)
                  70113a72    0000000e     --HOLE-- [fill = 0]
                  70113a80    000000b0     Configurer.obj (.text._ZN8nlohmann16json_abi_v3_11_26detail6concatINSt3__112basic_stringIcNS3_11char_traitsIcEENS3_9allocatorIcEEEEJRA17_KcRKS9_cS9_RA3_SA_EEET_DpOT0_)
                  70113b30    000000b0     Configurer.obj (.text._ZNK8nlohmann16json_abi_v3_11_210basic_jsonINSt3__13mapENS2_6vectorENS2_12basic_stringIcNS2_11char_traitsIcEENS2_9allocatorIcEEEEbxydS8_NS0_14adl_serializerENS4_IhNS8_IhEEEEvE4dumpEicbNS0_6detail15error_handler_tE)
                  70113be0    000000b0     libc++.a : stdexcept.cpp.obj (.text._ZNSt13runtime_errorC2EPKc)
                  70113c90    000000b0     freertos.am64x.r5f.ti-arm-clang.release.lib : printf.obj (.text._ntoa_long_long)
                  70113d40    000000ae                                                 : TaskP_freertos.obj (.text.TaskP_loadUpdateAll)
                  70113dee    00000002     --HOLE-- [fill = 0]
                  70113df0    000000ae                                                 : tasks.obj (.text.xTaskPriorityDisinherit)
                  70113e9e    00000002     --HOLE-- [fill = 0]
                  70113ea0    000000aa     drivers.am64x.r5f.ti-arm-clang.release.lib : ipc_rpmsg_vring.obj (.text.RPMessage_vringGetFullRxBuf)
                  70113f4a    00000006     --HOLE-- [fill = 0]
                  70113f50    000000aa                                                : uart_v0.obj (.text.UART_procLineStatusErr)
                  70113ffa    00000006     --HOLE-- [fill = 0]
                  70114000    000000a8     libc++.a : string.cpp.obj (.text._ZNKSt3__112basic_stringIcNS_11char_traitsIcEENS_9allocatorIcEEE7compareEjjPKcj)
                  701140a8    00000008     --HOLE-- [fill = 0]
                  701140b0    000000a8              : string.cpp.obj (.text._ZNSt3__19to_stringEj)
                  70114158    000000a8     libc.a : fflush.c.obj (.text.fflush)
                  70114200    000000a6     freertos.am64x.r5f.ti-arm-clang.release.lib : printf.obj (.text._out_rev)
                  701142a6    0000000a     --HOLE-- [fill = 0]
                  701142b0    000000a4     drivers.am64x.r5f.ti-arm-clang.release.lib : sciclient_pm.obj (.text.Sciclient_pmQueryModuleClkFreq)
                  70114354    0000000c     --HOLE-- [fill = 0]
                  70114360    000000a4     libc++abi.a : private_typeinfo.cpp.obj (.text._ZNK10__cxxabiv120__si_class_type_info27has_unambiguous_public_baseEPNS_19__dynamic_cast_infoEPvi)
                  70114404    0000000c     --HOLE-- [fill = 0]
                  70114410    000000a4     Configurer.obj (.text._ZNSt3__16vectorIN8nlohmann16json_abi_v3_11_210basic_jsonINS_3mapES0_NS_12basic_stringIcNS_11char_traitsIcEENS_9allocatorIcEEEEbxydS8_NS2_14adl_serializerENS0_IhNS8_IhEEEEvEENS8_ISE_EEE12emplace_backIJRSA_EEEvDpOT_)
                  701144b4    000000a4     libc.a : memory.c.obj (.text.split)
                  70114558    00000008     --HOLE-- [fill = 0]
                  70114560    000000a2     freertos.am64x.r5f.ti-arm-clang.release.lib : tasks.obj (.text.xTaskRemoveFromEventList)
                  70114602    0000000e     --HOLE-- [fill = 0]
                  70114610    000000a0                                                 : DebugP_shmLogReader.obj (.text.DebugP_shmLogReaderGetString)
                  701146b0    000000a0     libsysbm.a : hostrename.c.obj (.text.HOSTrename)
                  70114750    000000a0     Configurer.obj (.text._ZN8nlohmann16json_abi_v3_11_26detail5lexerINS0_10basic_jsonINSt3__13mapENS4_6vectorENS4_12basic_stringIcNS4_11char_traitsIcEENS4_9allocatorIcEEEEbxydSA_NS0_14adl_serializerENS6_IhNSA_IhEEEEvEENS1_22iterator_input_adapterIPKcEEE13get_codepointEv)
                  701147f0    000000a0     Configurer.obj (.text._ZN8nlohmann16json_abi_v3_11_26detail5lexerINS0_10basic_jsonINSt3__13mapENS4_6vectorENS4_12basic_stringIcNS4_11char_traitsIcEENS4_9allocatorIcEEEEbxydSA_NS0_14adl_serializerENS6_IhNSA_IhEEEEvEENS1_22iterator_input_adapterIPcEEE13get_codepointEv)
                  70114890    000000a0     Configurer.obj (.text._ZN8nlohmann16json_abi_v3_11_26detail6concatINSt3__112basic_stringIcNS3_11char_traitsIcEENS3_9allocatorIcEEEEJRA10_KcS9_SC_S9_EEET_DpOT0_)
                  70114930    0000009e     drivers.am64x.r5f.ti-arm-clang.release.lib : ipc_rpmsg_vring.obj (.text.RPMessage_vringPutEmptyRxBuf)
                  701149ce    00000002     --HOLE-- [fill = 0]
                  701149d0    0000009c     libc.a : _io_perm.c.obj (.text.__TI_wrt_ok)
                  70114a6c    00000004     --HOLE-- [fill = 0]
                  70114a70    0000009a     freertos.am64x.r5f.ti-arm-clang.release.lib : DebugP_shmLogReader.obj (.text.DebugP_shmLogReaderTaskMain)
                  70114b0a    00000006     --HOLE-- [fill = 0]
                  70114b10    0000009a     drivers.am64x.r5f.ti-arm-clang.release.lib : sciclient.obj (.text.Sciclient_init)
                  70114baa    00000006     --HOLE-- [fill = 0]
                  70114bb0    0000009a                                                : sciclient.obj (.text.Sciclient_sendMessage)
                  70114c4a    00000006     --HOLE-- [fill = 0]
                  70114c50    0000009a     Configurer.obj (.text._ZN10Configurer5startEv)
                  70114cea    00000006     --HOLE-- [fill = 0]
                  70114cf0    0000009a     Configurer.obj (.text._ZNSt3__16vectorIN8nlohmann16json_abi_v3_11_210basic_jsonINS_3mapES0_NS_12basic_stringIcNS_11char_traitsIcEENS_9allocatorIcEEEEbxydS8_NS2_14adl_serializerENS0_IhNS8_IhEEEEvEENS8_ISE_EEE12emplace_backIJDnEEEvDpOT_)
                  70114d8a    00000002     --HOLE-- [fill = 0]
                  70114d8c    00000098     libsysbm.a : hostlseek.c.obj (.text.HOSTlseek)
                  70114e24    0000000c     --HOLE-- [fill = 0]
                  70114e30    00000098     drivers.am64x.r5f.ti-arm-clang.release.lib : ipc_rpmsg.obj (.text.RPMessage_coreInit)
                  70114ec8    00000008     --HOLE-- [fill = 0]
                  70114ed0    00000098     libc++.a : string.cpp.obj (.text._ZNKSt3__112basic_stringIcNS_11char_traitsIcEENS_9allocatorIcEEE7compareEPKc)
                  70114f68    00000008     --HOLE-- [fill = 0]
                  70114f70    00000098              : string.cpp.obj (.text._ZNSt3__112basic_stringIcNS_11char_traitsIcEENS_9allocatorIcEEEC2ERKS5_)
                  70115008    00000008     --HOLE-- [fill = 0]
                  70115010    00000098     Configurer.obj (.text._ZNSt3__16vectorIN8nlohmann16json_abi_v3_11_210basic_jsonINS_3mapES0_NS_12basic_stringIcNS_11char_traitsIcEENS_9allocatorIcEEEEbxydS8_NS2_14adl_serializerENS0_IhNS8_IhEEEEvEENS8_ISE_EEE12emplace_backIJNS2_6detail7value_tEEEEvDpOT_)
                  701150a8    00000008     --HOLE-- [fill = 0]
                  701150b0    00000096     embedded_kafka.obj (.text._Z6brokerii)
                  70115146    0000000a     --HOLE-- [fill = 0]
                  70115150    00000096     Configurer.obj (.text._ZN8nlohmann16json_abi_v3_11_210basic_jsonINSt3__13mapENS2_6vectorENS2_12basic_stringIcNS2_11char_traitsIcEENS2_9allocatorIcEEEEbxydS8_NS0_14adl_serializerENS4_IhNS8_IhEEEEvE9push_backERKSE_)
                  701151e6    0000000a     --HOLE-- [fill = 0]
                  701151f0    00000096     freertos.am64x.r5f.ti-arm-clang.release.lib : tasks.obj (.text.vTaskGetInfo)
                  70115286    00000002     --HOLE-- [fill = 0]
                  70115288    00000094     libsysbm.a : hostopen.c.obj (.text.HOSTopen)
                  7011531c    00000004     --HOLE-- [fill = 0]
                  70115320    00000094     drivers.am64x.r5f.ti-arm-clang.release.lib : uart_v0.obj (.text.UART_init)
                  701153b4    0000000c     --HOLE-- [fill = 0]
                  701153c0    00000094     UDPEndpoint.obj (.text._ZN11UDPEndpoint9from_jsonERKN8nlohmann16json_abi_v3_11_210basic_jsonINSt3__13mapENS3_6vectorENS3_12basic_stringIcNS3_11char_traitsIcEENS3_9allocatorIcEEEEbxydS9_NS1_14adl_serializerENS5_IhNS9_IhEEEEvEE)
                  70115454    0000000c     --HOLE-- [fill = 0]
                  70115460    00000094     Configurer.obj (.text._ZN8nlohmann16json_abi_v3_11_210basic_jsonINSt3__13mapENS2_6vectorENS2_12basic_stringIcNS2_11char_traitsIcEENS2_9allocatorIcEEEEbxydS8_NS0_14adl_serializerENS4_IhNS8_IhEEEEvE5parseIRPKcEESE_OT_NS2_8functionIFbiNS0_6detail13parse_event_tERSE_EEEbb)
                  701154f4    0000000c     --HOLE-- [fill = 0]
                  70115500    00000094     libc++abi.a : private_typeinfo.cpp.obj (.text._ZNK10__cxxabiv117__class_type_info27has_unambiguous_public_baseEPNS_19__dynamic_cast_infoEPvi)
                  70115594    0000000c     --HOLE-- [fill = 0]
                  701155a0    00000092     drivers.am64x.r5f.ti-arm-clang.release.lib : ipc_rpmsg_vring.obj (.text.RPMessage_vringGetEmptyTxBuf)
                  70115632    0000000e     --HOLE-- [fill = 0]
                  70115640    00000092                                                : sciclient_pm.obj (.text.Sciclient_pmSetModuleClkFreq)
                  701156d2    0000000e     --HOLE-- [fill = 0]
                  701156e0    00000092     Configurer.obj (.text._ZNK8nlohmann16json_abi_v3_11_210basic_jsonINSt3__13mapENS2_6vectorENS2_12basic_stringIcNS2_11char_traitsIcEENS2_9allocatorIcEEEEbxydS8_NS0_14adl_serializerENS4_IhNS8_IhEEEEvE16assert_invariantEb)
                  70115772    0000000e     --HOLE-- [fill = 0]
                  70115780    00000090     freertos.am64x.r5f.ti-arm-clang.release.lib : tasks.obj (.text.xTaskPriorityInherit)
                  70115810    0000008e     Configurer.obj (.text._ZN8nlohmann16json_abi_v3_11_26detail9dtoa_impl5diyfp12normalize_toERKS3_i)
                  7011589e    00000002     --HOLE-- [fill = 0]
                  701158a0    0000008e     freertos.am64x.r5f.ti-arm-clang.release.lib : port.obj (.text.pxPortInitialiseStack)
                  7011592e    00000002     --HOLE-- [fill = 0]
                  70115930    0000008c     drivers.am64x.r5f.ti-arm-clang.release.lib : ipc_rpmsg_vring.obj (.text.RPMessage_vringResetInternal)
                  701159bc    00000004     --HOLE-- [fill = 0]
                  701159c0    0000008c     Configurer.obj (.text._ZNSt3__16vectorIbNS_9allocatorIbEEE18__construct_at_endINS_14__bit_iteratorIS3_Lb0ELj0EEEEENS_9enable_ifIXsr27__is_cpp17_forward_iteratorIT_EE5valueEvE4typeES8_S8_)
                  70115a4c    00000004     --HOLE-- [fill = 0]
                  70115a50    0000008c     freertos.am64x.r5f.ti-arm-clang.release.lib : printf.obj (.text._ntoa_long)
                  70115adc    0000008c     libsysbm.a : close.c.obj (.text.close)
                  70115b68    00000008     --HOLE-- [fill = 0]
                  70115b70    00000088     ClusterMetadata.obj (.text._ZN15ClusterMetadata17addBrokerMetadataE14BrokerMetadata)
                  70115bf8    00000008     --HOLE-- [fill = 0]
                  70115c00    00000088     SystemManager.obj (.text._ZN8nlohmann16json_abi_v3_11_210basic_jsonINSt3__13mapENS2_6vectorENS2_12basic_stringIcNS2_11char_traitsIcEENS2_9allocatorIcEEEEbxydS8_NS0_14adl_serializerENS4_IhNS8_IhEEEEvE5parseIRA1024_cEESE_OT_NS2_8functionIFbiNS0_6detail13parse_event_tERSE_EEEbb)
                  70115c88    00000008     --HOLE-- [fill = 0]
                  70115c90    00000088     Broker.obj (.text._ZN8nlohmann16json_abi_v3_11_210basic_jsonINSt3__13mapENS2_6vectorENS2_12basic_stringIcNS2_11char_traitsIcEENS2_9allocatorIcEEEEbxydS8_NS0_14adl_serializerENS4_IhNS8_IhEEEEvE5parseIRA128_cEESE_OT_NS2_8functionIFbiNS0_6detail13parse_event_tERSE_EEEbb)
                  70115d18    00000008     --HOLE-- [fill = 0]
                  70115d20    00000088     Configurer.obj (.text._ZN8nlohmann16json_abi_v3_11_210basic_jsonINSt3__13mapENS2_6vectorENS2_12basic_stringIcNS2_11char_traitsIcEENS2_9allocatorIcEEEEbxydS8_NS0_14adl_serializerENS4_IhNS8_IhEEEEvE5parseIRA512_cEESE_OT_NS2_8functionIFbiNS0_6detail13parse_event_tERSE_EEEbb)
                  70115da8    00000008     --HOLE-- [fill = 0]
                  70115db0    00000088     Configurer.obj (.text._ZN8nlohmann16json_abi_v3_11_26detail10serializerINS0_10basic_jsonINSt3__13mapENS4_6vectorENS4_12basic_stringIcNS4_11char_traitsIcEENS4_9allocatorIcEEEEbxydSA_NS0_14adl_serializerENS6_IhNSA_IhEEEEvEEEC2ENS4_10shared_ptrINS1_23output_adapter_protocolIcEEEEcNS1_15error_handler_tE)
                  70115e38    00000008     --HOLE-- [fill = 0]
                  70115e40    00000088     BrokerMetadata.obj (.text._ZNK8nlohmann16json_abi_v3_11_26detail9iter_implIKNS0_10basic_jsonINSt3__13mapENS4_6vectorENS4_12basic_stringIcNS4_11char_traitsIcEENS4_9allocatorIcEEEEbxydSA_NS0_14adl_serializerENS6_IhNSA_IhEEEEvEEEdeEv)
                  70115ec8    00000008     --HOLE-- [fill = 0]
                  70115ed0    00000088     Configurer.obj (.text._ZNK8nlohmann16json_abi_v3_11_26detail9iter_implINS0_10basic_jsonINSt3__13mapENS4_6vectorENS4_12basic_stringIcNS4_11char_traitsIcEENS4_9allocatorIcEEEEbxydSA_NS0_14adl_serializerENS6_IhNSA_IhEEEEvEEEdeEv)
                  70115f58    00000088     libc.a : fflush.c.obj (.text.__TI_doflush)
                  70115fe0    00000088            : _ltoa.c.obj (.text.__TI_ltoa)
                  70116068    00000088            : _printfi.c.obj (.text._ecpy)
                  701160f0    00000086     Configurer.obj (.text._ZNK8nlohmann16json_abi_v3_11_26detail9iter_implINS0_10basic_jsonINSt3__13mapENS4_6vectorENS4_12basic_stringIcNS4_11char_traitsIcEENS4_9allocatorIcEEEEbxydSA_NS0_14adl_serializerENS6_IhNSA_IhEEEEvEEEptEv)
                  70116176    0000000a     --HOLE-- [fill = 0]
                  70116180    00000086     freertos.am64x.r5f.ti-arm-clang.release.lib : timers.obj (.text.xTimerCreateTimerTask)
                  70116206    00000002     --HOLE-- [fill = 0]
                  70116208    00000084     libsysbm.a : hostread.c.obj (.text.HOSTread)
                  7011628c    00000084                : hostwrite.c.obj (.text.HOSTwrite)
                  70116310    00000084     freertos.am64x.r5f.ti-arm-clang.release.lib : tasks.obj (.text.prvAddCurrentTaskToDelayedList)
                  70116394    0000000c     --HOLE-- [fill = 0]
                  701163a0    00000082     embedded_kafka.obj (.text._Z18communication_mainPv)
                  70116422    0000000e     --HOLE-- [fill = 0]
                  70116430    00000082     RPMessageCommunication.obj (.text._ZN22RPMessageCommunicationC2ERK17RPMessageEndpointRK6Logger)
                  701164b2    0000000e     --HOLE-- [fill = 0]
                  701164c0    00000082     Configurer.obj (.text._ZN8nlohmann16json_abi_v3_11_26detail10serializerINS0_10basic_jsonINSt3__13mapENS4_6vectorENS4_12basic_stringIcNS4_11char_traitsIcEENS4_9allocatorIcEEEEbxydSA_NS0_14adl_serializerENS6_IhNSA_IhEEEEvEEE12dump_integerIhLi0EEEvT_)
                  70116542    0000000e     --HOLE-- [fill = 0]
                  70116550    00000080     Configurer.obj (.text._ZN8nlohmann16json_abi_v3_11_26detail19json_sax_dom_parserINS0_10basic_jsonINSt3__13mapENS4_6vectorENS4_12basic_stringIcNS4_11char_traitsIcEENS4_9allocatorIcEEEEbxydSA_NS0_14adl_serializerENS6_IhNSA_IhEEEEvEEE3keyERSC_)
                  701165d0    00000080     main.obj (.text.main)
                  70116650    00000080     freertos.am64x.r5f.ti-arm-clang.release.lib : queue.obj (.text.prvCopyDataToQueue)
                  701166d0    00000080                                                 : queue.obj (.text.xQueueGenericReset)
                  70116750    0000007c     drivers.am64x.r5f.ti-arm-clang.release.lib : ipc_rpmsg.obj (.text.RPMessage_construct)
                  701167cc    0000007c     libc.a : _printfi.c.obj (.text._pconv_f)
                  70116848    0000007c            : s_frexp.c.obj (.text.frexp)
                  701168c4    0000000c     --HOLE-- [fill = 0]
                  701168d0    0000007a     drivers.am64x.r5f.ti-arm-clang.release.lib : sciclient_pm.obj (.text.Sciclient_pmGetModuleClkNumParent)
                  7011694a    00000006     --HOLE-- [fill = 0]
                  70116950    0000007a     freertos.am64x.r5f.ti-arm-clang.release.lib : timers.obj (.text.prvCheckForValidListAndQueue)
                  701169ca    00000006     --HOLE-- [fill = 0]
                  701169d0    0000007a                                                 : tasks.obj (.text.prvIdleTask)
                  70116a4a    00000006     --HOLE-- [fill = 0]
                  70116a50    00000078     Configurer.obj (.text._ZN8nlohmann16json_abi_v3_11_26detail5lexerINS0_10basic_jsonINSt3__13mapENS4_6vectorENS4_12basic_stringIcNS4_11char_traitsIcEENS4_9allocatorIcEEEEbxydSA_NS0_14adl_serializerENS6_IhNSA_IhEEEEvEENS1_22iterator_input_adapterIPKcEEE18next_byte_in_rangeESt16initializer_listIiE)
                  70116ac8    00000008     --HOLE-- [fill = 0]
                  70116ad0    00000078     Configurer.obj (.text._ZN8nlohmann16json_abi_v3_11_26detail5lexerINS0_10basic_jsonINSt3__13mapENS4_6vectorENS4_12basic_stringIcNS4_11char_traitsIcEENS4_9allocatorIcEEEEbxydSA_NS0_14adl_serializerENS6_IhNSA_IhEEEEvEENS1_22iterator_input_adapterIPcEEE18next_byte_in_rangeESt16initializer_listIiE)
                  70116b48    00000078     libc.a : snprintf.c.obj (.text.snprintf)
                  70116bc0    00000076     freertos.am64x.r5f.ti-arm-clang.release.lib : DebugP_freertos.obj (.text._DebugP_logZone)
                  70116c36    0000000a     --HOLE-- [fill = 0]
                  70116c40    00000076                                                 : timers.obj (.text.xTimerGenericCommand)
                  70116cb6    0000000a     --HOLE-- [fill = 0]
                  70116cc0    00000074     RPMessageCommunication.obj (.text._ZN22RPMessageCommunication5writeEPKcjRK8Endpoint)
                  70116d34    0000000c     --HOLE-- [fill = 0]
                  70116d40    00000074     Configurer.obj (.text._ZNSt3__16vectorIbNS_9allocatorIbEEE9push_backERKb)
                  70116db4    0000000c     --HOLE-- [fill = 0]
                  70116dc0    00000072     freertos.am64x.r5f.ti-arm-clang.release.lib : queue.obj (.text.prvUnlockQueue)
                  70116e32    0000000e     --HOLE-- [fill = 0]
                  70116e40    00000070                                                 : SemaphoreP_freertos.obj (.text.SemaphoreP_constructBinary)
                  70116eb0    00000070     TopicProxy.obj (.text._ZN10TopicProxyC2E17CommunicationType14BrokerMetadata13TopicMetadataRK6Logger)
                  70116f20    00000070     libc.a : atoi.c.obj (.text.atoi)
                  70116f90    0000006e     drivers.am64x.r5f.ti-arm-clang.release.lib : soc.obj (.text.SOC_moduleClockEnable)
                  70116ffe    00000002     --HOLE-- [fill = 0]
                  70117000    0000006e                                                : sciclient_pm.obj (.text.Sciclient_pmGetModuleState)
                  7011706e    00000002     --HOLE-- [fill = 0]
                  70117070    0000006c     libsysbm.a : hostunlink.c.obj (.text.HOSTunlink)
                  701170dc    00000004     --HOLE-- [fill = 0]
                  701170e0    0000006c     Configurer.obj (.text._ZN8nlohmann16json_abi_v3_11_210basic_jsonINSt3__13mapENS2_6vectorENS2_12basic_stringIcNS2_11char_traitsIcEENS2_9allocatorIcEEEEbxydS8_NS0_14adl_serializerENS4_IhNS8_IhEEEEvEC2ERKSE_)
                  7011714c    00000004     --HOLE-- [fill = 0]
                  70117150    0000006c     TI_DebugLogger.obj (.text._ZNK14TI_DebugLogger3logEPKcz)
                  701171bc    00000004     --HOLE-- [fill = 0]
                  701171c0    0000006c     TI_DebugLogger.obj (.text._ZNK14TI_DebugLogger8logErrorEPKcz)
                  7011722c    0000006c     libc.a : aeabi_portable.c.obj (.text.__aeabi_assert)
                  70117298    0000006c            : getdevice.c.obj (.text.finddevice)
                  70117304    0000000c     --HOLE-- [fill = 0]
                  70117310    0000006a     Configurer.obj (.text._ZN8nlohmann16json_abi_v3_11_26detail5lexerINS0_10basic_jsonINSt3__13mapENS4_6vectorENS4_12basic_stringIcNS4_11char_traitsIcEENS4_9allocatorIcEEEEbxydSA_NS0_14adl_serializerENS6_IhNSA_IhEEEEvEENS1_22iterator_input_adapterIPKcEEE12scan_commentEv)
                  7011737a    00000006     --HOLE-- [fill = 0]
                  70117380    0000006a     Configurer.obj (.text._ZN8nlohmann16json_abi_v3_11_26detail5lexerINS0_10basic_jsonINSt3__13mapENS4_6vectorENS4_12basic_stringIcNS4_11char_traitsIcEENS4_9allocatorIcEEEEbxydSA_NS0_14adl_serializerENS6_IhNSA_IhEEEEvEENS1_22iterator_input_adapterIPKcEEE5resetEv)
                  701173ea    00000006     --HOLE-- [fill = 0]
                  701173f0    0000006a     Configurer.obj (.text._ZN8nlohmann16json_abi_v3_11_26detail5lexerINS0_10basic_jsonINSt3__13mapENS4_6vectorENS4_12basic_stringIcNS4_11char_traitsIcEENS4_9allocatorIcEEEEbxydSA_NS0_14adl_serializerENS6_IhNSA_IhEEEEvEENS1_22iterator_input_adapterIPcEEE12scan_commentEv)
                  7011745a    00000006     --HOLE-- [fill = 0]
                  70117460    0000006a     Configurer.obj (.text._ZN8nlohmann16json_abi_v3_11_26detail5lexerINS0_10basic_jsonINSt3__13mapENS4_6vectorENS4_12basic_stringIcNS4_11char_traitsIcEENS4_9allocatorIcEEEEbxydSA_NS0_14adl_serializerENS6_IhNSA_IhEEEEvEENS1_22iterator_input_adapterIPcEEE5resetEv)
                  701174ca    00000006     --HOLE-- [fill = 0]
                  701174d0    0000006a     Configurer.obj (.text._ZN8nlohmann16json_abi_v3_11_26detail9dtoa_impl5diyfp3subERKS3_S5_)
                  7011753a    00000006     --HOLE-- [fill = 0]
                  70117540    00000068     freertos.am64x.r5f.ti-arm-clang.release.lib : AddrTranslateP.obj (.text.AddrTranslateP_getLocalAddr)
                  701175a8    00000008     --HOLE-- [fill = 0]
                  701175b0    00000068     drivers.am64x.r5f.ti-arm-clang.release.lib : uart_v0.obj (.text.UART_writeCancelNoCB)
                  70117618    00000008     --HOLE-- [fill = 0]
                  70117620    00000068     Configurer.obj (.text._ZN10ConfigurerC2E17CommunicationTypeRK8EndpointRK6LoggerNSt3__112basic_stringIcNS7_11char_traitsIcEENS7_9allocatorIcEEEEb)
                  70117688    00000008     --HOLE-- [fill = 0]
                  70117690    00000068     Broker.obj (.text._ZN6Broker5startEv)
                  701176f8    00000008     --HOLE-- [fill = 0]
                  70117700    00000068     Configurer.obj (.text._ZN8nlohmann16json_abi_v3_11_26detail6parserINS0_10basic_jsonINSt3__13mapENS4_6vectorENS4_12basic_stringIcNS4_11char_traitsIcEENS4_9allocatorIcEEEEbxydSA_NS0_14adl_serializerENS6_IhNSA_IhEEEEvEENS1_22iterator_input_adapterIPKcEEEC2EOSK_NS4_8functionIFbiNS1_13parse_event_tERSG_EEEbb)
                  70117768    00000008     --HOLE-- [fill = 0]
                  70117770    00000068     Configurer.obj (.text._ZN8nlohmann16json_abi_v3_11_26detail6parserINS0_10basic_jsonINSt3__13mapENS4_6vectorENS4_12basic_stringIcNS4_11char_traitsIcEENS4_9allocatorIcEEEEbxydSA_NS0_14adl_serializerENS6_IhNSA_IhEEEEvEENS1_22iterator_input_adapterIPcEEEC2EOSJ_NS4_8functionIFbiNS1_13parse_event_tERSG_EEEbb)
                  701177d8    00000008     --HOLE-- [fill = 0]
                  701177e0    00000068     Configurer.obj (.text._ZNSt3__16vectorIbNS_9allocatorIbEEE7reserveEj)
                  70117848    00000068     libc.a : vsnprintf.c.obj (.text.vsnprintf)
                  701178b0    00000066     drivers.am64x.r5f.ti-arm-clang.release.lib : ipc_rpmsg.obj (.text.RPMessage_getEndPtMsg)
                  70117916    0000000a     --HOLE-- [fill = 0]
                  70117920    00000066                                                : sciclient_pm.obj (.text.Sciclient_pmGetModuleClkFreq)
                  70117986    0000000a     --HOLE-- [fill = 0]
                  70117990    00000066                                                : sciclient_pm.obj (.text.Sciclient_pmGetModuleClkParent)
                  701179f6    0000000a     --HOLE-- [fill = 0]
                  70117a00    00000066     RPMessageCommunication.obj (.text._ZN22RPMessageCommunication4readEPcjR8Endpoint)
                  70117a66    0000000a     --HOLE-- [fill = 0]
                  70117a70    00000066     Consumer.obj (.text._ZN8ConsumerC2E17CommunicationTypeRK6Logger14BrokerMetadata)
                  70117ad6    0000000a     --HOLE-- [fill = 0]
                  70117ae0    00000066     RealTopic.obj (.text._ZN9RealTopic9subscribeE16ConsumerMetadata)
                  70117b46    0000000a     --HOLE-- [fill = 0]
                  70117b50    00000064     drivers.am64x.r5f.ti-arm-clang.release.lib : sciclient_pm.obj (.text.Sciclient_pmModuleGetClkStatus)
                  70117bb4    0000000c     --HOLE-- [fill = 0]
                  70117bc0    00000064     freertos.am64x.r5f.ti-arm-clang.release.lib : PmuP_armv7r.obj (.text.pmu)
                  70117c24    0000000c     --HOLE-- [fill = 0]
                  70117c30    00000064                                                 : queue.obj (.text.vQueueDelete)
                  70117c94    00000060     libsysbm.a : hostclose.c.obj (.text.HOSTclose)
                  70117cf4    0000000c     --HOLE-- [fill = 0]
                  70117d00    00000060     Configurer.obj (.text._ZN8nlohmann16json_abi_v3_11_26detail10serializerINS0_10basic_jsonINSt3__13mapENS4_6vectorENS4_12basic_stringIcNS4_11char_traitsIcEENS4_9allocatorIcEEEEbxydSA_NS0_14adl_serializerENS6_IhNSA_IhEEEEvEEE10dump_floatEd)
                  70117d60    0000005e     drivers.am64x.r5f.ti-arm-clang.release.lib : ipc_rpmsg_vring.obj (.text.RPMessage_vringPutFullTxBuf)
                  70117dbe    00000002     --HOLE-- [fill = 0]
                  70117dc0    0000005e                                                : sciclient_pm.obj (.text.Sciclient_pmModuleClkRequest)
                  70117e1e    00000002     --HOLE-- [fill = 0]
                  70117e20    0000005e                                                : sciclient_pm.obj (.text.Sciclient_pmSetModuleClkParent)
                  70117e7e    00000002     --HOLE-- [fill = 0]
                  70117e80    0000005e     Configurer.obj (.text._ZN8nlohmann16json_abi_v3_11_26detail5lexerINS0_10basic_jsonINSt3__13mapENS4_6vectorENS4_12basic_stringIcNS4_11char_traitsIcEENS4_9allocatorIcEEEEbxydSA_NS0_14adl_serializerENS6_IhNSA_IhEEEEvEENS1_22iterator_input_adapterIPKcEEE12scan_literalESJ_jNS1_10lexer_baseISG_E10token_typeE)
                  70117ede    00000002     --HOLE-- [fill = 0]
                  70117ee0    0000005e     Configurer.obj (.text._ZN8nlohmann16json_abi_v3_11_26detail5lexerINS0_10basic_jsonINSt3__13mapENS4_6vectorENS4_12basic_stringIcNS4_11char_traitsIcEENS4_9allocatorIcEEEEbxydSA_NS0_14adl_serializerENS6_IhNSA_IhEEEEvEENS1_22iterator_input_adapterIPcEEE12scan_literalEPKcjNS1_10lexer_baseISG_E10token_typeE)
                  70117f3e    00000002     --HOLE-- [fill = 0]
                  70117f40    0000005e     Record.obj (.text._ZNSt3__16__treeINS_12__value_typeINS_12basic_stringIcNS_11char_traitsIcEENS_9allocatorIcEEEEN8nlohmann16json_abi_v3_11_210basic_jsonINS_3mapENS_6vectorES7_bxydS5_NS9_14adl_serializerENSC_IhNS5_IhEEEEvEEEENS_19__map_value_compareIS7_SH_NS_4lessIvEELb1EEENS5_ISH_EEE16__construct_nodeIJS7_SG_EEENS_10unique_ptrINS_11__tree_nodeISH_PvEENS_22__tree_node_destructorINS5_ISS_EEEEEEDpOT_)
                  70117f9e    00000002     --HOLE-- [fill = 0]
                  70117fa0    0000005e     Configurer.obj (.text._ZNSt3__16__treeINS_12__value_typeINS_12basic_stringIcNS_11char_traitsIcEENS_9allocatorIcEEEEN8nlohmann16json_abi_v3_11_210basic_jsonINS_3mapENS_6vectorES7_bxydS5_NS9_14adl_serializerENSC_IhNS5_IhEEEEvEEEENS_19__map_value_compareIS7_SH_NS_4lessIvEELb1EEENS5_ISH_EEE30__emplace_hint_unique_key_argsIS7_JRKNS_4pairIKS7_SG_EEEEENSP_INS_15__tree_iteratorISH_PNS_11__tree_nodeISH_PvEEiEEbEENS_21__tree_const_iteratorISH_SY_iEERKT_DpOT0_)
                  70117ffe    00000002     --HOLE-- [fill = 0]
                  70118000    0000005c     freertos.am64x.r5f.ti-arm-clang.release.lib : DebugP_log.obj (.text._DebugP_assert)
                  7011805c    00000004     --HOLE-- [fill = 0]
                  70118060    0000005c     Producer.obj (.text._ZN8ProducerC2E17CommunicationTypeRK6Logger14BrokerMetadata)
                  701180bc    00000004     --HOLE-- [fill = 0]
                  701180c0    0000005c     RealTopic.obj (.text._ZN9RealTopic11unsubscribeE16ConsumerMetadata)
                  7011811c    00000004     --HOLE-- [fill = 0]
                  70118120    0000005c     Configurer.obj (.text._ZNSt3__16__treeINS_12__value_typeINS_12basic_stringIcNS_11char_traitsIcEENS_9allocatorIcEEEEN8nlohmann16json_abi_v3_11_210basic_jsonINS_3mapENS_6vectorES7_bxydS5_NS9_14adl_serializerENSC_IhNS5_IhEEEEvEEEENS_19__map_value_compareIS7_SH_NS_4lessIvEELb1EEENS5_ISH_EEE12__find_equalIS7_EERPNS_16__tree_node_baseIPvEERPNS_15__tree_end_nodeISS_EERKT_)
                  7011817c    00000004     --HOLE-- [fill = 0]
                  70118180    0000005c     BrokerMetadata.obj (.text._ZNSt3__16vectorIN8nlohmann16json_abi_v3_11_210basic_jsonINS_3mapES0_NS_12basic_stringIcNS_11char_traitsIcEENS_9allocatorIcEEEEbxydS8_NS2_14adl_serializerENS0_IhNS8_IhEEEEvEENS8_ISE_EEEC2INS_11__wrap_iterIPK13TopicMetadataEEEET_NS_9enable_ifIXaasr27__is_cpp17_forward_iteratorISN_EE5valuesr16is_constructibleISE_NS_15iterator_traitsISN_E9referenceEEE5valueESN_E4typeE)
                  701181dc    0000005c     libc.a : _printfi.c.obj (.text._fcpy)
                  70118238    00000008     --HOLE-- [fill = 0]
                  70118240    0000005a     drivers.am64x.r5f.ti-arm-clang.release.lib : ipc_rpmsg_vring.obj (.text.RPMessage_vringIsFullRxBuf)
                  7011829a    00000006     --HOLE-- [fill = 0]
                  701182a0    0000005a     Consumer.obj (.text._ZN8Consumer9subscribeE13TopicMetadata)
                  701182fa    00000006     --HOLE-- [fill = 0]
                  70118300    0000005a     TopicHandler.obj (.text._ZNSt3__13mapI16ConsumerMetadataiNS_4lessIS1_EENS_9allocatorINS_4pairIKS1_iEEEEE6insertINS_20__map_const_iteratorINS_21__tree_const_iteratorINS_12__value_typeIS1_iEEPNS_11__tree_nodeISE_PvEEiEEEEEEvT_SL_)
                  7011835a    00000006     --HOLE-- [fill = 0]
                  70118360    0000005a     Configurer.obj (.text._ZNSt3__13mapINS_12basic_stringIcNS_11char_traitsIcEENS_9allocatorIcEEEEN8nlohmann16json_abi_v3_11_210basic_jsonIS0_NS_6vectorES6_bxydS4_NS8_14adl_serializerENSA_IhNS4_IhEEEEvEENS_4lessIvEENS4_INS_4pairIKS6_SE_EEEEE6insertINS_20__map_const_iteratorINS_21__tree_const_iteratorINS_12__value_typeIS6_SE_EEPNS_11__tree_nodeISQ_PvEEiEEEEEEvT_SX_)
                  701183ba    00000006     --HOLE-- [fill = 0]
                  701183c0    0000005a     TopicHandler.obj (.text._ZNSt3__16vectorI9RealTopicNS_9allocatorIS1_EEE26__swap_out_circular_bufferERNS_14__split_bufferIS1_RS3_EE)
                  7011841a    00000006     --HOLE-- [fill = 0]
                  70118420    00000058     freertos.am64x.r5f.ti-arm-clang.release.lib : SemaphoreP_freertos.obj (.text.SemaphoreP_pend)
                  70118478    00000008     --HOLE-- [fill = 0]
                  70118480    00000058     TopicFactory.obj (.text._ZN12TopicFactoryC2E17CommunicationTypeRK6Logger14BrokerMetadata)
                  701184d8    00000008     --HOLE-- [fill = 0]
                  701184e0    00000058     Configurer.obj (.text._ZN8nlohmann16json_abi_v3_11_210basic_jsonINSt3__13mapENS2_6vectorENS2_12basic_stringIcNS2_11char_traitsIcEENS2_9allocatorIcEEEEbxydS8_NS0_14adl_serializerENS4_IhNS8_IhEEEEvE6parserINS0_6detail22iterator_input_adapterIPKcEEEENSG_6parserISE_T_EESM_NS2_8functionIFbiNSG_13parse_event_tERSE_EEEbb)
                  70118538    00000008     --HOLE-- [fill = 0]
                  70118540    00000058     Configurer.obj (.text._ZN8nlohmann16json_abi_v3_11_210basic_jsonINSt3__13mapENS2_6vectorENS2_12basic_stringIcNS2_11char_traitsIcEENS2_9allocatorIcEEEEbxydS8_NS0_14adl_serializerENS4_IhNS8_IhEEEEvE6parserINS0_6detail22iterator_input_adapterIPcEEEENSG_6parserISE_T_EESL_NS2_8functionIFbiNSG_13parse_event_tERSE_EEEbb)
                  70118598    00000008     --HOLE-- [fill = 0]
                  701185a0    00000058     Configurer.obj (.text._ZN8nlohmann16json_abi_v3_11_26detail11parse_error15position_stringERKNS1_10position_tE)
                  701185f8    00000008     --HOLE-- [fill = 0]
                  70118600    00000058     Configurer.obj (.text._ZN8nlohmann16json_abi_v3_11_26detail6concatINSt3__112basic_stringIcNS3_11char_traitsIcEENS3_9allocatorIcEEEEJRA26_KcS9_cEEET_DpOT0_)
                  70118658    00000008     --HOLE-- [fill = 0]
                  70118660    00000058     Configurer.obj (.text._ZNK8nlohmann16json_abi_v3_11_26detail5lexerINS0_10basic_jsonINSt3__13mapENS4_6vectorENS4_12basic_stringIcNS4_11char_traitsIcEENS4_9allocatorIcEEEEbxydSA_NS0_14adl_serializerENS6_IhNSA_IhEEEEvEENS1_22iterator_input_adapterIPKcEEE16get_token_stringEv)
                  701186b8    00000008     --HOLE-- [fill = 0]
                  701186c0    00000058     Configurer.obj (.text._ZNK8nlohmann16json_abi_v3_11_26detail5lexerINS0_10basic_jsonINSt3__13mapENS4_6vectorENS4_12basic_stringIcNS4_11char_traitsIcEENS4_9allocatorIcEEEEbxydSA_NS0_14adl_serializerENS6_IhNSA_IhEEEEvEENS1_22iterator_input_adapterIPcEEE16get_token_stringEv)
                  70118718    00000008     --HOLE-- [fill = 0]
                  70118720    00000058     Configurer.obj (.text._ZNKSt3__14lessIvEclIRKNS_12basic_stringIcNS_11char_traitsIcEENS_9allocatorIcEEEESA_EEDTltclsr3stdE7forwardIT_Efp_Eclsr3stdE7forwardIT0_Efp0_EEOSB_OSC_)
                  70118778    00000008     --HOLE-- [fill = 0]
                  70118780    00000058     libc++abi.a : stdlib_stdexcept.cpp.obj (.text._ZNSt13runtime_errorD0Ev)
                  701187d8    00000008     --HOLE-- [fill = 0]
                  701187e0    00000058     Configurer.obj (.text._ZNSt3__146__construct_backward_with_exception_guaranteesINS_9allocatorIN8nlohmann16json_abi_v3_11_210basic_jsonINS_3mapENS_6vectorENS_12basic_stringIcNS_11char_traitsIcEENS1_IcEEEEbxydS1_NS3_14adl_serializerENS6_IhNS1_IhEEEEvEEEEPSF_EEvRT_T0_SK_RSK_)
                  70118838    00000058     libc.a : fopen.c.obj (.text.__TI_cleanup)
                  70118890    00000058     libsysbm.a : trgmsg.c.obj (.text.__TI_readmsg)
                  701188e8    00000058                : trgmsg.c.obj (.text.__TI_writemsg)
                  70118940    00000058     libc.a : snprintf.c.obj (.text._outs)
                  70118998    00000058            : vsnprintf.c.obj (.text._outs)
                  701189f0    00000058            : sprintf.c.obj (.text.sprintf)
                  70118a48    00000008     --HOLE-- [fill = 0]
                  70118a50    00000058     freertos.am64x.r5f.ti-arm-clang.release.lib : tasks.obj (.text.vTaskPlaceOnEventListRestricted)
                  70118aa8    00000008     --HOLE-- [fill = 0]
                  70118ab0    00000056     drivers.am64x.r5f.ti-arm-clang.release.lib : uart_dma.obj (.text.UART_dmaDisableChannel)
                  70118b06    0000000a     --HOLE-- [fill = 0]
                  70118b10    00000056     Producer.obj (.text._ZN8Producer7publishE14ProducerRecord)
                  70118b66    0000000a     --HOLE-- [fill = 0]
                  70118b70    00000056     embedded_kafka.obj (.text._ZNSt3__112basic_stringIcNS_11char_traitsIcEENS_9allocatorIcEEEC2IDnEEPKc)
                  70118bc6    0000000a     --HOLE-- [fill = 0]
                  70118bd0    00000056     TopicHandler.obj (.text._ZNSt3__19allocatorI9RealTopicE9constructIS1_JRKS1_EEEvPT_DpOT0_)
                  70118c26    0000000a     --HOLE-- [fill = 0]
                  70118c30    00000056     TopicHandler.obj (.text._ZNSt3__19allocatorI9RealTopicE9constructIS1_JS1_EEEvPT_DpOT0_)
                  70118c86    0000000a     --HOLE-- [fill = 0]
                  70118c90    00000056     freertos.am64x.r5f.ti-arm-clang.release.lib : tasks.obj (.text.vTaskDelay)
                  70118ce6    0000000a     --HOLE-- [fill = 0]
                  70118cf0    00000054     drivers.am64x.r5f.ti-arm-clang.release.lib : ipc_rpmsg.obj (.text.RPMessage_notifyCallback)
                  70118d44    0000000c     --HOLE-- [fill = 0]
                  70118d50    00000054                                                : uart_dma.obj (.text.UART_dmaClose)
                  70118da4    0000000c     --HOLE-- [fill = 0]
                  70118db0    00000054     Configurer.obj (.text._ZN8nlohmann16json_abi_v3_11_26detail10serializerINS0_10basic_jsonINSt3__13mapENS4_6vectorENS4_12basic_stringIcNS4_11char_traitsIcEENS4_9allocatorIcEEEEbxydSA_NS0_14adl_serializerENS6_IhNSA_IhEEEEvEEE6decodeERhRjh)
                  70118e04    0000000c     --HOLE-- [fill = 0]
                  70118e10    00000054     Configurer.obj (.text._ZN8nlohmann16json_abi_v3_11_26detail28json_sax_dom_callback_parserINS0_10basic_jsonINSt3__13mapENS4_6vectorENS4_12basic_stringIcNS4_11char_traitsIcEENS4_9allocatorIcEEEEbxydSA_NS0_14adl_serializerENS6_IhNSA_IhEEEEvEEEC2ERSG_NS4_8functionIFbiNS1_13parse_event_tESI_EEEb)
                  70118e64    0000000c     --HOLE-- [fill = 0]
                  70118e70    00000054     Configurer.obj (.text._ZN8nlohmann16json_abi_v3_11_26detail9dtoa_impl5diyfp9normalizeES3_)
                  70118ec4    0000000c     --HOLE-- [fill = 0]
                  70118ed0    00000054     libc++abi.a : stdlib_stdexcept.cpp.obj (.text._ZNSt13runtime_errorD2Ev)
                  70118f24    00000054     libc.a : exit.c.obj (.text.exit)
                  70118f78    00000008     --HOLE-- [fill = 0]
                  70118f80    00000052     drivers.am64x.r5f.ti-arm-clang.release.lib : sciclient_pm.obj (.text.Sciclient_pmSetModuleState)
                  70118fd2    0000000e     --HOLE-- [fill = 0]
                  70118fe0    00000052     freertos.am64x.r5f.ti-arm-clang.release.lib : SemaphoreP_freertos.obj (.text.SemaphoreP_constructMutex)
                  70119032    0000000e     --HOLE-- [fill = 0]
                  70119040    00000052                                                 : SemaphoreP_freertos.obj (.text.SemaphoreP_post)
                  70119092    0000000e     --HOLE-- [fill = 0]
                  701190a0    00000052     RPMessageEndpoint.obj (.text._ZN17RPMessageEndpoint9from_jsonERKN8nlohmann16json_abi_v3_11_210basic_jsonINSt3__13mapENS3_6vectorENS3_12basic_stringIcNS3_11char_traitsIcEENS3_9allocatorIcEEEEbxydS9_NS1_14adl_serializerENS5_IhNS9_IhEEEEvEE)
                  701190f2    0000000e     --HOLE-- [fill = 0]
                  70119100    00000052     Broker.obj (.text._ZN6BrokerC2E17CommunicationTypeRK8EndpointRK6Logger14BrokerMetadata)
                  70119152    0000000e     --HOLE-- [fill = 0]
                  70119160    00000052     Configurer.obj (.text._ZN8nlohmann16json_abi_v3_11_26detail19json_sax_dom_parserINS0_10basic_jsonINSt3__13mapENS4_6vectorENS4_12basic_stringIcNS4_11char_traitsIcEENS4_9allocatorIcEEEEbxydSA_NS0_14adl_serializerENS6_IhNSA_IhEEEEvEEE10end_objectEv)
                  701191b2    0000000e     --HOLE-- [fill = 0]
                  701191c0    00000052     Configurer.obj (.text._ZN8nlohmann16json_abi_v3_11_26detail19json_sax_dom_parserINS0_10basic_jsonINSt3__13mapENS4_6vectorENS4_12basic_stringIcNS4_11char_traitsIcEENS4_9allocatorIcEEEEbxydSA_NS0_14adl_serializerENS6_IhNSA_IhEEEEvEEE9end_arrayEv)
                  70119212    0000000e     --HOLE-- [fill = 0]
                  70119220    00000052     BrokerMetadata.obj (.text._ZNK8nlohmann16json_abi_v3_11_26detail9iter_implIKNS0_10basic_jsonINSt3__13mapENS4_6vectorENS4_12basic_stringIcNS4_11char_traitsIcEENS4_9allocatorIcEEEEbxydSA_NS0_14adl_serializerENS6_IhNSA_IhEEEEvEEEeqISI_LDn0EEEbRKT_)
                  70119272    0000000e     --HOLE-- [fill = 0]
                  70119280    00000052     Configurer.obj (.text._ZNK8nlohmann16json_abi_v3_11_26detail9iter_implINS0_10basic_jsonINSt3__13mapENS4_6vectorENS4_12basic_stringIcNS4_11char_traitsIcEENS4_9allocatorIcEEEEbxydSA_NS0_14adl_serializerENS6_IhNSA_IhEEEEvEEEeqISH_LDn0EEEbRKT_)
                  701192d2    0000000e     --HOLE-- [fill = 0]
                  701192e0    00000052     TopicHandler.obj (.text._ZNSt3__16__treeINS_12__value_typeI16ConsumerMetadataiEENS_19__map_value_compareIS2_S3_NS_4lessIS2_EELb1EEENS_9allocatorIS3_EEE30__emplace_hint_unique_key_argsIS2_JRKNS_4pairIKS2_iEEEEENSC_INS_15__tree_iteratorIS3_PNS_11__tree_nodeIS3_PvEEiEEbEENS_21__tree_const_iteratorIS3_SL_iEERKT_DpOT0_)
                  70119332    0000000e     --HOLE-- [fill = 0]
                  70119340    00000052     freertos.am64x.r5f.ti-arm-clang.release.lib : queue.obj (.text.xQueueGiveMutexRecursive)
                  70119392    0000000e     --HOLE-- [fill = 0]
                  701193a0    00000050                                                 : DebugP_shmLogReader_freertos.obj (.text.DebugP_shmLogReaderTaskCreate)
                  701193f0    00000050     drivers.am64x.r5f.ti-arm-clang.release.lib : sciclient_soc_priv.obj (.text.Sciclient_getContext)
                  70119440    00000050     EndpointFactory.obj (.text._ZN15EndpointFactory15getFreeEndpointEv)
                  70119490    00000050     Configurer.obj (.text._ZN8nlohmann16json_abi_v3_11_26detail5lexerINS0_10basic_jsonINSt3__13mapENS4_6vectorENS4_12basic_stringIcNS4_11char_traitsIcEENS4_9allocatorIcEEEEbxydSA_NS0_14adl_serializerENS6_IhNSA_IhEEEEvEENS1_22iterator_input_adapterIPKcEEE5ungetEv)
                  701194e0    00000050     Configurer.obj (.text._ZN8nlohmann16json_abi_v3_11_26detail5lexerINS0_10basic_jsonINSt3__13mapENS4_6vectorENS4_12basic_stringIcNS4_11char_traitsIcEENS4_9allocatorIcEEEEbxydSA_NS0_14adl_serializerENS6_IhNSA_IhEEEEvEENS1_22iterator_input_adapterIPcEEE5ungetEv)
                  70119530    00000050     TopicHandler.obj (.text._ZNSt3__16__treeINS_12__value_typeI16ConsumerMetadataiEENS_19__map_value_compareIS2_S3_NS_4lessIS2_EELb1EEENS_9allocatorIS3_EEE12__find_equalIS2_EERPNS_16__tree_node_baseIPvEERPNS_15__tree_end_nodeISF_EERKT_)
                  70119580    00000050     ClusterMetadata.obj (.text._ZNSt3__16vectorIN8nlohmann16json_abi_v3_11_210basic_jsonINS_3mapES0_NS_12basic_stringIcNS_11char_traitsIcEENS_9allocatorIcEEEEbxydS8_NS2_14adl_serializerENS0_IhNS8_IhEEEEvEENS8_ISE_EEEC2INS_11__wrap_iterIPK14BrokerMetadataEEEET_NS_9enable_ifIXaasr27__is_cpp17_forward_iteratorISN_EE5valuesr16is_constructibleISE_NS_15iterator_traitsISN_E9referenceEEE5valueESN_E4typeE)
                  701195d0    00000050     freertos.am64x.r5f.ti-arm-clang.release.lib : tasks.obj (.text.prvDeleteTCB)
                  70119620    00000050     libc.a : autoinit.c.obj (.text:__TI_auto_init_nobinit_nopinit)
                  70119670    0000004e     ti_dpl_config.obj (.text.Dpl_init)
                  701196be    00000002     --HOLE-- [fill = 0]
                  701196c0    0000004e     embedded_kafka.obj (.text._Z10configurerii)
                  7011970e    00000002     --HOLE-- [fill = 0]
                  70119710    0000004e     Configurer.obj (.text._ZN10ConfigurerD2Ev)
                  7011975e    00000002     --HOLE-- [fill = 0]
                  70119760    0000004e     Record.obj (.text._ZN8nlohmann16json_abi_v3_11_210basic_jsonINSt3__13mapENS2_6vectorENS2_12basic_stringIcNS2_11char_traitsIcEENS2_9allocatorIcEEEEbxydS8_NS0_14adl_serializerENS4_IhNS8_IhEEEEvEC2INS0_6detail8json_refISE_EELi0EEERKT_)
                  701197ae    00000002     --HOLE-- [fill = 0]
                  701197b0    0000004e     Configurer.obj (.text._ZN8nlohmann16json_abi_v3_11_26detail28json_sax_dom_callback_parserINS0_10basic_jsonINSt3__13mapENS4_6vectorENS4_12basic_stringIcNS4_11char_traitsIcEENS4_9allocatorIcEEEEbxydSA_NS0_14adl_serializerENS6_IhNSA_IhEEEEvEEED2Ev)
                  701197fe    00000002     --HOLE-- [fill = 0]
                  70119800    0000004e     Configurer.obj (.text._ZN8nlohmann16json_abi_v3_11_26detail9iter_implINS0_10basic_jsonINSt3__13mapENS4_6vectorENS4_12basic_stringIcNS4_11char_traitsIcEENS4_9allocatorIcEEEEbxydSA_NS0_14adl_serializerENS6_IhNSA_IhEEEEvEEEC2EPSG_)
                  7011984e    00000002     --HOLE-- [fill = 0]
                  70119850    0000004e     freertos.am64x.r5f.ti-arm-clang.release.lib : tasks.obj (.text.vTaskPlaceOnEventList)
                  7011989e    00000002     --HOLE-- [fill = 0]
                  701198a0    0000004e                                                 : queue.obj (.text.xQueueTakeMutexRecursive)
                  701198ee    00000002     --HOLE-- [fill = 0]
                  701198f0    0000004c                                                 : ClockP_freertos.obj (.text.ClockP_getTimeUsec)
                  7011993c    00000004     --HOLE-- [fill = 0]
                  70119940    0000004c     ti_drivers_open_close.obj (.text.Drivers_uartOpen)
                  7011998c    00000004     --HOLE-- [fill = 0]
                  70119990    0000004c     drivers.am64x.r5f.ti-arm-clang.release.lib : ipc_rpmsg.obj (.text.RPMessage_allocEndPtMsg)
                  701199dc    00000004     --HOLE-- [fill = 0]
                  701199e0    0000004c     Configurer.obj (.text._ZN8nlohmann16json_abi_v3_11_210basic_jsonINSt3__13mapENS2_6vectorENS2_12basic_stringIcNS2_11char_traitsIcEENS2_9allocatorIcEEEEbxydS8_NS0_14adl_serializerENS4_IhNS8_IhEEEEvE10json_valueC2ENS0_6detail7value_tE)
                  70119a2c    00000004     --HOLE-- [fill = 0]
                  70119a30    0000004c     RealTopic.obj (.text._ZN9RealTopicC2E13TopicMetadataRK6Logger)
                  70119a7c    00000004     --HOLE-- [fill = 0]
                  70119a80    0000004c     Configurer.obj (.text._ZNSt3__16__treeINS_12__value_typeINS_12basic_stringIcNS_11char_traitsIcEENS_9allocatorIcEEEEN8nlohmann16json_abi_v3_11_210basic_jsonINS_3mapENS_6vectorES7_bxydS5_NS9_14adl_serializerENSC_IhNS5_IhEEEEvEEEENS_19__map_value_compareIS7_SH_NS_4lessIvEELb1EEENS5_ISH_EEE16__construct_nodeIJS7_DnEEENS_10unique_ptrINS_11__tree_nodeISH_PvEENS_22__tree_node_destructorINS5_ISS_EEEEEEDpOT_)
                  70119acc    0000004c     libc.a : memmov.c.obj (.text.memmove)
                  70119b18    00000008     --HOLE-- [fill = 0]
                  70119b20    0000004a     TopicHandler.obj (.text._ZN12TopicHandler11unsubscribeE16ConsumerMetadata13TopicMetadata)
                  70119b6a    00000006     --HOLE-- [fill = 0]
                  70119b70    0000004a     TopicHandler.obj (.text._ZN12TopicHandler9subscribeE16ConsumerMetadata13TopicMetadata)
                  70119bba    00000006     --HOLE-- [fill = 0]
                  70119bc0    0000004a     Configurer.obj (.text._ZN8nlohmann16json_abi_v3_11_26detail9exception4nameERKNSt3__112basic_stringIcNS3_11char_traitsIcEENS3_9allocatorIcEEEEi)
                  70119c0a    00000006     --HOLE-- [fill = 0]
                  70119c10    0000004a     Configurer.obj (.text._ZNSt3__16__treeINS_12__value_typeINS_12basic_stringIcNS_11char_traitsIcEENS_9allocatorIcEEEEN8nlohmann16json_abi_v3_11_210basic_jsonINS_3mapENS_6vectorES7_bxydS5_NS9_14adl_serializerENSC_IhNS5_IhEEEEvEEEENS_19__map_value_compareIS7_SH_NS_4lessIvEELb1EEENS5_ISH_EEE25__emplace_unique_key_argsIS7_JRKNS_21piecewise_construct_tENS_5tupleIJRKS7_EEENSS_IJEEEEEENS_4pairINS_15__tree_iteratorISH_PNS_11__tree_nodeISH_PvEEiEEbEERKT_DpOT0_)
                  70119c5a    00000006     --HOLE-- [fill = 0]
                  70119c60    00000048     Configurer.obj (.text._ZN10ConfigurerC2E17CommunicationTypeRK8EndpointRK6Logger)
                  70119ca8    00000008     --HOLE-- [fill = 0]
                  70119cb0    00000048     SystemManager.obj (.text._ZN13SystemManagerC2E17CommunicationTypeRK6Logger14BrokerMetadata)
                  70119cf8    00000008     --HOLE-- [fill = 0]
                  70119d00    00000048     CommunicationUtils.obj (.text._ZN18CommunicationUtils7requestEP13Communication17CommunicationTypeP8EndpointPKcjPcj)
                  70119d48    00000008     --HOLE-- [fill = 0]
                  70119d50    00000048     BrokerMetadata.obj (.text._ZN8nlohmann16json_abi_v3_11_26detail9iter_implIKNS0_10basic_jsonINSt3__13mapENS4_6vectorENS4_12basic_stringIcNS4_11char_traitsIcEENS4_9allocatorIcEEEEbxydSA_NS0_14adl_serializerENS6_IhNSA_IhEEEEvEEE9set_beginEv)
                  70119d98    00000008     --HOLE-- [fill = 0]
                  70119da0    00000048     Configurer.obj (.text._ZN8nlohmann16json_abi_v3_11_26detail9iter_implINS0_10basic_jsonINSt3__13mapENS4_6vectorENS4_12basic_stringIcNS4_11char_traitsIcEENS4_9allocatorIcEEEEbxydSA_NS0_14adl_serializerENS6_IhNSA_IhEEEEvEEE9set_beginEv)
                  70119de8    00000008     --HOLE-- [fill = 0]
                  70119df0    00000048     Configurer.obj (.text._ZNSt3__114__split_bufferI13TopicMetadataRNS_9allocatorIS1_EEEC2EjjS4_)
                  70119e38    00000008     --HOLE-- [fill = 0]
                  70119e40    00000048     RealTopic.obj (.text._ZNSt3__114__split_bufferI6RecordRNS_9allocatorIS1_EEEC2EjjS4_)
                  70119e88    00000008     --HOLE-- [fill = 0]
                  70119e90    00000048     RealTopic.obj (.text._ZNSt3__16__treeINS_12__value_typeI16ConsumerMetadataiEENS_19__map_value_compareIS2_S3_NS_4lessIS2_EELb1EEENS_9allocatorIS3_EEE25__emplace_unique_key_argsIS2_JNS_4pairIS2_iEEEEENSC_INS_15__tree_iteratorIS3_PNS_11__tree_nodeIS3_PvEEiEEbEERKT_DpOT0_)
                  70119ed8    00000008     --HOLE-- [fill = 0]
                  70119ee0    00000048     Configurer.obj (.text._ZNSt3__16__treeINS_12__value_typeINS_12basic_stringIcNS_11char_traitsIcEENS_9allocatorIcEEEEN8nlohmann16json_abi_v3_11_210basic_jsonINS_3mapENS_6vectorES7_bxydS5_NS9_14adl_serializerENSC_IhNS5_IhEEEEvEEEENS_19__map_value_compareIS7_SH_NS_4lessIvEELb1EEENS5_ISH_EEE4findIS7_EENS_15__tree_iteratorISH_PNS_11__tree_nodeISH_PvEEiEERKT_)
                  70119f28    00000008     --HOLE-- [fill = 0]
                  70119f30    00000048     libc++abi.a : stdlib_new_delete.cpp.obj (.text._Znwj)
                  70119f78    00000048     libc.a : memccpy.c.obj (.text.memccpy)
                  70119fc0    00000048     libsysbm.a : unlink.c.obj (.text.unlink)
                  7011a008    00000008     --HOLE-- [fill = 0]
                  7011a010    00000046     BrokerMetadata.obj (.text._ZN8nlohmann16json_abi_v3_11_26detail9iter_implIKNS0_10basic_jsonINSt3__13mapENS4_6vectorENS4_12basic_stringIcNS4_11char_traitsIcEENS4_9allocatorIcEEEEbxydSA_NS0_14adl_serializerENS6_IhNSA_IhEEEEvEEEppEv)
                  7011a056    0000000a     --HOLE-- [fill = 0]
                  7011a060    00000046     Configurer.obj (.text._ZN8nlohmann16json_abi_v3_11_26detail9iter_implINS0_10basic_jsonINSt3__13mapENS4_6vectorENS4_12basic_stringIcNS4_11char_traitsIcEENS4_9allocatorIcEEEEbxydSA_NS0_14adl_serializerENS6_IhNSA_IhEEEEvEEEppEv)
                  7011a0a6    0000000a     --HOLE-- [fill = 0]
                  7011a0b0    00000046     RealTopic.obj (.text._ZNSt3__16__treeINS_12__value_typeI16ConsumerMetadataiEENS_19__map_value_compareIS2_S3_NS_4lessIS2_EELb1EEENS_9allocatorIS3_EEE21__remove_node_pointerEPNS_11__tree_nodeIS3_PvEE)
                  7011a0f6    0000000a     --HOLE-- [fill = 0]
                  7011a100    00000046     RealTopic.obj (.text._ZNSt3__16__treeINS_12__value_typeI16ConsumerMetadataiEENS_19__map_value_compareIS2_S3_NS_4lessIS2_EELb1EEENS_9allocatorIS3_EEE25__emplace_unique_key_argsIS2_JRKNS_21piecewise_construct_tENS_5tupleIJRKS2_EEENSF_IJEEEEEENS_4pairINS_15__tree_iteratorIS3_PNS_11__tree_nodeIS3_PvEEiEEbEERKT_DpOT0_)
                  7011a146    0000000a     --HOLE-- [fill = 0]
                  7011a150    00000046     Configurer.obj (.text._ZNSt3__16__treeINS_12__value_typeINS_12basic_stringIcNS_11char_traitsIcEENS_9allocatorIcEEEEN8nlohmann16json_abi_v3_11_210basic_jsonINS_3mapENS_6vectorES7_bxydS5_NS9_14adl_serializerENSC_IhNS5_IhEEEEvEEEENS_19__map_value_compareIS7_SH_NS_4lessIvEELb1EEENS5_ISH_EEE21__remove_node_pointerEPNS_11__tree_nodeISH_PvEE)
                  7011a196    0000000a     --HOLE-- [fill = 0]
                  7011a1a0    00000046     freertos.am64x.r5f.ti-arm-clang.release.lib : queue.obj (.text.vQueueWaitForMessageRestricted)
                  7011a1e6    0000000a     --HOLE-- [fill = 0]
                  7011a1f0    00000044     drivers.am64x.r5f.ti-arm-clang.release.lib : sciclient_pm.obj (.text.Sciclient_pmSetModuleRst)
                  7011a234    0000000c     --HOLE-- [fill = 0]
                  7011a240    00000044     Configurer.obj (.text._ZN8nlohmann16json_abi_v3_11_210basic_jsonINSt3__13mapENS2_6vectorENS2_12basic_stringIcNS2_11char_traitsIcEENS2_9allocatorIcEEEEbxydS8_NS0_14adl_serializerENS4_IhNS8_IhEEEEvEixESA_)
                  7011a284    0000000c     --HOLE-- [fill = 0]
                  7011a290    00000044     Configurer.obj (.text._ZNSt3__16__treeINS_12__value_typeINS_12basic_stringIcNS_11char_traitsIcEENS_9allocatorIcEEEEN8nlohmann16json_abi_v3_11_210basic_jsonINS_3mapENS_6vectorES7_bxydS5_NS9_14adl_serializerENSC_IhNS5_IhEEEEvEEEENS_19__map_value_compareIS7_SH_NS_4lessIvEELb1EEENS5_ISH_EEE7destroyEPNS_11__tree_nodeISH_PvEE)
                  7011a2d4    0000000c     --HOLE-- [fill = 0]
                  7011a2e0    00000044     embedded_kafka.obj (.text._ZNSt3__16vectorI13TopicMetadataNS_9allocatorIS1_EEEC2ERKS4_)
                  7011a324    0000000c     --HOLE-- [fill = 0]
                  7011a330    00000044     SystemManager.obj (.text._ZNSt3__16vectorI14BrokerMetadataNS_9allocatorIS1_EEEC2ERKS4_)
                  7011a374    0000000c     --HOLE-- [fill = 0]
                  7011a380    00000044     TopicHandler.obj (.text._ZNSt3__16vectorI6RecordNS_9allocatorIS1_EEEC2ERKS4_)
                  7011a3c4    0000000c     --HOLE-- [fill = 0]
                  7011a3d0    00000042     Configurer.obj (.text._ZN8nlohmann16json_abi_v3_11_210basic_jsonINSt3__13mapENS2_6vectorENS2_12basic_stringIcNS2_11char_traitsIcEENS2_9allocatorIcEEEEbxydS8_NS0_14adl_serializerENS4_IhNS8_IhEEEEvE6createINS3_ISA_SE_NS2_4lessIvEENS8_INS2_4pairIKSA_SE_EEEEEEJRKSM_EEEPT_DpOT0_)
                  7011a412    0000000e     --HOLE-- [fill = 0]
                  7011a420    00000042     Configurer.obj (.text._ZN8nlohmann16json_abi_v3_11_210basic_jsonINSt3__13mapENS2_6vectorENS2_12basic_stringIcNS2_11char_traitsIcEENS2_9allocatorIcEEEEbxydS8_NS0_14adl_serializerENS4_IhNS8_IhEEEEvEC2IRddLi0EEEOT_)
                  7011a462    0000000e     --HOLE-- [fill = 0]
                  7011a470    00000042     BrokerMetadata.obj (.text._ZN8nlohmann16json_abi_v3_11_26detail9iter_implIKNS0_10basic_jsonINSt3__13mapENS4_6vectorENS4_12basic_stringIcNS4_11char_traitsIcEENS4_9allocatorIcEEEEbxydSA_NS0_14adl_serializerENS6_IhNSA_IhEEEEvEEE7set_endEv)
                  7011a4b2    0000000e     --HOLE-- [fill = 0]
                  7011a4c0    00000042     Configurer.obj (.text._ZN8nlohmann16json_abi_v3_11_26detail9iter_implINS0_10basic_jsonINSt3__13mapENS4_6vectorENS4_12basic_stringIcNS4_11char_traitsIcEENS4_9allocatorIcEEEEbxydSA_NS0_14adl_serializerENS6_IhNSA_IhEEEEvEEE7set_endEv)
                  7011a502    0000000e     --HOLE-- [fill = 0]
                  7011a510    00000042     RPMessageEndpoint.obj (.text._ZNSt3__16__treeINS_12__value_typeINS_12basic_stringIcNS_11char_traitsIcEENS_9allocatorIcEEEEN8nlohmann16json_abi_v3_11_210basic_jsonINS_3mapENS_6vectorES7_bxydS5_NS9_14adl_serializerENSC_IhNS5_IhEEEEvEEEENS_19__map_value_compareIS7_SH_NS_4lessIvEELb1EEENS5_ISH_EEE4findIA16_cEENS_15__tree_iteratorISH_PNS_11__tree_nodeISH_PvEEiEERKT_)
                  7011a552    0000000e     --HOLE-- [fill = 0]
                  7011a560    00000042     UDPEndpoint.obj (.text._ZNSt3__16__treeINS_12__value_typeINS_12basic_stringIcNS_11char_traitsIcEENS_9allocatorIcEEEEN8nlohmann16json_abi_v3_11_210basic_jsonINS_3mapENS_6vectorES7_bxydS5_NS9_14adl_serializerENSC_IhNS5_IhEEEEvEEEENS_19__map_value_compareIS7_SH_NS_4lessIvEELb1EEENS5_ISH_EEE4findIA3_cEENS_15__tree_iteratorISH_PNS_11__tree_nodeISH_PvEEiEERKT_)
                  7011a5a2    0000000e     --HOLE-- [fill = 0]
                  7011a5b0    00000042     Record.obj (.text._ZNSt3__16__treeINS_12__value_typeINS_12basic_stringIcNS_11char_traitsIcEENS_9allocatorIcEEEEN8nlohmann16json_abi_v3_11_210basic_jsonINS_3mapENS_6vectorES7_bxydS5_NS9_14adl_serializerENSC_IhNS5_IhEEEEvEEEENS_19__map_value_compareIS7_SH_NS_4lessIvEELb1EEENS5_ISH_EEE4findIA5_cEENS_15__tree_iteratorISH_PNS_11__tree_nodeISH_PvEEiEERKT_)
                  7011a5f2    0000000e     --HOLE-- [fill = 0]
                  7011a600    00000042     BrokerMetadata.obj (.text._ZNSt3__16__treeINS_12__value_typeINS_12basic_stringIcNS_11char_traitsIcEENS_9allocatorIcEEEEN8nlohmann16json_abi_v3_11_210basic_jsonINS_3mapENS_6vectorES7_bxydS5_NS9_14adl_serializerENSC_IhNS5_IhEEEEvEEEENS_19__map_value_compareIS7_SH_NS_4lessIvEELb1EEENS5_ISH_EEE4findIA7_cEENS_15__tree_iteratorISH_PNS_11__tree_nodeISH_PvEEiEERKT_)
                  7011a642    0000000e     --HOLE-- [fill = 0]
                  7011a650    00000042     ClusterMetadata.obj (.text._ZNSt3__16__treeINS_12__value_typeINS_12basic_stringIcNS_11char_traitsIcEENS_9allocatorIcEEEEN8nlohmann16json_abi_v3_11_210basic_jsonINS_3mapENS_6vectorES7_bxydS5_NS9_14adl_serializerENSC_IhNS5_IhEEEEvEEEENS_19__map_value_compareIS7_SH_NS_4lessIvEELb1EEENS5_ISH_EEE4findIA8_cEENS_15__tree_iteratorISH_PNS_11__tree_nodeISH_PvEEiEERKT_)
                  7011a692    0000000e     --HOLE-- [fill = 0]
                  7011a6a0    00000042     BrokerMetadata.obj (.text._ZNSt3__16__treeINS_12__value_typeINS_12basic_stringIcNS_11char_traitsIcEENS_9allocatorIcEEEEN8nlohmann16json_abi_v3_11_210basic_jsonINS_3mapENS_6vectorES7_bxydS5_NS9_14adl_serializerENSC_IhNS5_IhEEEEvEEEENS_19__map_value_compareIS7_SH_NS_4lessIvEELb1EEENS5_ISH_EEE4findIA9_cEENS_15__tree_iteratorISH_PNS_11__tree_nodeISH_PvEEiEERKT_)
                  7011a6e2    0000000e     --HOLE-- [fill = 0]
                  7011a6f0    00000042     Configurer.obj (.text._ZNSt3__16vectorIN8nlohmann16json_abi_v3_11_210basic_jsonINS_3mapES0_NS_12basic_stringIcNS_11char_traitsIcEENS_9allocatorIcEEEEbxydS8_NS2_14adl_serializerENS0_IhNS8_IhEEEEvEENS8_ISE_EEED2Ev)
                  7011a732    0000000e     --HOLE-- [fill = 0]
                  7011a740    00000040     drivers.am64x.r5f.ti-arm-clang.release.lib : ipc_rpmsg.obj (.text.RPMessage_destruct)
                  7011a780    00000040     ProducerMetadata.obj (.text._ZN8nlohmann16json_abi_v3_11_210basic_jsonINSt3__13mapENS2_6vectorENS2_12basic_stringIcNS2_11char_traitsIcEENS2_9allocatorIcEEEEbxydS8_NS0_14adl_serializerENS4_IhNS8_IhEEEEvEC2IRKiiLi0EEEOT_)
                  7011a7c0    00000040     Configurer.obj (.text._ZN8nlohmann16json_abi_v3_11_210basic_jsonINSt3__13mapENS2_6vectorENS2_12basic_stringIcNS2_11char_traitsIcEENS2_9allocatorIcEEEEbxydS8_NS0_14adl_serializerENS4_IhNS8_IhEEEEvEC2IiiLi0EEEOT_)
                  7011a800    00000040     TopicHandler.obj (.text._ZNSt3__114__split_bufferI9RealTopicRNS_9allocatorIS1_EEEC2EjjS4_)
                  7011a840    00000040     ClusterMetadata.obj (.text._ZNSt3__146__construct_backward_with_exception_guaranteesINS_9allocatorI14BrokerMetadataEEPS2_EEvRT_T0_S7_RS7_)
                  7011a880    00000040     RealTopic.obj (.text._ZNSt3__16__treeINS_12__value_typeI16ConsumerMetadataiEENS_19__map_value_compareIS2_S3_NS_4lessIS2_EELb1EEENS_9allocatorIS3_EEE4findIS2_EENS_15__tree_iteratorIS3_PNS_11__tree_nodeIS3_PvEEiEERKT_)
                  7011a8c0    00000040     Configurer.obj (.text._ZNSt3__16__treeINS_12__value_typeINS_12basic_stringIcNS_11char_traitsIcEENS_9allocatorIcEEEEN8nlohmann16json_abi_v3_11_210basic_jsonINS_3mapENS_6vectorES7_bxydS5_NS9_14adl_serializerENSC_IhNS5_IhEEEEvEEEENS_19__map_value_compareIS7_SH_NS_4lessIvEELb1EEENS5_ISH_EEE25__emplace_unique_key_argsIS7_JS7_DnEEENS_4pairINS_15__tree_iteratorISH_PNS_11__tree_nodeISH_PvEEiEEbEERKT_DpOT0_)
                  7011a900    00000040     Record.obj (.text._ZNSt3__16__treeINS_12__value_typeINS_12basic_stringIcNS_11char_traitsIcEENS_9allocatorIcEEEEN8nlohmann16json_abi_v3_11_210basic_jsonINS_3mapENS_6vectorES7_bxydS5_NS9_14adl_serializerENSC_IhNS5_IhEEEEvEEEENS_19__map_value_compareIS7_SH_NS_4lessIvEELb1EEENS5_ISH_EEE25__emplace_unique_key_argsIS7_JS7_SG_EEENS_4pairINS_15__tree_iteratorISH_PNS_11__tree_nodeISH_PvEEiEEbEERKT_DpOT0_)
                  7011a940    00000040     Configurer.obj (.text._ZNSt3__16vectorIN8nlohmann16json_abi_v3_11_210basic_jsonINS_3mapES0_NS_12basic_stringIcNS_11char_traitsIcEENS_9allocatorIcEEEEbxydS8_NS2_14adl_serializerENS0_IhNS8_IhEEEEvEENS8_ISE_EEE7reserveEj)
                  7011a980    00000040     libc.a : memory.c.obj (.text.free_list_insert)
                  7011a9c0    00000040            : memcmp.c.obj (.text.memcmp)
                  7011aa00    00000040     freertos.am64x.r5f.ti-arm-clang.release.lib : timers.obj (.text.prvInsertTimerInActiveList)
                  7011aa40    0000003e     drivers.am64x.r5f.ti-arm-clang.release.lib : ipc_notify_v0.obj (.text.IpcNotify_registerClient)
                  7011aa7e    00000002     --HOLE-- [fill = 0]
                  7011aa80    0000003e                                                : soc.obj (.text.SOC_controlModuleUnlockMMR)
                  7011aabe    00000002     --HOLE-- [fill = 0]
                  7011aac0    0000003e     Configurer.obj (.text._ZN8nlohmann16json_abi_v3_11_210basic_jsonINSt3__13mapENS2_6vectorENS2_12basic_stringIcNS2_11char_traitsIcEENS2_9allocatorIcEEEEbxydS8_NS0_14adl_serializerENS4_IhNS8_IhEEEEvE6createINS0_27byte_container_with_subtypeISD_EEJRKSH_EEEPT_DpOT0_)
                  7011aafe    00000002     --HOLE-- [fill = 0]
                  7011ab00    0000003e     Configurer.obj (.text._ZN8nlohmann16json_abi_v3_11_210basic_jsonINSt3__13mapENS2_6vectorENS2_12basic_stringIcNS2_11char_traitsIcEENS2_9allocatorIcEEEEbxydS8_NS0_14adl_serializerENS4_IhNS8_IhEEEEvEC2IRxxLi0EEEOT_)
                  7011ab3e    00000002     --HOLE-- [fill = 0]
                  7011ab40    0000003e     Configurer.obj (.text._ZN8nlohmann16json_abi_v3_11_210basic_jsonINSt3__13mapENS2_6vectorENS2_12basic_stringIcNS2_11char_traitsIcEENS2_9allocatorIcEEEEbxydS8_NS0_14adl_serializerENS4_IhNS8_IhEEEEvEC2IRyyLi0EEEOT_)
                  7011ab7e    00000002     --HOLE-- [fill = 0]
                  7011ab80    0000003e     Configurer.obj (.text._ZNSt3__16vectorI13TopicMetadataNS_9allocatorIS1_EEEC2INS_11__wrap_iterIPS1_EEEET_NS_9enable_ifIXaasr27__is_cpp17_forward_iteratorIS9_EE5valuesr16is_constructibleIS1_NS_15iterator_traitsIS9_E9referenceEEE5valueES9_E4typeE)
                  7011abbe    00000002     --HOLE-- [fill = 0]
                  7011abc0    0000003e     Record.obj (.text._ZNSt3__16vectorIN8nlohmann16json_abi_v3_11_210basic_jsonINS_3mapES0_NS_12basic_stringIcNS_11char_traitsIcEENS_9allocatorIcEEEEbxydS8_NS2_14adl_serializerENS0_IhNS8_IhEEEEvEENS8_ISE_EEEC2IPKNS2_6detail8json_refISE_EEEET_NS_9enable_ifIXaasr27__is_cpp17_forward_iteratorISN_EE5valuesr16is_constructibleISE_NS_15iterator_traitsISN_E9referenceEEE5valueESN_E4typeE)
                  7011abfe    00000002     --HOLE-- [fill = 0]
                  7011ac00    0000003c     TopicMetadata.obj (.text._ZN13TopicMetadata9from_jsonERKN8nlohmann16json_abi_v3_11_210basic_jsonINSt3__13mapENS3_6vectorENS3_12basic_stringIcNS3_11char_traitsIcEENS3_9allocatorIcEEEEbxydS9_NS1_14adl_serializerENS5_IhNS9_IhEEEEvEE)
                  7011ac3c    00000004     --HOLE-- [fill = 0]
                  7011ac40    0000003c     Record.obj (.text._ZN6Record9from_jsonERKN8nlohmann16json_abi_v3_11_210basic_jsonINSt3__13mapENS3_6vectorENS3_12basic_stringIcNS3_11char_traitsIcEENS3_9allocatorIcEEEEbxydS9_NS1_14adl_serializerENS5_IhNS9_IhEEEEvEE)
                  7011ac7c    00000004     --HOLE-- [fill = 0]
                  7011ac80    0000003c     UDPEndpoint.obj (.text._ZN8nlohmann16json_abi_v3_11_210basic_jsonINSt3__13mapENS2_6vectorENS2_12basic_stringIcNS2_11char_traitsIcEENS2_9allocatorIcEEEEbxydS8_NS0_14adl_serializerENS4_IhNS8_IhEEEEvEC2IRKjjLi0EEEOT_)
                  7011acbc    00000004     --HOLE-- [fill = 0]
                  7011acc0    0000003c     RPMessageEndpoint.obj (.text._ZN8nlohmann16json_abi_v3_11_210basic_jsonINSt3__13mapENS2_6vectorENS2_12basic_stringIcNS2_11char_traitsIcEENS2_9allocatorIcEEEEbxydS8_NS0_14adl_serializerENS4_IhNS8_IhEEEEvEC2IRKttLi0EEEOT_)
                  7011acfc    00000004     --HOLE-- [fill = 0]
                  7011ad00    0000003c     Configurer.obj (.text._ZN8nlohmann16json_abi_v3_11_210basic_jsonINSt3__13mapENS2_6vectorENS2_12basic_stringIcNS2_11char_traitsIcEENS2_9allocatorIcEEEEbxydS8_NS0_14adl_serializerENS4_IhNS8_IhEEEEvEC2IRbbLi0EEEOT_)
                  7011ad3c    00000004     --HOLE-- [fill = 0]
                  7011ad40    0000003c     Configurer.obj (.text._ZNK8nlohmann16json_abi_v3_11_210basic_jsonINSt3__13mapENS2_6vectorENS2_12basic_stringIcNS2_11char_traitsIcEENS2_9allocatorIcEEEEbxydS8_NS0_14adl_serializerENS4_IhNS8_IhEEEEvEixERKSA_)
                  7011ad7c    00000004     --HOLE-- [fill = 0]
                  7011ad80    0000003c     BrokerMetadata.obj (.text._ZNSt3__125__construct_range_forwardINS_9allocatorIN8nlohmann16json_abi_v3_11_210basic_jsonINS_3mapENS_6vectorENS_12basic_stringIcNS_11char_traitsIcEENS1_IcEEEEbxydS1_NS3_14adl_serializerENS6_IhNS1_IhEEEEvEEEENS_11__wrap_iterIPK13TopicMetadataEEPSF_EEvRT_T0_SP_RT1_)
                  7011adbc    00000004     --HOLE-- [fill = 0]
                  7011adc0    0000003c     ClusterMetadata.obj (.text._ZNSt3__125__construct_range_forwardINS_9allocatorIN8nlohmann16json_abi_v3_11_210basic_jsonINS_3mapENS_6vectorENS_12basic_stringIcNS_11char_traitsIcEENS1_IcEEEEbxydS1_NS3_14adl_serializerENS6_IhNS1_IhEEEEvEEEENS_11__wrap_iterIPK14BrokerMetadataEEPSF_EEvRT_T0_SP_RT1_)
                  7011adfc    00000004     --HOLE-- [fill = 0]
                  7011ae00    0000003c     freertos.am64x.r5f.ti-arm-clang.release.lib : TaskP_freertos.obj (.text.vApplicationLoadHook)
                  7011ae3c    00000004     --HOLE-- [fill = 0]
                  7011ae40    0000003c                                                 : tasks.obj (.text.xTaskGetIdleTaskHandle)
                  7011ae7c    00000004     --HOLE-- [fill = 0]
                  7011ae80    0000003a                                                 : DebugP_uartLogWriter.obj (.text.DebugP_uartLogWriterPutChar)
                  7011aeba    00000006     --HOLE-- [fill = 0]
                  7011aec0    0000003a     drivers.am64x.r5f.ti-arm-clang.release.lib : uart_dma.obj (.text.UART_dmaOpen)
                  7011aefa    00000006     --HOLE-- [fill = 0]
                  7011af00    0000003a     Consumer.obj (.text._ZN8Consumer4readE13TopicMetadata)
                  7011af3a    00000006     --HOLE-- [fill = 0]
                  7011af40    0000003a     Configurer.obj (.text._ZNSt3__16vectorIN8nlohmann16json_abi_v3_11_210basic_jsonINS_3mapES0_NS_12basic_stringIcNS_11char_traitsIcEENS_9allocatorIcEEEEbxydS8_NS2_14adl_serializerENS0_IhNS8_IhEEEEvEENS8_ISE_EEEC2ERKSG_)
                  7011af7a    00000006     --HOLE-- [fill = 0]
                  7011af80    0000003a     freertos.am64x.r5f.ti-arm-clang.release.lib : list.obj (.text.vListInsert)
                  7011afba    00000006     --HOLE-- [fill = 0]
                  7011afc0    00000038     drivers.am64x.r5f.ti-arm-clang.release.lib : ipc_rpmsg_vring.obj (.text.RPMessage_vringCheckEmptyTxBuf)
                  7011aff8    00000008     --HOLE-- [fill = 0]
                  7011b000    00000038                                                : sciclient.obj (.text.Sciclient_getCurrentContext)
                  7011b038    00000008     --HOLE-- [fill = 0]
                  7011b040    00000038     TopicFactory.obj (.text._ZN12TopicFactory8getTopicE13TopicMetadata)
                  7011b078    00000008     --HOLE-- [fill = 0]
                  7011b080    00000038     Record.obj (.text._ZNK8nlohmann16json_abi_v3_11_26detail8json_refINS0_10basic_jsonINSt3__13mapENS4_6vectorENS4_12basic_stringIcNS4_11char_traitsIcEENS4_9allocatorIcEEEEbxydSA_NS0_14adl_serializerENS6_IhNSA_IhEEEEvEEE15moved_or_copiedEv)
                  7011b0b8    00000008     --HOLE-- [fill = 0]
                  7011b0c0    00000038     TopicHandler.obj (.text._ZNSt3__16vectorI9RealTopicNS_9allocatorIS1_EEED2Ev)
                  7011b0f8    00000008     --HOLE-- [fill = 0]
                  7011b100    00000038     Configurer.obj (.text._ZNSt3__16vectorIhNS_9allocatorIhEEEC2ERKS3_)
                  7011b138    00000008     --HOLE-- [fill = 0]
                  7011b140    00000036     freertos.am64x.r5f.ti-arm-clang.release.lib : ClockP_freertos.obj (.text.ClockP_usleep)
                  7011b176    0000000a     --HOLE-- [fill = 0]
                  7011b180    00000036     ti_power_clock_config.obj (.text.Module_clockSetFrequency)
                  7011b1b6    0000000a     --HOLE-- [fill = 0]
                  7011b1c0    00000036     Configurer.obj (.text._ZN8nlohmann16json_abi_v3_11_210basic_jsonINSt3__13mapENS2_6vectorENS2_12basic_stringIcNS2_11char_traitsIcEENS2_9allocatorIcEEEEbxydS8_NS0_14adl_serializerENS4_IhNS8_IhEEEEvE6createINS0_27byte_container_with_subtypeISD_EEJEEEPT_DpOT0_)
                  7011b1f6    0000000a     --HOLE-- [fill = 0]
                  7011b200    00000036     ClusterMetadata.obj (.text._ZNSt3__114__split_bufferI14BrokerMetadataRNS_9allocatorIS1_EEEC2EjjS4_)
                  7011b236    0000000a     --HOLE-- [fill = 0]
                  7011b240    00000036     Configurer.obj (.text._ZNSt3__114__split_bufferIN8nlohmann16json_abi_v3_11_210basic_jsonINS_3mapENS_6vectorENS_12basic_stringIcNS_11char_traitsIcEENS_9allocatorIcEEEEbxydS9_NS2_14adl_serializerENS5_IhNS9_IhEEEEvEERNS9_ISF_EEEC2EjjSH_)
                  7011b276    0000000a     --HOLE-- [fill = 0]
                  7011b280    00000036     Configurer.obj (.text._ZNSt3__16vectorIN8nlohmann16json_abi_v3_11_210basic_jsonINS_3mapES0_NS_12basic_stringIcNS_11char_traitsIcEENS_9allocatorIcEEEEbxydS8_NS2_14adl_serializerENS0_IhNS8_IhEEEEvEENS8_ISE_EEE22__base_destruct_at_endEPSE_)
                  7011b2b6    0000000a     --HOLE-- [fill = 0]
                  7011b2c0    00000036     Configurer.obj (.text._ZNSt3__16vectorIN8nlohmann16json_abi_v3_11_210basic_jsonINS_3mapES0_NS_12basic_stringIcNS_11char_traitsIcEENS_9allocatorIcEEEEbxydS8_NS2_14adl_serializerENS0_IhNS8_IhEEEEvEENS8_ISE_EEE5clearEv)
                  7011b2f6    0000000a     --HOLE-- [fill = 0]
                  7011b300    00000034     Configurer.obj (.text._ZN8nlohmann16json_abi_v3_11_210basic_jsonINSt3__13mapENS2_6vectorENS2_12basic_stringIcNS2_11char_traitsIcEENS2_9allocatorIcEEEEbxydS8_NS0_14adl_serializerENS4_IhNS8_IhEEEEvE6createINS3_ISA_SE_NS2_4lessIvEENS8_INS2_4pairIKSA_SE_EEEEEEJEEEPT_DpOT0_)
                  7011b334    0000000c     --HOLE-- [fill = 0]
                  7011b340    00000034     BrokerMetadata.obj (.text._ZN8nlohmann16json_abi_v3_11_210basic_jsonINSt3__13mapENS2_6vectorENS2_12basic_stringIcNS2_11char_traitsIcEENS2_9allocatorIcEEEEbxydS8_NS0_14adl_serializerENS4_IhNS8_IhEEEEvE6createINS4_ISE_NS8_ISE_EEEEJNS2_11__wrap_iterIPK13TopicMetadataEESM_EEEPT_DpOT0_)
                  7011b374    0000000c     --HOLE-- [fill = 0]
                  7011b380    00000034     ClusterMetadata.obj (.text._ZN8nlohmann16json_abi_v3_11_210basic_jsonINSt3__13mapENS2_6vectorENS2_12basic_stringIcNS2_11char_traitsIcEENS2_9allocatorIcEEEEbxydS8_NS0_14adl_serializerENS4_IhNS8_IhEEEEvE6createINS4_ISE_NS8_ISE_EEEEJNS2_11__wrap_iterIPK14BrokerMetadataEESM_EEEPT_DpOT0_)
                  7011b3b4    0000000c     --HOLE-- [fill = 0]
                  7011b3c0    00000034     Record.obj (.text._ZN8nlohmann16json_abi_v3_11_210basic_jsonINSt3__13mapENS2_6vectorENS2_12basic_stringIcNS2_11char_traitsIcEENS2_9allocatorIcEEEEbxydS8_NS0_14adl_serializerENS4_IhNS8_IhEEEEvE6createINS4_ISE_NS8_ISE_EEEEJPKNS0_6detail8json_refISE_EESM_EEEPT_DpOT0_)
                  7011b3f4    0000000c     --HOLE-- [fill = 0]
                  7011b400    00000034     BrokerMetadata.obj (.text._ZN8nlohmann16json_abi_v3_11_26detail20external_constructorILNS1_7value_tE2EE9constructINS0_10basic_jsonINSt3__13mapENS7_6vectorENS7_12basic_stringIcNS7_11char_traitsIcEENS7_9allocatorIcEEEEbxydSD_NS0_14adl_serializerENS9_IhNSD_IhEEEEvEENS9_I13TopicMetadataNSD_ISK_EEEELi0EEEvRT_RKT0_)
                  7011b434    0000000c     --HOLE-- [fill = 0]
                  7011b440    00000034     ClusterMetadata.obj (.text._ZN8nlohmann16json_abi_v3_11_26detail20external_constructorILNS1_7value_tE2EE9constructINS0_10basic_jsonINSt3__13mapENS7_6vectorENS7_12basic_stringIcNS7_11char_traitsIcEENS7_9allocatorIcEEEEbxydSD_NS0_14adl_serializerENS9_IhNSD_IhEEEEvEENS9_I14BrokerMetadataNSD_ISK_EEEELi0EEEvRT_RKT0_)
                  7011b474    0000000c     --HOLE-- [fill = 0]
                  7011b480    00000034     Configurer.obj (.text._ZN8nlohmann16json_abi_v3_11_26detail5lexerINS0_10basic_jsonINSt3__13mapENS4_6vectorENS4_12basic_stringIcNS4_11char_traitsIcEENS4_9allocatorIcEEEEbxydSA_NS0_14adl_serializerENS6_IhNSA_IhEEEEvEENS1_22iterator_input_adapterIPKcEEE8skip_bomEv)
                  7011b4b4    0000000c     --HOLE-- [fill = 0]
                  7011b4c0    00000034     Configurer.obj (.text._ZN8nlohmann16json_abi_v3_11_26detail5lexerINS0_10basic_jsonINSt3__13mapENS4_6vectorENS4_12basic_stringIcNS4_11char_traitsIcEENS4_9allocatorIcEEEEbxydSA_NS0_14adl_serializerENS6_IhNSA_IhEEEEvEENS1_22iterator_input_adapterIPcEEE8skip_bomEv)
                  7011b4f4    0000000c     --HOLE-- [fill = 0]
                  7011b500    00000034     TopicFactory.obj (.text._ZNSt3__16vectorI14BrokerMetadataNS_9allocatorIS1_EEE13__vdeallocateEv)
                  7011b534    00000034     libc.a : memory.c.obj (.text.free_list_remove)
                  7011b568    00000034     libsysbm.a : lseek.c.obj (.text.lseek)
                  7011b59c    00000034                : write.c.obj (.text.write)
                  7011b5d0    00000034     freertos.am64x.r5f.ti-arm-clang.release.lib : tasks.obj (.text.xTaskGetTickCount)
                  7011b604    0000000c     --HOLE-- [fill = 0]
                  7011b610    00000032     ProducerMetadata.obj (.text._ZN16ProducerMetadata9from_jsonERKN8nlohmann16json_abi_v3_11_210basic_jsonINSt3__13mapENS3_6vectorENS3_12basic_stringIcNS3_11char_traitsIcEENS3_9allocatorIcEEEEbxydS9_NS1_14adl_serializerENS5_IhNS9_IhEEEEvEE)
                  7011b642    0000000e     --HOLE-- [fill = 0]
                  7011b650    00000032     Configurer.obj (.text._ZN8nlohmann16json_abi_v3_11_210basic_jsonINSt3__13mapENS2_6vectorENS2_12basic_stringIcNS2_11char_traitsIcEENS2_9allocatorIcEEEEbxydS8_NS0_14adl_serializerENS4_IhNS8_IhEEEEvEaSESE_)
                  7011b682    0000000e     --HOLE-- [fill = 0]
                  7011b690    00000032     freertos.am64x.r5f.ti-arm-clang.release.lib : queue.obj (.text.xQueueCreateMutexStatic)
                  7011b6c2    0000000e     --HOLE-- [fill = 0]
                  7011b6d0    00000030                                                 : DebugP_shmLogReader.obj (.text.DebugP_shmLogReaderInit)
                  7011b700    00000030     Configurer.obj (.text._ZN8nlohmann16json_abi_v3_11_210basic_jsonINSt3__13mapENS2_6vectorENS2_12basic_stringIcNS2_11char_traitsIcEENS2_9allocatorIcEEEEbxydS8_NS0_14adl_serializerENS4_IhNS8_IhEEEEvE6createINS4_ISE_NS8_ISE_EEEEJEEEPT_DpOT0_)
                  7011b730    00000030     Configurer.obj (.text._ZN8nlohmann16json_abi_v3_11_210basic_jsonINSt3__13mapENS2_6vectorENS2_12basic_stringIcNS2_11char_traitsIcEENS2_9allocatorIcEEEEbxydS8_NS0_14adl_serializerENS4_IhNS8_IhEEEEvE6createINS4_ISE_NS8_ISE_EEEEJRKSH_EEEPT_DpOT0_)
                  7011b760    00000030     Configurer.obj (.text._ZN8nlohmann16json_abi_v3_11_210basic_jsonINSt3__13mapENS2_6vectorENS2_12basic_stringIcNS2_11char_traitsIcEENS2_9allocatorIcEEEEbxydS8_NS0_14adl_serializerENS4_IhNS8_IhEEEEvE6createISA_JRA10_KcEEEPT_DpOT0_)
                  7011b790    00000030     Broker.obj (.text._ZN8nlohmann16json_abi_v3_11_210basic_jsonINSt3__13mapENS2_6vectorENS2_12basic_stringIcNS2_11char_traitsIcEENS2_9allocatorIcEEEEbxydS8_NS0_14adl_serializerENS4_IhNS8_IhEEEEvE6createISA_JRA11_KcEEEPT_DpOT0_)
                  7011b7c0    00000030     TopicProxy.obj (.text._ZN8nlohmann16json_abi_v3_11_210basic_jsonINSt3__13mapENS2_6vectorENS2_12basic_stringIcNS2_11char_traitsIcEENS2_9allocatorIcEEEEbxydS8_NS0_14adl_serializerENS4_IhNS8_IhEEEEvE6createISA_JRA12_KcEEEPT_DpOT0_)
                  7011b7f0    00000030     UDPEndpoint.obj (.text._ZN8nlohmann16json_abi_v3_11_210basic_jsonINSt3__13mapENS2_6vectorENS2_12basic_stringIcNS2_11char_traitsIcEENS2_9allocatorIcEEEEbxydS8_NS0_14adl_serializerENS4_IhNS8_IhEEEEvE6createISA_JRA16_KcEEEPT_DpOT0_)
                  7011b820    00000030     Configurer.obj (.text._ZN8nlohmann16json_abi_v3_11_210basic_jsonINSt3__13mapENS2_6vectorENS2_12basic_stringIcNS2_11char_traitsIcEENS2_9allocatorIcEEEEbxydS8_NS0_14adl_serializerENS4_IhNS8_IhEEEEvE6createISA_JRA1_KcEEEPT_DpOT0_)
                  7011b850    00000030     SystemManager.obj (.text._ZN8nlohmann16json_abi_v3_11_210basic_jsonINSt3__13mapENS2_6vectorENS2_12basic_stringIcNS2_11char_traitsIcEENS2_9allocatorIcEEEEbxydS8_NS0_14adl_serializerENS4_IhNS8_IhEEEEvE6createISA_JRA22_KcEEEPT_DpOT0_)
                  7011b880    00000030     UDPEndpoint.obj (.text._ZN8nlohmann16json_abi_v3_11_210basic_jsonINSt3__13mapENS2_6vectorENS2_12basic_stringIcNS2_11char_traitsIcEENS2_9allocatorIcEEEEbxydS8_NS0_14adl_serializerENS4_IhNS8_IhEEEEvE6createISA_JRA3_KcEEEPT_DpOT0_)
                  7011b8b0    00000030     Record.obj (.text._ZN8nlohmann16json_abi_v3_11_210basic_jsonINSt3__13mapENS2_6vectorENS2_12basic_stringIcNS2_11char_traitsIcEENS2_9allocatorIcEEEEbxydS8_NS0_14adl_serializerENS4_IhNS8_IhEEEEvE6createISA_JRA5_KcEEEPT_DpOT0_)
                  7011b8e0    00000030     BrokerMetadata.obj (.text._ZN8nlohmann16json_abi_v3_11_210basic_jsonINSt3__13mapENS2_6vectorENS2_12basic_stringIcNS2_11char_traitsIcEENS2_9allocatorIcEEEEbxydS8_NS0_14adl_serializerENS4_IhNS8_IhEEEEvE6createISA_JRA7_KcEEEPT_DpOT0_)
                  7011b910    00000030     TopicProxy.obj (.text._ZN8nlohmann16json_abi_v3_11_210basic_jsonINSt3__13mapENS2_6vectorENS2_12basic_stringIcNS2_11char_traitsIcEENS2_9allocatorIcEEEEbxydS8_NS0_14adl_serializerENS4_IhNS8_IhEEEEvE6createISA_JRA8_KcEEEPT_DpOT0_)
                  7011b940    00000030     SystemManager.obj (.text._ZN8nlohmann16json_abi_v3_11_210basic_jsonINSt3__13mapENS2_6vectorENS2_12basic_stringIcNS2_11char_traitsIcEENS2_9allocatorIcEEEEbxydS8_NS0_14adl_serializerENS4_IhNS8_IhEEEEvE6createISA_JRA9_KcEEEPT_DpOT0_)
                  7011b970    00000030     Configurer.obj (.text._ZN8nlohmann16json_abi_v3_11_210basic_jsonINSt3__13mapENS2_6vectorENS2_12basic_stringIcNS2_11char_traitsIcEENS2_9allocatorIcEEEEbxydS8_NS0_14adl_serializerENS4_IhNS8_IhEEEEvE6createISA_JRKSA_EEEPT_DpOT0_)
                  7011b9a0    00000030     libc.a : snprintf.c.obj (.text._outc)
                  7011b9d0    00000030            : vsnprintf.c.obj (.text._outc)
                  7011ba00    00000030     freertos.am64x.r5f.ti-arm-clang.release.lib : PmuP_armv7r_asm.obj (.text.pmu)
                  7011ba30    00000030                                                 : port.obj (.text.vApplicationStackOverflowHook)
                  7011ba60    0000002e                                                 : ClockP_freertos.obj (.text.ClockP_timerTickIsr)
                  7011ba8e    00000002     --HOLE-- [fill = 0]
                  7011ba90    0000002e     ti_power_clock_config.obj (.text.Module_clockEnable)
                  7011babe    00000002     --HOLE-- [fill = 0]
                  7011bac0    0000002e     drivers.am64x.r5f.ti-arm-clang.release.lib : uart_v0.obj (.text.UART_getHandle)
                  7011baee    00000002     --HOLE-- [fill = 0]
                  7011baf0    0000002e     Configurer.obj (.text._ZN8nlohmann16json_abi_v3_11_26detail5lexerINS0_10basic_jsonINSt3__13mapENS4_6vectorENS4_12basic_stringIcNS4_11char_traitsIcEENS4_9allocatorIcEEEEbxydSA_NS0_14adl_serializerENS6_IhNSA_IhEEEEvEENS1_22iterator_input_adapterIPKcEEE17get_decimal_pointEv)
                  7011bb1e    00000002     --HOLE-- [fill = 0]
                  7011bb20    0000002e     Configurer.obj (.text._ZN8nlohmann16json_abi_v3_11_26detail5lexerINS0_10basic_jsonINSt3__13mapENS4_6vectorENS4_12basic_stringIcNS4_11char_traitsIcEENS4_9allocatorIcEEEEbxydSA_NS0_14adl_serializerENS6_IhNSA_IhEEEEvEENS1_22iterator_input_adapterIPcEEE17get_decimal_pointEv)
                  7011bb4e    00000002     --HOLE-- [fill = 0]
                  7011bb50    0000002e     RealTopic.obj (.text._ZN9RealTopicD2Ev)
                  7011bb7e    00000002     --HOLE-- [fill = 0]
                  7011bb80    0000002e     Configurer.obj (.text._ZNSt3__114__split_bufferIN8nlohmann16json_abi_v3_11_210basic_jsonINS_3mapENS_6vectorENS_12basic_stringIcNS_11char_traitsIcEENS_9allocatorIcEEEEbxydS9_NS2_14adl_serializerENS5_IhNS9_IhEEEEvEERNS9_ISF_EEE17__destruct_at_endEPSF_)
                  7011bbae    00000002     --HOLE-- [fill = 0]
                  7011bbb0    0000002e     ClusterMetadata.obj (.text._ZNSt3__16vectorI14BrokerMetadataNS_9allocatorIS1_EEE26__swap_out_circular_bufferERNS_14__split_bufferIS1_RS3_EE)
                  7011bbde    00000002     --HOLE-- [fill = 0]
                  7011bbe0    0000002e     Configurer.obj (.text._ZNSt3__16vectorI14BrokerMetadataNS_9allocatorIS1_EEED2Ev)
                  7011bc0e    00000002     --HOLE-- [fill = 0]
                  7011bc10    0000002e     Configurer.obj (.text._ZNSt3__16vectorIN8nlohmann16json_abi_v3_11_210basic_jsonINS_3mapES0_NS_12basic_stringIcNS_11char_traitsIcEENS_9allocatorIcEEEEbxydS8_NS2_14adl_serializerENS0_IhNS8_IhEEEEvEENS8_ISE_EEE26__swap_out_circular_bufferERNS_14__split_bufferISE_RSF_EE)
                  7011bc3e    00000002     --HOLE-- [fill = 0]
                  7011bc40    0000002e     freertos.am64x.r5f.ti-arm-clang.release.lib : tasks.obj (.text.vTaskExitCritical)
                  7011bc6e    00000002     --HOLE-- [fill = 0]
                  7011bc70    0000002c     drivers.am64x.r5f.ti-arm-clang.release.lib : ipc_rpmsg.obj (.text.RPMessage_controlEndPtHandler)
                  7011bc9c    00000004     --HOLE-- [fill = 0]
                  7011bca0    0000002c     UDPEndpoint.obj (.text._ZN11UDPEndpointC2Ev)
                  7011bccc    00000004     --HOLE-- [fill = 0]
                  7011bcd0    0000002c     TopicHandler.obj (.text._ZN12TopicHandlerC2E17CommunicationTypeRK6LoggerP13Communication)
                  7011bcfc    00000004     --HOLE-- [fill = 0]
                  7011bd00    0000002c     RPMessageCommunication.obj (.text._ZN22RPMessageCommunicationD0Ev)
                  7011bd2c    00000004     --HOLE-- [fill = 0]
                  7011bd30    0000002c     Configurer.obj (.text._ZN8nlohmann16json_abi_v3_11_210basic_jsonINSt3__13mapENS2_6vectorENS2_12basic_stringIcNS2_11char_traitsIcEENS2_9allocatorIcEEEEbxydS8_NS0_14adl_serializerENS4_IhNS8_IhEEEEvEixIKcEERSE_PT_)
                  7011bd5c    00000004     --HOLE-- [fill = 0]
                  7011bd60    0000002c     Configurer.obj (.text._ZNK8nlohmann16json_abi_v3_11_210basic_jsonINSt3__13mapENS2_6vectorENS2_12basic_stringIcNS2_11char_traitsIcEENS2_9allocatorIcEEEEbxydS8_NS0_14adl_serializerENS4_IhNS8_IhEEEEvEixIKcEERKSE_PT_)
                  7011bd8c    00000004     --HOLE-- [fill = 0]
                  7011bd90    0000002c     SystemManager.obj (.text._ZNK8nlohmann16json_abi_v3_11_26detail12from_json_fnclINS0_10basic_jsonINSt3__13mapENS5_6vectorENS5_12basic_stringIcNS5_11char_traitsIcEENS5_9allocatorIcEEEEbxydSB_NS0_14adl_serializerENS7_IhNSB_IhEEEEvEERiEEDTcl9from_jsonfp_clsr3stdE7forwardIT0_Efp0_EEERKT_OSJ_)
                  7011bdbc    00000004     --HOLE-- [fill = 0]
                  7011bdc0    0000002c     Configurer.obj (.text._ZNSt3__110__function12__value_funcIFbiN8nlohmann16json_abi_v3_11_26detail13parse_event_tERNS3_10basic_jsonINS_3mapENS_6vectorENS_12basic_stringIcNS_11char_traitsIcEENS_9allocatorIcEEEEbxydSC_NS3_14adl_serializerENS8_IhNSC_IhEEEEvEEEEC2ERKSL_)
                  7011bdec    00000004     --HOLE-- [fill = 0]
                  7011bdf0    0000002c     Configurer.obj (.text._ZNSt3__114__split_bufferI13TopicMetadataRNS_9allocatorIS1_EEE17__destruct_at_endEPS1_)
                  7011be1c    00000004     --HOLE-- [fill = 0]
                  7011be20    0000002c     RealTopic.obj (.text._ZNSt3__114__split_bufferI6RecordRNS_9allocatorIS1_EEE17__destruct_at_endEPS1_)
                  7011be4c    00000004     --HOLE-- [fill = 0]
                  7011be50    0000002c     libc++.a : memory.cpp.obj (.text._ZNSt3__119__shared_weak_count14__release_weakEv)
                  7011be7c    00000004     --HOLE-- [fill = 0]
                  7011be80    0000002c     TopicHandler.obj (.text._ZNSt3__16__treeINS_12__value_typeI16ConsumerMetadataiEENS_19__map_value_compareIS2_S3_NS_4lessIS2_EELb1EEENS_9allocatorIS3_EEE16__insert_node_atEPNS_15__tree_end_nodeIPNS_16__tree_node_baseIPvEEEERSF_SF_)
                  7011beac    00000004     --HOLE-- [fill = 0]
                  7011beb0    0000002c     Configurer.obj (.text._ZNSt3__16__treeINS_12__value_typeINS_12basic_stringIcNS_11char_traitsIcEENS_9allocatorIcEEEEN8nlohmann16json_abi_v3_11_210basic_jsonINS_3mapENS_6vectorES7_bxydS5_NS9_14adl_serializerENSC_IhNS5_IhEEEEvEEEENS_19__map_value_compareIS7_SH_NS_4lessIvEELb1EEENS5_ISH_EEE16__insert_node_atEPNS_15__tree_end_nodeIPNS_16__tree_node_baseIPvEEEERSS_SS_)
                  7011bedc    0000002c     libc.a : sprintf.c.obj (.text._outs)
                  7011bf08    0000002c     libclang_rt.builtins.a : divsi3.S.obj (.text)
                  7011bf34    0000000c     --HOLE-- [fill = 0]
                  7011bf40    0000002a     drivers.am64x.r5f.ti-arm-clang.release.lib : soc.obj (.text.SOC_controlModuleLockMMR)
                  7011bf6a    00000006     --HOLE-- [fill = 0]
                  7011bf70    0000002a     TopicFactory.obj (.text._ZN12TopicFactory26retrieveClusterInformationEv)
                  7011bf9a    00000006     --HOLE-- [fill = 0]
                  7011bfa0    0000002a     SystemManager.obj (.text._ZN13SystemManagerD2Ev)
                  7011bfca    00000006     --HOLE-- [fill = 0]
                  7011bfd0    0000002a     EndpointFactory.obj (.text._ZN15EndpointFactory14createEndpointE17CommunicationType)
                  7011bffa    00000006     --HOLE-- [fill = 0]
                  7011c000    0000002a     Configurer.obj (.text._ZN8nlohmann16json_abi_v3_11_26detail20external_constructorILNS1_7value_tE3EE9constructINS0_10basic_jsonINSt3__13mapENS7_6vectorENS7_12basic_stringIcNS7_11char_traitsIcEENS7_9allocatorIcEEEEbxydSD_NS0_14adl_serializerENS9_IhNSD_IhEEEEvEEA10_cLi0EEEvRT_RKT0_)
                  7011c02a    00000006     --HOLE-- [fill = 0]
                  7011c030    0000002a     Broker.obj (.text._ZN8nlohmann16json_abi_v3_11_26detail20external_constructorILNS1_7value_tE3EE9constructINS0_10basic_jsonINSt3__13mapENS7_6vectorENS7_12basic_stringIcNS7_11char_traitsIcEENS7_9allocatorIcEEEEbxydSD_NS0_14adl_serializerENS9_IhNSD_IhEEEEvEEA11_cLi0EEEvRT_RKT0_)
                  7011c05a    00000006     --HOLE-- [fill = 0]
                  7011c060    0000002a     TopicProxy.obj (.text._ZN8nlohmann16json_abi_v3_11_26detail20external_constructorILNS1_7value_tE3EE9constructINS0_10basic_jsonINSt3__13mapENS7_6vectorENS7_12basic_stringIcNS7_11char_traitsIcEENS7_9allocatorIcEEEEbxydSD_NS0_14adl_serializerENS9_IhNSD_IhEEEEvEEA12_cLi0EEEvRT_RKT0_)
                  7011c08a    00000006     --HOLE-- [fill = 0]
                  7011c090    0000002a     UDPEndpoint.obj (.text._ZN8nlohmann16json_abi_v3_11_26detail20external_constructorILNS1_7value_tE3EE9constructINS0_10basic_jsonINSt3__13mapENS7_6vectorENS7_12basic_stringIcNS7_11char_traitsIcEENS7_9allocatorIcEEEEbxydSD_NS0_14adl_serializerENS9_IhNSD_IhEEEEvEEA16_cLi0EEEvRT_RKT0_)
                  7011c0ba    00000006     --HOLE-- [fill = 0]
                  7011c0c0    0000002a     SystemManager.obj (.text._ZN8nlohmann16json_abi_v3_11_26detail20external_constructorILNS1_7value_tE3EE9constructINS0_10basic_jsonINSt3__13mapENS7_6vectorENS7_12basic_stringIcNS7_11char_traitsIcEENS7_9allocatorIcEEEEbxydSD_NS0_14adl_serializerENS9_IhNSD_IhEEEEvEEA22_cLi0EEEvRT_RKT0_)
                  7011c0ea    00000006     --HOLE-- [fill = 0]
                  7011c0f0    0000002a     UDPEndpoint.obj (.text._ZN8nlohmann16json_abi_v3_11_26detail20external_constructorILNS1_7value_tE3EE9constructINS0_10basic_jsonINSt3__13mapENS7_6vectorENS7_12basic_stringIcNS7_11char_traitsIcEENS7_9allocatorIcEEEEbxydSD_NS0_14adl_serializerENS9_IhNSD_IhEEEEvEEA3_cLi0EEEvRT_RKT0_)
                  7011c11a    00000006     --HOLE-- [fill = 0]
                  7011c120    0000002a     Record.obj (.text._ZN8nlohmann16json_abi_v3_11_26detail20external_constructorILNS1_7value_tE3EE9constructINS0_10basic_jsonINSt3__13mapENS7_6vectorENS7_12basic_stringIcNS7_11char_traitsIcEENS7_9allocatorIcEEEEbxydSD_NS0_14adl_serializerENS9_IhNSD_IhEEEEvEEA5_cLi0EEEvRT_RKT0_)
                  7011c14a    00000006     --HOLE-- [fill = 0]
                  7011c150    0000002a     BrokerMetadata.obj (.text._ZN8nlohmann16json_abi_v3_11_26detail20external_constructorILNS1_7value_tE3EE9constructINS0_10basic_jsonINSt3__13mapENS7_6vectorENS7_12basic_stringIcNS7_11char_traitsIcEENS7_9allocatorIcEEEEbxydSD_NS0_14adl_serializerENS9_IhNSD_IhEEEEvEEA7_cLi0EEEvRT_RKT0_)
                  7011c17a    00000006     --HOLE-- [fill = 0]
                  7011c180    0000002a     TopicProxy.obj (.text._ZN8nlohmann16json_abi_v3_11_26detail20external_constructorILNS1_7value_tE3EE9constructINS0_10basic_jsonINSt3__13mapENS7_6vectorENS7_12basic_stringIcNS7_11char_traitsIcEENS7_9allocatorIcEEEEbxydSD_NS0_14adl_serializerENS9_IhNSD_IhEEEEvEEA8_cLi0EEEvRT_RKT0_)
                  7011c1aa    00000006     --HOLE-- [fill = 0]
                  7011c1b0    0000002a     SystemManager.obj (.text._ZN8nlohmann16json_abi_v3_11_26detail20external_constructorILNS1_7value_tE3EE9constructINS0_10basic_jsonINSt3__13mapENS7_6vectorENS7_12basic_stringIcNS7_11char_traitsIcEENS7_9allocatorIcEEEEbxydSD_NS0_14adl_serializerENS9_IhNSD_IhEEEEvEEA9_cLi0EEEvRT_RKT0_)
                  7011c1da    00000006     --HOLE-- [fill = 0]
                  7011c1e0    0000002a     Configurer.obj (.text._ZN8nlohmann16json_abi_v3_11_26detail20external_constructorILNS1_7value_tE3EE9constructINS0_10basic_jsonINSt3__13mapENS7_6vectorENS7_12basic_stringIcNS7_11char_traitsIcEENS7_9allocatorIcEEEEbxydSD_NS0_14adl_serializerENS9_IhNSD_IhEEEEvEEEEvRT_RKNSK_8string_tE)
                  7011c20a    00000006     --HOLE-- [fill = 0]
                  7011c210    0000002a     Configurer.obj (.text._ZNSt3__116allocator_traitsINS_9allocatorINS_11__tree_nodeINS_12__value_typeINS_12basic_stringIcNS_11char_traitsIcEENS1_IcEEEEN8nlohmann16json_abi_v3_11_210basic_jsonINS_3mapENS_6vectorES8_bxydS1_NSA_14adl_serializerENSD_IhNS1_IhEEEEvEEEEPvEEEEE7destroyINS_4pairIKS8_SH_EEvvEEvRSL_PT_)
                  7011c23a    00000006     --HOLE-- [fill = 0]
                  7011c240    0000002a     embedded_kafka.obj (.text._ZNSt3__16vectorI13TopicMetadataNS_9allocatorIS1_EEE11__vallocateEj)
                  7011c26a    00000006     --HOLE-- [fill = 0]
                  7011c270    0000002a     TopicHandler.obj (.text._ZNSt3__16vectorI6RecordNS_9allocatorIS1_EEE11__vallocateEj)
                  7011c29a    00000006     --HOLE-- [fill = 0]
                  7011c2a0    00000028     drivers.am64x.r5f.ti-arm-clang.release.lib : ipc_rpmsg.obj (.text.RPMessage_Params_init)
                  7011c2c8    00000008     --HOLE-- [fill = 0]
                  7011c2d0    00000028     TopicProxy.obj (.text._ZN10TopicProxyD0Ev)
                  7011c2f8    00000008     --HOLE-- [fill = 0]
                  7011c300    00000028     Broker.obj (.text._ZN6BrokerD2Ev)
                  7011c328    00000008     --HOLE-- [fill = 0]
                  7011c330    00000028     Configurer.obj (.text._ZN8nlohmann16json_abi_v3_11_26detail11parse_errorD0Ev)
                  7011c358    00000008     --HOLE-- [fill = 0]
                  7011c360    00000028     Configurer.obj (.text._ZN8nlohmann16json_abi_v3_11_26detail12out_of_rangeD0Ev)
                  7011c388    00000008     --HOLE-- [fill = 0]
                  7011c390    00000028     Configurer.obj (.text._ZN8nlohmann16json_abi_v3_11_26detail9exceptionD0Ev)
                  7011c3b8    00000008     --HOLE-- [fill = 0]
                  7011c3c0    00000028     ClusterMetadata.obj (.text._ZNSt3__114__split_bufferI14BrokerMetadataRNS_9allocatorIS1_EEED2Ev)
                  7011c3e8    00000008     --HOLE-- [fill = 0]
                  7011c3f0    00000028     Configurer.obj (.text._ZNSt3__115__tree_iteratorINS_12__value_typeINS_12basic_stringIcNS_11char_traitsIcEENS_9allocatorIcEEEEN8nlohmann16json_abi_v3_11_210basic_jsonINS_3mapENS_6vectorES7_bxydS5_NS9_14adl_serializerENSC_IhNS5_IhEEEEvEEEEPNS_11__tree_nodeISH_PvEEiEppEv)
                  7011c418    00000008     --HOLE-- [fill = 0]
                  7011c420    00000028     embedded_kafka.obj (.text._ZNSt3__16vectorI13TopicMetadataNS_9allocatorIS1_EEE22__base_destruct_at_endEPS1_)
                  7011c448    00000008     --HOLE-- [fill = 0]
                  7011c450    00000028     RealTopic.obj (.text._ZNSt3__16vectorI6RecordNS_9allocatorIS1_EEE22__base_destruct_at_endEPS1_)
                  7011c478    00000028     libc.a : _printfi.c.obj (.text.strchr)
                  7011c4a0    00000026     drivers.am64x.r5f.ti-arm-clang.release.lib : ipc_rpmsg.obj (.text.RPMessage_isLinuxCore)
                  7011c4c6    0000000a     --HOLE-- [fill = 0]
                  7011c4d0    00000026     TopicProxy.obj (.text._ZN10TopicProxy4readE16ConsumerMetadata)
                  7011c4f6    0000000a     --HOLE-- [fill = 0]
                  7011c500    00000026     RPMessageCommunication.obj (.text._ZN22RPMessageCommunicationD2Ev)
                  7011c526    0000000a     --HOLE-- [fill = 0]
                  7011c530    00000026     TopicHandler.obj (.text._ZNSt3__114__split_bufferI9RealTopicRNS_9allocatorIS1_EEED2Ev)
                  7011c556    0000000a     --HOLE-- [fill = 0]
                  7011c560    00000026     Configurer.obj (.text._ZNSt3__14pairIKNS_12basic_stringIcNS_11char_traitsIcEENS_9allocatorIcEEEEN8nlohmann16json_abi_v3_11_210basic_jsonINS_3mapENS_6vectorES6_bxydS4_NS9_14adl_serializerENSC_IhNS4_IhEEEEvEEEC2IJRS7_EJEEENS_21piecewise_construct_tENS_5tupleIJDpT_EEENSL_IJDpT0_EEE)
                  7011c586    0000000a     --HOLE-- [fill = 0]
                  7011c590    00000026     RealTopic.obj (.text._ZNSt3__16__treeINS_12__value_typeI16ConsumerMetadataiEENS_19__map_value_compareIS2_S3_NS_4lessIS2_EELb1EEENS_9allocatorIS3_EEE14__erase_uniqueIS2_EEjRKT_)
                  7011c5b6    0000000a     --HOLE-- [fill = 0]
                  7011c5c0    00000026     freertos.am64x.r5f.ti-arm-clang.release.lib : port.obj (.text.vPortTimerTickHandler)
                  7011c5e6    0000000a     --HOLE-- [fill = 0]
                  7011c5f0    00000026                                                 : queue.obj (.text.vQueueAddToRegistry)
                  7011c616    0000000a     --HOLE-- [fill = 0]
                  7011c620    00000024     TopicProxy.obj (.text._ZN10TopicProxyD2Ev)
                  7011c644    0000000c     --HOLE-- [fill = 0]
                  7011c650    00000024     Configurer.obj (.text._ZN8nlohmann16json_abi_v3_11_26detail9exceptionD2Ev)
                  7011c674    0000000c     --HOLE-- [fill = 0]
                  7011c680    00000024     RealTopic.obj (.text._ZN9RealTopic7publishE16ProducerMetadata6Record)
                  7011c6a4    0000000c     --HOLE-- [fill = 0]
                  7011c6b0    00000024     Configurer.obj (.text._ZNKSt3__18functionIFbiN8nlohmann16json_abi_v3_11_26detail13parse_event_tERNS2_10basic_jsonINS_3mapENS_6vectorENS_12basic_stringIcNS_11char_traitsIcEENS_9allocatorIcEEEEbxydSB_NS2_14adl_serializerENS7_IhNSB_IhEEEEvEEEEclEiS4_SI_)
                  7011c6d4    0000000c     --HOLE-- [fill = 0]
                  7011c6e0    00000024     Configurer.obj (.text._ZNSt3__16vectorIbNS_9allocatorIbEEE11__vallocateEj)
                  7011c704    0000000c     --HOLE-- [fill = 0]
                  7011c710    00000024     freertos.am64x.r5f.ti-arm-clang.release.lib : list.obj (.text.uxListRemove)
                  7011c734    0000000c     --HOLE-- [fill = 0]
                  7011c740    00000024                                                 : printf.obj (.text.vprintf_)
                  7011c764    0000000c     --HOLE-- [fill = 0]
                  7011c770    00000024                                                 : tasks.obj (.text.xTaskGetSchedulerState)
                  7011c794    00000024     libclang_rt.builtins.a : aeabi_uldivmod.S.obj (.text)
                  7011c7b8    00000008     --HOLE-- [fill = 0]
                  7011c7c0    00000022     ti_pinmux_config.obj (.text.Pinmux_init)
                  7011c7e2    0000000e     --HOLE-- [fill = 0]
                  7011c7f0    00000022     Topic.obj (.text._ZN5TopicD2Ev)
                  7011c812    0000000e     --HOLE-- [fill = 0]
                  7011c820    00000022     UDPEndpoint.obj (.text._ZNK11UDPEndpoint24printEndpointInformationERK6Logger)
                  7011c842    0000000e     --HOLE-- [fill = 0]
                  7011c850    00000022     RPMessageEndpoint.obj (.text._ZNK17RPMessageEndpoint24printEndpointInformationERK6Logger)
                  7011c872    0000000e     --HOLE-- [fill = 0]
                  7011c880    00000022     RealTopic.obj (.text._ZNK9RealTopic12getConsumersEv)
                  7011c8a2    0000000e     --HOLE-- [fill = 0]
                  7011c8b0    00000022     Configurer.obj (.text._ZNSt3__110shared_ptrIN8nlohmann16json_abi_v3_11_26detail21output_string_adapterIcNS_12basic_stringIcNS_11char_traitsIcEENS_9allocatorIcEEEEEEED2Ev)
                  7011c8d2    0000000e     --HOLE-- [fill = 0]
                  7011c8e0    00000022     Configurer.obj (.text._ZNSt3__110shared_ptrIN8nlohmann16json_abi_v3_11_26detail23output_adapter_protocolIcEEED2Ev)
                  7011c902    0000000e     --HOLE-- [fill = 0]
                  7011c910    00000022     TopicHandler.obj (.text._ZNSt3__16__treeINS_12__value_typeI16ConsumerMetadataiEENS_19__map_value_compareIS2_S3_NS_4lessIS2_EELb1EEENS_9allocatorIS3_EEE7destroyEPNS_11__tree_nodeIS3_PvEE)
                  7011c932    0000000e     --HOLE-- [fill = 0]
                  7011c940    00000022     SystemManager.obj (.text._ZNSt3__16vectorI14BrokerMetadataNS_9allocatorIS1_EEE11__vallocateEj)
                  7011c962    0000000e     --HOLE-- [fill = 0]
                  7011c970    00000022     Configurer.obj (.text._ZNSt3__16vectorIN8nlohmann16json_abi_v3_11_210basic_jsonINS_3mapES0_NS_12basic_stringIcNS_11char_traitsIcEENS_9allocatorIcEEEEbxydS8_NS2_14adl_serializerENS0_IhNS8_IhEEEEvEENS8_ISE_EEE11__vallocateEj)
                  7011c992    0000000e     --HOLE-- [fill = 0]
                  7011c9a0    00000022     freertos.am64x.r5f.ti-arm-clang.release.lib : tasks.obj (.text.vTaskEnterCritical)
                  7011c9c2    0000000e     --HOLE-- [fill = 0]
                  7011c9d0    00000020                                                 : DebugP_log.obj (.text.DebugP_logZoneEnable)
                  7011c9f0    00000020     drivers.am64x.r5f.ti-arm-clang.release.lib : soc.obj (.text.SOC_getSelfCpuClk)
                  7011ca10    00000020     freertos.am64x.r5f.ti-arm-clang.release.lib : TimerP.obj (.text.TimerP_Params_init)
                  7011ca30    00000020     BrokerMetadata.obj (.text._ZN14BrokerMetadata16addTopicMetadataE13TopicMetadata)
                  7011ca50    00000020     CommunicationFactory.obj (.text._ZN20CommunicationFactory19createCommunicationE17CommunicationTypeRK8EndpointRK6Logger)
                  7011ca70    00000020     Topic.obj (.text._ZN5TopicC2E13TopicMetadataRK6Logger)
                  7011ca90    00000020     BrokerMetadata.obj (.text._ZN8nlohmann16json_abi_v3_11_210basic_jsonINSt3__13mapENS2_6vectorENS2_12basic_stringIcNS2_11char_traitsIcEENS2_9allocatorIcEEEEbxydS8_NS0_14adl_serializerENS4_IhNS8_IhEEEEvE2atIRA5_KcLi0EEERSE_OT_)
                  7011cab0    00000020     Configurer.obj (.text._ZN8nlohmann16json_abi_v3_11_26detail5lexerINS0_10basic_jsonINSt3__13mapENS4_6vectorENS4_12basic_stringIcNS4_11char_traitsIcEENS4_9allocatorIcEEEEbxydSA_NS0_14adl_serializerENS6_IhNSA_IhEEEEvEENS1_22iterator_input_adapterIPKcEEED2Ev)
                  7011cad0    00000020     Configurer.obj (.text._ZN8nlohmann16json_abi_v3_11_26detail5lexerINS0_10basic_jsonINSt3__13mapENS4_6vectorENS4_12basic_stringIcNS4_11char_traitsIcEENS4_9allocatorIcEEEEbxydSA_NS0_14adl_serializerENS6_IhNSA_IhEEEEvEENS1_22iterator_input_adapterIPcEEED2Ev)
                  7011caf0    00000020     RPMessageEndpoint.obj (.text._ZNK8nlohmann16json_abi_v3_11_210basic_jsonINSt3__13mapENS2_6vectorENS2_12basic_stringIcNS2_11char_traitsIcEENS2_9allocatorIcEEEEbxydS8_NS0_14adl_serializerENS4_IhNS8_IhEEEEvE2atIRA16_KcLi0EEERKSE_OT_)
                  7011cb10    00000020     UDPEndpoint.obj (.text._ZNK8nlohmann16json_abi_v3_11_210basic_jsonINSt3__13mapENS2_6vectorENS2_12basic_stringIcNS2_11char_traitsIcEENS2_9allocatorIcEEEEbxydS8_NS0_14adl_serializerENS4_IhNS8_IhEEEEvE2atIRA3_KcLi0EEERKSE_OT_)
                  7011cb30    00000020     Record.obj (.text._ZNK8nlohmann16json_abi_v3_11_210basic_jsonINSt3__13mapENS2_6vectorENS2_12basic_stringIcNS2_11char_traitsIcEENS2_9allocatorIcEEEEbxydS8_NS0_14adl_serializerENS4_IhNS8_IhEEEEvE2atIRA5_KcLi0EEERKSE_OT_)
                  7011cb50    00000020     BrokerMetadata.obj (.text._ZNK8nlohmann16json_abi_v3_11_210basic_jsonINSt3__13mapENS2_6vectorENS2_12basic_stringIcNS2_11char_traitsIcEENS2_9allocatorIcEEEEbxydS8_NS0_14adl_serializerENS4_IhNS8_IhEEEEvE2atIRA7_KcLi0EEERKSE_OT_)
                  7011cb70    00000020     ClusterMetadata.obj (.text._ZNK8nlohmann16json_abi_v3_11_210basic_jsonINSt3__13mapENS2_6vectorENS2_12basic_stringIcNS2_11char_traitsIcEENS2_9allocatorIcEEEEbxydS8_NS0_14adl_serializerENS4_IhNS8_IhEEEEvE2atIRA8_KcLi0EEERKSE_OT_)
                  7011cb90    00000020     BrokerMetadata.obj (.text._ZNK8nlohmann16json_abi_v3_11_210basic_jsonINSt3__13mapENS2_6vectorENS2_12basic_stringIcNS2_11char_traitsIcEENS2_9allocatorIcEEEEbxydS8_NS0_14adl_serializerENS4_IhNS8_IhEEEEvE2atIRA9_KcLi0EEERKSE_OT_)
                  7011cbb0    00000020     Configurer.obj (.text._ZNSt3__16__treeINS_12__value_typeINS_12basic_stringIcNS_11char_traitsIcEENS_9allocatorIcEEEEN8nlohmann16json_abi_v3_11_210basic_jsonINS_3mapENS_6vectorES7_bxydS5_NS9_14adl_serializerENSC_IhNS5_IhEEEEvEEEENS_19__map_value_compareIS7_SH_NS_4lessIvEELb1EEENS5_ISH_EEE5eraseENS_21__tree_const_iteratorISH_PNS_11__tree_nodeISH_PvEEiEE)
                  7011cbd0    00000020     Configurer.obj (.text._ZNSt3__16vectorIhNS_9allocatorIhEEE11__vallocateEj)
                  7011cbf0    00000020     libc.a : assert.c.obj (.text._abort_msg)
                  7011cc10    00000020            : wcslen.c.obj (.text.wcslen)
                  7011cc30    0000001e     drivers.am64x.r5f.ti-arm-clang.release.lib : ipc_notify_v0.obj (.text.IpcNotify_syncCallback)
                  7011cc4e    00000002     --HOLE-- [fill = 0]
                  7011cc50    0000001e     TopicFactory.obj (.text._ZN12TopicFactoryD2Ev)
                  7011cc6e    00000002     --HOLE-- [fill = 0]
                  7011cc70    0000001e     Configurer.obj (.text._ZN8nlohmann16json_abi_v3_11_26detail10serializerINS0_10basic_jsonINSt3__13mapENS4_6vectorENS4_12basic_stringIcNS4_11char_traitsIcEENS4_9allocatorIcEEEEbxydSA_NS0_14adl_serializerENS6_IhNSA_IhEEEEvEEED2Ev)
                  7011cc8e    00000002     --HOLE-- [fill = 0]
                  7011cc90    0000001e     freertos.am64x.r5f.ti-arm-clang.release.lib : port.obj (.text.vApplicationGetIdleTaskMemory)
                  7011ccae    00000002     --HOLE-- [fill = 0]
                  7011ccb0    0000001e                                                 : port.obj (.text.vApplicationGetTimerTaskMemory)
                  7011ccce    00000002     --HOLE-- [fill = 0]
                  7011ccd0    0000001c     drivers.am64x.r5f.ti-arm-clang.release.lib : ipc_rpmsg_vring.obj (.text.RPMessage_vringGetTxBufLen)
                  7011ccec    00000004     --HOLE-- [fill = 0]
                  7011ccf0    0000001c     Configurer.obj (.text._ZN8nlohmann16json_abi_v3_11_26detail10lexer_baseINS0_10basic_jsonINSt3__13mapENS4_6vectorENS4_12basic_stringIcNS4_11char_traitsIcEENS4_9allocatorIcEEEEbxydSA_NS0_14adl_serializerENS6_IhNSA_IhEEEEvEEE15token_type_nameENSH_10token_typeE)
                  7011cd0c    00000004     --HOLE-- [fill = 0]
                  7011cd10    0000001c     TopicFactory.obj (.text._ZNSt3__16vectorI13TopicMetadataNS_9allocatorIS1_EEE13__vdeallocateEv)
                  7011cd2c    00000004     --HOLE-- [fill = 0]
                  7011cd30    0000001c     freertos.am64x.r5f.ti-arm-clang.release.lib : boot_armv7r.obj (.text._system_pre_init)
                  7011cd4c    0000001c     libc.a : _printfi.c.obj (.text.strlen)
                  7011cd68    0000001c            : aeabi_portable.c.obj (.text.strlen)
                  7011cd84    0000001c            : strlen.c.obj (.text.strlen)
                  7011cda0    0000001c     libsysbm.a : hostrename.c.obj (.text.strlen)
                  7011cdbc    00000004     --HOLE-- [fill = 0]
                  7011cdc0    0000001c     freertos.am64x.r5f.ti-arm-clang.release.lib : list.obj (.text.vListInsertEnd)
                  7011cddc    0000001c     libsysbm.a : memcpy32.S.obj (.text:TI_memcpy_small)
                  7011cdf8    0000001c     libclang_rt.builtins.a : aeabi_memset.S.obj (.text)
                  7011ce14    0000000c     --HOLE-- [fill = 0]
                  7011ce20    0000001a     drivers.am64x.r5f.ti-arm-clang.release.lib : ipc_notify_v0.obj (.text.IpcNotify_Params_init)
                  7011ce3a    00000006     --HOLE-- [fill = 0]
                  7011ce40    0000001a                                                : ipc_rpmsg_vring.obj (.text.RPMessage_vringGetRxBufAddr)
                  7011ce5a    00000006     --HOLE-- [fill = 0]
                  7011ce60    0000001a                                                : ipc_rpmsg_vring.obj (.text.RPMessage_vringGetTxBufAddr)
                  7011ce7a    00000006     --HOLE-- [fill = 0]
                  7011ce80    0000001a                                                : uart_dma.obj (.text.UART_writeInterruptDma)
                  7011ce9a    00000006     --HOLE-- [fill = 0]
                  7011cea0    0000001a     RPMessageEndpoint.obj (.text._ZN17RPMessageEndpointC2Ev)
                  7011ceba    00000006     --HOLE-- [fill = 0]
                  7011cec0    0000001a     Configurer.obj (.text._ZNSt3__120__shared_ptr_emplaceIN8nlohmann16json_abi_v3_11_26detail21output_string_adapterIcNS_12basic_stringIcNS_11char_traitsIcEENS_9allocatorIcEEEEEENS8_ISB_EEED0Ev)
                  7011ceda    00000006     --HOLE-- [fill = 0]
                  7011cee0    0000001a     freertos.am64x.r5f.ti-arm-clang.release.lib : heap_3.obj (.text.vPortFree)
                  7011cefa    00000006     --HOLE-- [fill = 0]
                  7011cf00    0000001a                                                 : tasks.obj (.text.vTaskInternalSetTimeOutState)
                  7011cf1a    00000006     --HOLE-- [fill = 0]
                  7011cf20    00000018     ti_drivers_config.obj (.text.IpcNotify_getConfig)
                  7011cf38    00000008     --HOLE-- [fill = 0]
                  7011cf40    00000018     drivers.am64x.r5f.ti-arm-clang.release.lib : ipc_notify_v0.obj (.text.IpcNotify_isCoreEnabled)
                  7011cf58    00000008     --HOLE-- [fill = 0]
                  7011cf60    00000018                                                : sciclient_soc_priv.obj (.text.Sciclient_getDevId)
                  7011cf78    00000008     --HOLE-- [fill = 0]
                  7011cf80    00000018     TopicHandler.obj (.text._ZN12TopicHandlerD2Ev)
                  7011cf98    00000008     --HOLE-- [fill = 0]
                  7011cfa0    00000018     embedded_kafka.obj (.text._ZNSt3__16vectorI13TopicMetadataNS_9allocatorIS1_EEED2Ev)
                  7011cfb8    00000008     --HOLE-- [fill = 0]
                  7011cfc0    00000018     RealTopic.obj (.text._ZNSt3__16vectorI6RecordNS_9allocatorIS1_EEED2Ev)
                  7011cfd8    00000008     --HOLE-- [fill = 0]
                  7011cfe0    00000018     freertos.am64x.r5f.ti-arm-clang.release.lib : tasks.obj (.text.pvTaskIncrementMutexHeldCount)
                  7011cff8    00000008     --HOLE-- [fill = 0]
                  7011d000    00000018                                                 : port.obj (.text.xPortStartScheduler)
                  7011d018    00000018     libsysbm.a : memset32.S.obj (.text:TI_memset_small)
                  7011d030    00000016     ProducerRecord.obj (.text._ZN14ProducerRecordC2E13TopicMetadata6Record)
                  7011d046    0000000a     --HOLE-- [fill = 0]
                  7011d050    00000016     Configurer.obj (.text._ZNSt3__114__split_bufferI13TopicMetadataRNS_9allocatorIS1_EEED2Ev)
                  7011d066    0000000a     --HOLE-- [fill = 0]
                  7011d070    00000016     RealTopic.obj (.text._ZNSt3__114__split_bufferI6RecordRNS_9allocatorIS1_EEED2Ev)
                  7011d086    0000000a     --HOLE-- [fill = 0]
                  7011d090    00000016     Configurer.obj (.text._ZNSt3__114__split_bufferIN8nlohmann16json_abi_v3_11_210basic_jsonINS_3mapENS_6vectorENS_12basic_stringIcNS_11char_traitsIcEENS_9allocatorIcEEEEbxydS9_NS2_14adl_serializerENS5_IhNS9_IhEEEEvEERNS9_ISF_EEED2Ev)
                  7011d0a6    0000000a     --HOLE-- [fill = 0]
                  7011d0b0    00000016     freertos.am64x.r5f.ti-arm-clang.release.lib : list.obj (.text.vListInitialise)
                  7011d0c6    0000000a     --HOLE-- [fill = 0]
                  7011d0d0    00000014                                                 : ClockP_freertos.obj (.text.ClockP_usecToTicks)
                  7011d0e4    0000000c     --HOLE-- [fill = 0]
                  7011d0f0    00000014     Configurer.obj (.text._ZN8nlohmann16json_abi_v3_11_214adl_serializerINSt3__112basic_stringIcNS2_11char_traitsIcEENS2_9allocatorIcEEEEvE9from_jsonIRKNS0_10basic_jsonINS2_3mapENS2_6vectorES8_bxydS6_S1_NSD_IhNS6_IhEEEEvEES8_EEDTcmclL_ZNS0_12_GLOBAL__N_19from_jsonEEclsr3stdE7forwardIT_Efp_Efp0_Ecvv_EEOSK_RT0_)
                  7011d104    00000014     libc.a : sprintf.c.obj (.text._outc)
                  7011d118    00000014     libsysbm.a : hostrename.c.obj (.text.strcpy)
                  7011d12c    00000004     --HOLE-- [fill = 0]
                  7011d130    00000012     freertos.am64x.r5f.ti-arm-clang.release.lib : TimerP.obj (.text.TimerP_clearOverflowInt)
                  7011d142    0000000e     --HOLE-- [fill = 0]
                  7011d150    00000012     main.obj (.text._Z13freertos_mainPv)
                  7011d162    0000000e     --HOLE-- [fill = 0]
                  7011d170    00000012     RPMessageEndpoint.obj (.text._ZN17RPMessageEndpointC2Ejt)
                  7011d182    0000000e     --HOLE-- [fill = 0]
                  7011d190    00000012     RealTopic.obj (.text._ZN9RealTopic4readE16ConsumerMetadata)
                  7011d1a2    0000000e     --HOLE-- [fill = 0]
                  7011d1b0    00000010     freertos.am64x.r5f.ti-arm-clang.release.lib : ClockP_freertos.obj (.text.ClockP_ticksToUsec)
                  7011d1c0    00000010     drivers.am64x.r5f.ti-arm-clang.release.lib : ipc_rpmsg.obj (.text.RPMessage_CreateParams_init)
                  7011d1d0    00000010     libc++abi.a : private_typeinfo.cpp.obj (.text._ZN10__cxxabiv117__class_type_infoD0Ev)
                  7011d1e0    00000010                 : private_typeinfo.cpp.obj (.text._ZN10__cxxabiv120__si_class_type_infoD0Ev)
                  7011d1f0    00000010     Configurer.obj (.text._ZNSt3__120__shared_ptr_emplaceIN8nlohmann16json_abi_v3_11_26detail21output_string_adapterIcNS_12basic_stringIcNS_11char_traitsIcEENS_9allocatorIcEEEEEENS8_ISB_EEED2Ev)
                  7011d200    00000010     libc++abi.a : cxa_handlers.cpp.obj (.text._ZSt15get_new_handlerv)
                  7011d210    00000010                 : cxa_virtual.cpp.obj (.text.__cxa_pure_virtual)
                  7011d220    00000010     freertos.am64x.r5f.ti-arm-clang.release.lib : port.obj (.text.vPortYeildFromISR)
                  7011d230    00000010                                                 : tasks.obj (.text.vTaskSuspendAll)
                  7011d240    0000000e     ti_power_clock_config.obj (.text.PowerClock_init)
                  7011d24e    00000002     --HOLE-- [fill = 0]
                  7011d250    0000000e     RealTopic.obj (.text._ZN9RealTopicD0Ev)
                  7011d25e    00000002     --HOLE-- [fill = 0]
                  7011d260    0000000e     ConsumerMetadata.obj (.text._ZNK16ConsumerMetadataltERKS_)
                  7011d26e    00000002     --HOLE-- [fill = 0]
                  7011d270    0000000e     freertos.am64x.r5f.ti-arm-clang.release.lib : tasks.obj (.text.vTaskMissedYield)
                  7011d27e    00000002     --HOLE-- [fill = 0]
                  7011d280    0000000c                                                 : DebugP_uartLogWriter.obj (.text.DebugP_uartSetDrvIndex)
                  7011d28c    00000004     --HOLE-- [fill = 0]
                  7011d290    0000000c     drivers.am64x.r5f.ti-arm-clang.release.lib : ipc_notify_v0.obj (.text.IpcNotify_getSelfCoreId)
                  7011d29c    00000004     --HOLE-- [fill = 0]
                  7011d2a0    0000000c                                                : sciclient.obj (.text.Sciclient_getSelfDevIdCore)
                  7011d2ac    00000004     --HOLE-- [fill = 0]
                  7011d2b0    0000000c     BrokerMetadata.obj (.text._ZN14BrokerMetadataC2EP8Endpoint)
                  7011d2bc    00000004     --HOLE-- [fill = 0]
                  7011d2c0    0000000c     ConsumerMetadata.obj (.text._ZN16ConsumerMetadataC2Ev)
                  7011d2cc    00000004     --HOLE-- [fill = 0]
                  7011d2d0    0000000c     Record.obj (.text._ZN6RecordC2Ev)
                  7011d2dc    00000004     --HOLE-- [fill = 0]
                  7011d2e0    0000000c     freertos.am64x.r5f.ti-arm-clang.release.lib : tasks.obj (.text.xTaskGetCurrentTaskHandle)
                  7011d2ec    00000004     --HOLE-- [fill = 0]
                  7011d2f0    0000000a     drivers.am64x.r5f.ti-arm-clang.release.lib : csl_sec_proxy.obj (.text.CSL_secProxyGetDataAddr)
                  7011d2fa    00000006     --HOLE-- [fill = 0]
                  7011d300    0000000a     freertos.am64x.r5f.ti-arm-clang.release.lib : TimerP.obj (.text.TimerP_start)
                  7011d30a    00000006     --HOLE-- [fill = 0]
                  7011d310    0000000a     TopicMetadata.obj (.text._Z7to_jsonRN8nlohmann16json_abi_v3_11_210basic_jsonINSt3__13mapENS2_6vectorENS2_12basic_stringIcNS2_11char_traitsIcEENS2_9allocatorIcEEEEbxydS8_NS0_14adl_serializerENS4_IhNS8_IhEEEEvEERK13TopicMetadata)
                  7011d31a    00000006     --HOLE-- [fill = 0]
                  7011d320    0000000a     BrokerMetadata.obj (.text._Z7to_jsonRN8nlohmann16json_abi_v3_11_210basic_jsonINSt3__13mapENS2_6vectorENS2_12basic_stringIcNS2_11char_traitsIcEENS2_9allocatorIcEEEEbxydS8_NS0_14adl_serializerENS4_IhNS8_IhEEEEvEERK14BrokerMetadata)
                  7011d32a    00000006     --HOLE-- [fill = 0]
                  7011d330    0000000a     ConsumerMetadata.obj (.text._Z7to_jsonRN8nlohmann16json_abi_v3_11_210basic_jsonINSt3__13mapENS2_6vectorENS2_12basic_stringIcNS2_11char_traitsIcEENS2_9allocatorIcEEEEbxydS8_NS0_14adl_serializerENS4_IhNS8_IhEEEEvEERK16ConsumerMetadata)
                  7011d33a    00000006     --HOLE-- [fill = 0]
                  7011d340    0000000a     ProducerMetadata.obj (.text._Z7to_jsonRN8nlohmann16json_abi_v3_11_210basic_jsonINSt3__13mapENS2_6vectorENS2_12basic_stringIcNS2_11char_traitsIcEENS2_9allocatorIcEEEEbxydS8_NS0_14adl_serializerENS4_IhNS8_IhEEEEvEERK16ProducerMetadata)
                  7011d34a    00000006     --HOLE-- [fill = 0]
                  7011d350    0000000a     TopicMetadata.obj (.text._ZN13TopicMetadataC2Ev)
                  7011d35a    00000006     --HOLE-- [fill = 0]
                  7011d360    0000000a     BrokerMetadata.obj (.text._ZN14BrokerMetadataC2Ev)
                  7011d36a    00000006     --HOLE-- [fill = 0]
                  7011d370    0000000a     SystemManager.obj (.text._ZNK13SystemManager18getClusterMetadataEv)
                  7011d37a    00000006     --HOLE-- [fill = 0]
                  7011d380    0000000a     BrokerMetadata.obj (.text._ZNK14BrokerMetadata17getTopicsMetadataEv)
                  7011d38a    00000006     --HOLE-- [fill = 0]
                  7011d390    0000000a     ProducerRecord.obj (.text._ZNK14ProducerRecord9getRecordEv)
                  7011d39a    00000006     --HOLE-- [fill = 0]
                  7011d3a0    0000000a     Topic.obj (.text._ZNK5Topic16getTopicMetadataEv)
                  7011d3aa    00000006     --HOLE-- [fill = 0]
                  7011d3b0    0000000a     freertos.am64x.r5f.ti-arm-clang.release.lib : port.obj (.text.vApplicationIdleHook)
                  7011d3ba    00000006     --HOLE-- [fill = 0]
                  7011d3c0    00000008     ClusterMetadata.obj (.text._ZN15ClusterMetadata18getBrokersMetadataEv)
                  7011d3c8    00000008     --HOLE-- [fill = 0]
                  7011d3d0    00000008     ProducerRecord.obj (.text._ZNK14ProducerRecord16getTopicMetadataEv)
                  7011d3d8    00000008     --HOLE-- [fill = 0]
                  7011d3e0    00000008     libc++abi.a : stdlib_stdexcept.cpp.obj (.text._ZNKSt13runtime_error4whatEv)
                  7011d3e8    00000008     --HOLE-- [fill = 0]
                  7011d3f0    00000008     libc++.a : memory.cpp.obj (.text._ZNKSt3__119__shared_weak_count13__get_deleterERKSt9type_info)
                  7011d3f8    00000008     --HOLE-- [fill = 0]
                  7011d400    00000008     Configurer.obj (.text._ZNSt3__120__shared_ptr_emplaceIN8nlohmann16json_abi_v3_11_26detail21output_string_adapterIcNS_12basic_stringIcNS_11char_traitsIcEENS_9allocatorIcEEEEEENS8_ISB_EEE16__on_zero_sharedEv)
                  7011d408    00000008     --HOLE-- [fill = 0]
                  7011d410    00000008     freertos.am64x.r5f.ti-arm-clang.release.lib : printf.obj (.text._out_char)
                  7011d418    00000008     --HOLE-- [fill = 0]
                  7011d420    00000008     libc++abi.a : abort_message.cpp.obj (.text.abort_message)
                  7011d428    00000008     --HOLE-- [fill = 0]
                  7011d430    00000008     freertos.am64x.r5f.ti-arm-clang.release.lib : port.obj (.text.uiPortGetRunTimeCounterValue)
                  7011d438    00000008     --HOLE-- [fill = 0]
                  7011d440    00000006                                                 : SemaphoreP_freertos.obj (.text.SemaphoreP_destruct)
                  7011d446    0000000a     --HOLE-- [fill = 0]
                  7011d450    00000006     TopicFactory.obj (.text._ZN12TopicFactory8askForIDEv)
                  7011d456    0000000a     --HOLE-- [fill = 0]
                  7011d460    00000006     ConsumerMetadata.obj (.text._ZN16ConsumerMetadataC2EiP8Endpoint)
                  7011d466    0000000a     --HOLE-- [fill = 0]
                  7011d470    00000006     Configurer.obj (.text._ZN8nlohmann16json_abi_v3_11_26detail21output_string_adapterIcNSt3__112basic_stringIcNS3_11char_traitsIcEENS3_9allocatorIcEEEEE15write_characterEc)
                  7011d476    0000000a     --HOLE-- [fill = 0]
                  7011d480    00000006     Configurer.obj (.text._ZN8nlohmann16json_abi_v3_11_26detail21output_string_adapterIcNSt3__112basic_stringIcNS3_11char_traitsIcEENS3_9allocatorIcEEEEE16write_charactersEPKcj)
                  7011d486    0000000a     --HOLE-- [fill = 0]
                  7011d490    00000006     Configurer.obj (.text._ZNK8nlohmann16json_abi_v3_11_26detail9exception4whatEv)
                  7011d496    0000000a     --HOLE-- [fill = 0]
                  7011d4a0    00000006     freertos.am64x.r5f.ti-arm-clang.release.lib : port.obj (.text.prvTaskExitError)
                  7011d4a6    0000000a     --HOLE-- [fill = 0]
                  7011d4b0    00000006                                                 : list.obj (.text.vListInitialiseItem)
                  7011d4b6    0000000a     --HOLE-- [fill = 0]
                  7011d4c0    00000004     ti_board_open_close.obj (.text.Board_driversOpen)
                  7011d4c4    0000000c     --HOLE-- [fill = 0]
                  7011d4d0    00000004     freertos.am64x.r5f.ti-arm-clang.release.lib : ClockP_freertos.obj (.text.ClockP_getTicks)
                  7011d4d4    0000000c     --HOLE-- [fill = 0]
                  7011d4e0    00000004                                                 : ClockP_freertos_r5.obj (.text.ClockP_getTimerCount)
                  7011d4e4    0000000c     --HOLE-- [fill = 0]
                  7011d4f0    00000004                                                 : ClockP_freertos_r5.obj (.text.ClockP_timerClearOverflowInt)
                  7011d4f4    0000000c     --HOLE-- [fill = 0]
                  7011d500    00000004     ti_drivers_open_close.obj (.text.Drivers_open)
                  7011d504    0000000c     --HOLE-- [fill = 0]
                  7011d510    00000004     drivers.am64x.r5f.ti-arm-clang.release.lib : ipc_rpmsg.obj (.text.RPMessage_getLocalEndPt)
                  7011d514    0000000c     --HOLE-- [fill = 0]
                  7011d520    00000004     freertos.am64x.r5f.ti-arm-clang.release.lib : TaskP_freertos.obj (.text.TaskP_yield)
                  7011d524    0000000c     --HOLE-- [fill = 0]
                  7011d530    00000004                                                 : TimerP.obj (.text.TimerP_getCount)
                  7011d534    0000000c     --HOLE-- [fill = 0]
                  7011d540    00000004                                                 : TimerP.obj (.text.TimerP_getReloadCount)
                  7011d544    0000000c     --HOLE-- [fill = 0]
                  7011d550    00000004     libc++abi.a : private_typeinfo.cpp.obj (.text._ZN10__cxxabiv116__shim_type_infoD2Ev)
                  7011d554    0000000c     --HOLE-- [fill = 0]
                  7011d560    00000004     UDPEndpoint.obj (.text._ZN11UDPEndpointD0Ev)
                  7011d564    0000000c     --HOLE-- [fill = 0]
                  7011d570    00000004     TopicMetadata.obj (.text._ZN13TopicMetadataC2ENSt3__112basic_stringIcNS0_11char_traitsIcEENS0_9allocatorIcEEEE)
                  7011d574    0000000c     --HOLE-- [fill = 0]
                  7011d580    00000004     BrokerMetadata.obj (.text._ZN14BrokerMetadata11setEndpointEP8Endpoint)
                  7011d584    0000000c     --HOLE-- [fill = 0]
                  7011d590    00000004     ClusterMetadata.obj (.text._ZN15ClusterMetadataD2Ev)
                  7011d594    0000000c     --HOLE-- [fill = 0]
                  7011d5a0    00000004     ConsumerMetadata.obj (.text._ZN16ConsumerMetadata11setEndpointEP8Endpoint)
                  7011d5a4    0000000c     --HOLE-- [fill = 0]
                  7011d5b0    00000004     ProducerMetadata.obj (.text._ZN16ProducerMetadataC2Ei)
                  7011d5b4    0000000c     --HOLE-- [fill = 0]
                  7011d5c0    00000004     RPMessageEndpoint.obj (.text._ZN17RPMessageEndpoint18setServiceEndpointEt)
                  7011d5c4    0000000c     --HOLE-- [fill = 0]
                  7011d5d0    00000004     RPMessageEndpoint.obj (.text._ZN17RPMessageEndpoint9setCoreIdEj)
                  7011d5d4    0000000c     --HOLE-- [fill = 0]
                  7011d5e0    00000004     RPMessageEndpoint.obj (.text._ZN17RPMessageEndpointD0Ev)
                  7011d5e4    0000000c     --HOLE-- [fill = 0]
                  7011d5f0    00000004     Record.obj (.text._ZN6RecordC2ENSt3__112basic_stringIcNS0_11char_traitsIcEENS0_9allocatorIcEEEE)
                  7011d5f4    0000000c     --HOLE-- [fill = 0]
                  7011d600    00000004     Configurer.obj (.text._ZN8nlohmann16json_abi_v3_11_26detail21output_string_adapterIcNSt3__112basic_stringIcNS3_11char_traitsIcEENS3_9allocatorIcEEEEED0Ev)
                  7011d604    0000000c     --HOLE-- [fill = 0]
                  7011d610    00000004     libc++abi.a : private_typeinfo.cpp.obj (.text._ZNK10__cxxabiv116__shim_type_info5noop1Ev)
                  7011d614    0000000c     --HOLE-- [fill = 0]
                  7011d620    00000004                 : private_typeinfo.cpp.obj (.text._ZNK10__cxxabiv116__shim_type_info5noop2Ev)
                  7011d624    0000000c     --HOLE-- [fill = 0]
                  7011d630    00000004     BrokerMetadata.obj (.text._ZNK14BrokerMetadata11getEndpointEv)
                  7011d634    0000000c     --HOLE-- [fill = 0]
                  7011d640    00000004     ConsumerMetadata.obj (.text._ZNK16ConsumerMetadata11getEndpointEv)
                  7011d644    0000000c     --HOLE-- [fill = 0]
                  7011d650    00000004     ConsumerMetadata.obj (.text._ZNK16ConsumerMetadata5getIdEv)
                  7011d654    0000000c     --HOLE-- [fill = 0]
                  7011d660    00000004     RPMessageEndpoint.obj (.text._ZNK17RPMessageEndpoint18getServiceEndpointEv)
                  7011d664    0000000c     --HOLE-- [fill = 0]
                  7011d670    00000004     RPMessageEndpoint.obj (.text._ZNK17RPMessageEndpoint9getCoreIdEv)
                  7011d674    0000000c     --HOLE-- [fill = 0]
                  7011d680    00000004     libc++.a : memory.cpp.obj (.text._ZNSt3__114__shared_countD2Ev)
                  7011d684    0000000c     --HOLE-- [fill = 0]
                  7011d690    00000004     Configurer.obj (.text._ZNSt3__120__shared_ptr_emplaceIN8nlohmann16json_abi_v3_11_26detail21output_string_adapterIcNS_12basic_stringIcNS_11char_traitsIcEENS_9allocatorIcEEEEEENS8_ISB_EEE21__on_zero_shared_weakEv)
                  7011d694    0000000c     --HOLE-- [fill = 0]
                  7011d6a0    00000004     Configurer.obj (.text._ZNSt3__125__throw_bad_function_callEv)
                  7011d6a4    0000000c     --HOLE-- [fill = 0]
                  7011d6b0    00000004     libc++abi.a : stdlib_exception.cpp.obj (.text._ZNSt9exceptionD2Ev)
                  7011d6b4    0000000c     --HOLE-- [fill = 0]
                  7011d6c0    00000004                 : stdlib_typeinfo.cpp.obj (.text._ZNSt9type_infoD2Ev)
                  7011d6c4    0000000c     --HOLE-- [fill = 0]
                  7011d6d0    00000004     Configurer.obj (.text._ZSt28__throw_bad_array_new_lengthv)
                  7011d6d4    0000000c     --HOLE-- [fill = 0]
                  7011d6e0    00000004     libc++abi.a : stdlib_new_delete.cpp.obj (.text._ZdlPv)
                  7011d6e4    0000000c     --HOLE-- [fill = 0]
                  7011d6f0    00000004     libclang_rt.builtins.a : aeabi_div0.c.obj (.text.__aeabi_idiv0)
                  7011d6f4    0000000c     --HOLE-- [fill = 0]
                  7011d700    00000004                            : aeabi_div0.c.obj (.text.__aeabi_ldiv0)
                  7011d704    0000000c     --HOLE-- [fill = 0]
                  7011d710    00000004     ti_dpl_config.obj (.text.putchar_)
                  7011d714    0000000c     --HOLE-- [fill = 0]
                  7011d720    00000002     ti_board_open_close.obj (.text.Board_driversClose)
                  7011d722    0000000e     --HOLE-- [fill = 0]
                  7011d730    00000002     ti_board_config.obj (.text.Board_init)
                  7011d732    0000000e     --HOLE-- [fill = 0]
                  7011d740    00000002     UDPEndpoint.obj (.text._ZN11UDPEndpointD2Ev)
                  7011d742    0000000e     --HOLE-- [fill = 0]
                  7011d750    00000002     ProducerMetadata.obj (.text._ZN16ProducerMetadataC2Ev)
                  7011d752    0000000e     --HOLE-- [fill = 0]
                  7011d760    00000002     RPMessageEndpoint.obj (.text._ZN17RPMessageEndpointD2Ev)
                  7011d762    0000000e     --HOLE-- [fill = 0]
                  7011d770    00000002     Topic.obj (.text._ZN5TopicD0Ev)
                  7011d772    0000000e     --HOLE-- [fill = 0]
                  7011d780    00000002     Configurer.obj (.text._ZN8nlohmann16json_abi_v3_11_26detail23output_adapter_protocolIcED2Ev)
                  7011d782    0000000e     --HOLE-- [fill = 0]
                  7011d790    00000002     TopicMetadata.obj (.text._ZNK13TopicMetadata7getNameEv)
                  7011d792    0000000e     --HOLE-- [fill = 0]
                  7011d7a0    00000002     Record.obj (.text._ZNK6Record7getDataEv)
                  7011d7a2    0000000e     --HOLE-- [fill = 0]
                  7011d7b0    00000002     freertos.am64x.r5f.ti-arm-clang.release.lib : printf.obj (.text._out_null)
                  7011d7b2    0000000e     --HOLE-- [fill = 0]
                  7011d7c0    00000002                                                 : port.obj (.text.vPortConfigTimerForRunTimeStats)
                  7011d7c2    0000000e     --HOLE-- [fill = 0]
                  7011d7d0    00000002                                                 : port.obj (.text.vPortValidateInterruptPriority)
                  7011d7d2    0000000e     --HOLE-- [fill = 0]

.rodata    0    7011d7e0    00009e70     
                  7011d7e0    00001747     Configurer.obj (.rodata.str1.1)
                  7011ef27    000016d4     Broker.obj (.rodata.str1.1)
                  701205fb    00001663     TopicProxy.obj (.rodata.str1.1)
                  70121c5e    0000161e     SystemManager.obj (.rodata.str1.1)
                  7012327c    000007b7     freertos.am64x.r5f.ti-arm-clang.release.lib : tasks.obj (.rodata.str1.1)
                  70123a33    00000756                                                 : queue.obj (.rodata.str1.1)
                  70124189    000005ce     TopicHandler.obj (.rodata.str1.1)
                  70124757    00000001     SystemManager.obj (.rodata._ZN8nlohmann16json_abi_v3_11_26detail12static_constINS1_12from_json_fnEE5valueE)
                  70124758    000004f0     Configurer.obj (.rodata._ZZN8nlohmann16json_abi_v3_11_26detail9dtoa_impl36get_cached_power_for_binary_exponentEiE13kCachedPowers)
                  70124c48    0000031a     drivers.am64x.r5f.ti-arm-clang.release.lib : ipc_rpmsg.obj (.rodata.str1.1)
                  70124f62    000002bc     freertos.am64x.r5f.ti-arm-clang.release.lib : timers.obj (.rodata.str1.1)
                  7012521e    000001fe     BrokerMetadata.obj (.rodata.str1.1)
                  7012541c    000001dd     ClusterMetadata.obj (.rodata.str1.1)
                  701255f9    00000197     RPMessageEndpoint.obj (.rodata.str1.1)
                  70125790    00000190     Configurer.obj (.rodata._ZZN8nlohmann16json_abi_v3_11_26detail10serializerINS0_10basic_jsonINSt3__13mapENS4_6vectorENS4_12basic_stringIcNS4_11char_traitsIcEENS4_9allocatorIcEEEEbxydSA_NS0_14adl_serializerENS6_IhNSA_IhEEEEvEEE6decodeERhRjhE5utf8d)
                  70125920    00000180     UDPEndpoint.obj (.rodata.str1.1)
                  70125aa0    0000017d     drivers.am64x.r5f.ti-arm-clang.release.lib : ipc_notify_v0.obj (.rodata.str1.1)
                  70125c1d    0000016d     RealTopic.obj (.rodata.str1.1)
                  70125d8a    00000168     ConsumerMetadata.obj (.rodata.str1.1)
                  70125ef2    00000154     Record.obj (.rodata.str1.1)
                  70126046    0000014a     TopicMetadata.obj (.rodata.str1.1)
                  70126190    00000148     ProducerMetadata.obj (.rodata.str1.1)
                  701262d8    00000135     drivers.am64x.r5f.ti-arm-clang.release.lib : uart_v0.obj (.rodata.str1.1)
                  7012640d    00000003     TI_DebugLogger.obj (.rodata.str1.1)
                  70126410    0000012c     drivers.am64x.r5f.ti-arm-clang.release.lib : sciclient_fmwSecureProxyMap.obj (.rodata.gSciclientMap)
                  7012653c    0000010d     freertos.am64x.r5f.ti-arm-clang.release.lib : TimerP.obj (.rodata.str1.1)
                  70126649    0000010a                                                 : ClockP_freertos_r5.obj (.rodata.str1.1)
                  70126753    0000000d     libc++abi.a : stdlib_exception.cpp.obj (.rodata._ZTSSt9exception)
                  70126760    00000101     libc.a : aeabi_ctype.S.obj (.rodata)
                  70126861    000000f6     embedded_kafka.obj (.rodata.str1.1)
                  70126957    000000da     freertos.am64x.r5f.ti-arm-clang.release.lib : SemaphoreP_freertos.obj (.rodata.str1.1)
                  70126a31    000000c8     libc++.a : charconv.cpp.obj (.rodata._ZNSt3__113__DIGIT_TABLEE)
                  70126af9    000000c8     Configurer.obj (.rodata._ZZN8nlohmann16json_abi_v3_11_26detail10serializerINS0_10basic_jsonINSt3__13mapENS4_6vectorENS4_12basic_stringIcNS4_11char_traitsIcEENS4_9allocatorIcEEEEbxydSA_NS0_14adl_serializerENS6_IhNSA_IhEEEEvEEE12dump_integerIhLi0EEEvT_E12digits_to_99)
                  70126bc1    000000c8     Configurer.obj (.rodata._ZZN8nlohmann16json_abi_v3_11_26detail10serializerINS0_10basic_jsonINSt3__13mapENS4_6vectorENS4_12basic_stringIcNS4_11char_traitsIcEENS4_9allocatorIcEEEEbxydSA_NS0_14adl_serializerENS6_IhNSA_IhEEEEvEEE12dump_integerIxLi0EEEvT_E12digits_to_99)
                  70126c89    000000c8     Configurer.obj (.rodata._ZZN8nlohmann16json_abi_v3_11_26detail10serializerINS0_10basic_jsonINSt3__13mapENS4_6vectorENS4_12basic_stringIcNS4_11char_traitsIcEENS4_9allocatorIcEEEEbxydSA_NS0_14adl_serializerENS6_IhNSA_IhEEEEvEEE12dump_integerIyLi0EEEvT_E12digits_to_99)
                  70126d51    000000ae     TopicFactory.obj (.rodata.str1.1)
                  70126dff    00000001     Configurer.obj (.rodata._ZNSt3__1L19piecewise_constructE)
                  70126e00    00000080     libc.a : strtod.c.obj (.rodata.digits)
                  70126e80    00000076     RPMessageCommunication.obj (.rodata.str1.1)
                  70126ef6    00000001     RealTopic.obj (.rodata._ZNSt3__1L19piecewise_constructE)
                  70126ef7    00000001     --HOLE-- [fill = 0]
                  70126ef8    00000070     ti_dpl_config.obj (.rodata.gMpuRegionConfig)
                  70126f68    0000005d     freertos.am64x.r5f.ti-arm-clang.release.lib : port.obj (.rodata.str1.1)
                  70126fc5    00000003     --HOLE-- [fill = 0]
                  70126fc8    00000050                                                 : printf.obj (.rodata._ftoa.pow10)
                  70127018    00000050     drivers.am64x.r5f.ti-arm-clang.release.lib : ipc_rpmsg_vring.obj (.rodata.str1.1)
                  70127068    0000004b                                                : uart_dma.obj (.rodata.str1.1)
                  701270b3    00000005     Configurer.obj (.rodata..L__const._ZN8nlohmann16json_abi_v3_11_26detail5lexerINS0_10basic_jsonINSt3__13mapENS4_6vectorENS4_12basic_stringIcNS4_11char_traitsIcEENS4_9allocatorIcEEEEbxydSA_NS0_14adl_serializerENS6_IhNSA_IhEEEEvEENS1_22iterator_input_adapterIPcEEE4scanEv.false_literal)
                  701270b8    00000048     libc.a : strtod.c.obj (.rodata.powerof10)
                  70127100    00000046     ti_drivers_open_close.obj (.rodata.str1.1)
                  70127146    00000045     libc.a : aeabi_portable.c.obj (.rodata.str1.1)
                  7012718b    00000001     --HOLE-- [fill = 0]
                  7012718c    00000044     Configurer.obj (.rodata..Lswitch.table._ZN8nlohmann16json_abi_v3_11_26detail10lexer_baseINS0_10basic_jsonINSt3__13mapENS4_6vectorENS4_12basic_stringIcNS4_11char_traitsIcEENS4_9allocatorIcEEEEbxydSA_NS0_14adl_serializerENS6_IhNSA_IhEEEEvEEE15token_type_nameENSH_10token_typeE)
                  701271d0    00000042     ti_drivers_config.obj (.rodata.str1.1)
                  70127212    0000003f     libc++abi.a : cxa_virtual.cpp.obj (.rodata.str1.1)
                  70127251    0000003f     main.obj (.rodata.str1.1)
                  70127290    0000002d     freertos.am64x.r5f.ti-arm-clang.release.lib : DebugP_log.obj (.rodata.str1.1)
                  701272bd    00000003     --HOLE-- [fill = 0]
                  701272c0    00000028     libc++.a : string.cpp.obj (.rodata._ZNSt3__16__itoaL10__pow10_32E)
                  701272e8    00000028     libc++abi.a : private_typeinfo.cpp.obj (.rodata._ZTVN10__cxxabiv117__class_type_infoE)
                  70127310    00000028                 : private_typeinfo.cpp.obj (.rodata._ZTVN10__cxxabiv120__si_class_type_infoE)
                  70127338    00000025                 : private_typeinfo.cpp.obj (.rodata._ZTSN10__cxxabiv120__si_class_type_infoE)
                  7012735d    00000003     --HOLE-- [fill = 0]
                  70127360    00000024     TopicProxy.obj (.rodata._ZTV10TopicProxy)
                  70127384    00000024     RealTopic.obj (.rodata._ZTV9RealTopic)
                  701273a8    00000022     libc++abi.a : private_typeinfo.cpp.obj (.rodata._ZTSN10__cxxabiv117__class_type_infoE)
                  701273ca    00000022     libc.a : _printfi.c.obj (.rodata.str1.1)
                  701273ec    00000021     libc++abi.a : private_typeinfo.cpp.obj (.rodata._ZTSN10__cxxabiv116__shim_type_infoE)
                  7012740d    00000003     --HOLE-- [fill = 0]
                  70127410    00000020     Topic.obj (.rodata._ZTV5Topic)
                  70127430    0000001c     UDPEndpoint.obj (.rodata._ZTV11UDPEndpoint)
                  7012744c    0000001c     RPMessageEndpoint.obj (.rodata._ZTV17RPMessageEndpoint)
                  70127468    0000001c     Configurer.obj (.rodata._ZTVNSt3__120__shared_ptr_emplaceIN8nlohmann16json_abi_v3_11_26detail21output_string_adapterIcNS_12basic_stringIcNS_11char_traitsIcEENS_9allocatorIcEEEEEENS8_ISB_EEEE)
                  70127484    00000004     freertos.am64x.r5f.ti-arm-clang.release.lib : CacheP_armv7r.obj (.rodata.gCacheL1dCacheLineSize)
                  70127488    00000018     Configurer.obj (.rodata..Lconstinit.198)
                  701274a0    00000018     Configurer.obj (.rodata..Lconstinit.199)
                  701274b8    00000018     Configurer.obj (.rodata..Lconstinit.200)
                  701274d0    00000018     drivers.am64x.r5f.ti-arm-clang.release.lib : sciclient_soc_priv.obj (.rodata..Lswitch.table.Sciclient_getDevId)
                  701274e8    00000018     RPMessageCommunication.obj (.rodata._ZTV22RPMessageCommunication)
                  70127500    00000018     Configurer.obj (.rodata._ZTVN8nlohmann16json_abi_v3_11_26detail21output_string_adapterIcNSt3__112basic_stringIcNS3_11char_traitsIcEENS3_9allocatorIcEEEEEE)
                  70127518    00000015     freertos.am64x.r5f.ti-arm-clang.release.lib : DebugP_shmLogReader_freertos.obj (.rodata.str1.1)
                  7012752d    00000003     --HOLE-- [fill = 0]
                  70127530    00000014     Configurer.obj (.rodata._ZTVN8nlohmann16json_abi_v3_11_26detail11parse_errorE)
                  70127544    00000014     Configurer.obj (.rodata._ZTVN8nlohmann16json_abi_v3_11_26detail12out_of_rangeE)
                  70127558    00000014     Configurer.obj (.rodata._ZTVN8nlohmann16json_abi_v3_11_26detail9exceptionE)
                  7012756c    00000014     libc++abi.a : stdlib_stdexcept.cpp.obj (.rodata._ZTVSt13runtime_error)
                  70127580    00000012                 : stdlib_stdexcept.cpp.obj (.rodata._ZTSSt13runtime_error)
                  70127592    00000012     freertos.am64x.r5f.ti-arm-clang.release.lib : printf.obj (.rodata.str1.1)
                  701275a4    00000010     TI_DebugLogger.obj (.rodata._ZTV14TI_DebugLogger)
                  701275b4    00000004     freertos.am64x.r5f.ti-arm-clang.release.lib : CacheP_armv7r.obj (.rodata.gCacheL1pCacheLineSize)
                  701275b8    00000010     UDPEndpoint.obj (.rodata.cst16)
                  701275c8    0000000d     libc++abi.a : stdlib_typeinfo.cpp.obj (.rodata._ZTSSt9type_info)
                  701275d5    00000003     --HOLE-- [fill = 0]
                  701275d8    0000000c     Configurer.obj (.rodata..Lswitch.table._ZN8nlohmann16json_abi_v3_11_26detail19json_sax_dom_parserINS0_10basic_jsonINSt3__13mapENS4_6vectorENS4_12basic_stringIcNS4_11char_traitsIcEENS4_9allocatorIcEEEEbxydSA_NS0_14adl_serializerENS6_IhNSA_IhEEEEvEEE11start_arrayEj)
                  701275e4    0000000c     libc++abi.a : private_typeinfo.cpp.obj (.rodata._ZTIN10__cxxabiv116__shim_type_infoE)
                  701275f0    0000000c                 : private_typeinfo.cpp.obj (.rodata._ZTIN10__cxxabiv117__class_type_infoE)
                  701275fc    0000000c                 : private_typeinfo.cpp.obj (.rodata._ZTIN10__cxxabiv120__si_class_type_infoE)
                  70127608    0000000c                 : stdlib_stdexcept.cpp.obj (.rodata._ZTISt13runtime_error)
                  70127614    0000000c     ti_dpl_config.obj (.rodata.gMpuConfig)
                  70127620    0000000a     Configurer.obj (.rodata.str1.8)
                  7012762a    00000002     --HOLE-- [fill = 0]
                  7012762c    00000008     libc++abi.a : stdlib_exception.cpp.obj (.rodata._ZTISt9exception)
                  70127634    00000008                 : stdlib_typeinfo.cpp.obj (.rodata._ZTISt9type_info)
                  7012763c    00000008     ti_dpl_config.obj (.rodata.gCacheConfig)
                  70127644    00000005     libc.a : setlocale.c.obj (.rodata.str1.1)
                  70127649    00000003     --HOLE-- [fill = 0]
                  7012764c    00000004     freertos.am64x.r5f.ti-arm-clang.release.lib : tasks.obj (.rodata.uxTopUsedPriority)

.bss       0    70127660    00008da0     UNINITIALIZED
                  70127660    00004000     main.obj (.bss.gMainTaskStack)
                  7012b660    00001008     (.common:gHwiCtrl)
                  7012c668    00000014     freertos.am64x.r5f.ti-arm-clang.release.lib : timers.obj (.bss.xActiveTimerList1)
                  7012c67c    00000004                                                 : DebugP_shmLogReader_freertos.obj (.bss.gDebugShmLogReaderTask)
                  7012c680    00001000                                                 : DebugP_shmLogReader_freertos.obj (.bss.gDebugShmLogReaderTaskStack)
                  7012d680    00001000                                                 : port.obj (.bss.uxIdleTaskStack)
                  7012e680    00000b2c     (.common:gIpcRpmsgCtrl)
                  7012f1ac    00000400                                                 : port.obj (.bss.uxTimerTaskStack)
                  7012f5ac    00000280     ti_drivers_config.obj (.bss.gUartObjects)
                  7012f82c    00000280     freertos.am64x.r5f.ti-arm-clang.release.lib : tasks.obj (.bss.pxReadyTasksLists)
                  7012faac    00000120     libsysbm.a : trgmsg.c.obj (.bss:_CIOBUF_)
                  7012fbcc    00000100     freertos.am64x.r5f.ti-arm-clang.release.lib : timers.obj (.bss.prvCheckForValidListAndQueue.ucStaticTimerQueueStorage)
                  7012fccc    00000100     (.common:xQueueRegistry)
                  7012fdcc    000000a8     (.common:gIpcNotifyCtrl)
                  7012fe74    000000a0     (.common:__TI_tmpnams)
                  7012ff14    00000004     main.obj (.bss.gMainTask)
                  7012ff18    000000a0     (.common:gTaskP_ctrl)
                  7012ffb8    00000098     freertos.am64x.r5f.ti-arm-clang.release.lib : DebugP_freertos.obj (.bss.gDebugLogLockObj)
                  70130050    00000094     (.common:gDebugShmLogReaderCtrl)
                  701300e4    0000008c                                                 : DebugP_shmLogReader_freertos.obj (.bss.gDebugShmLogReaderTaskObj)
                  70130170    0000008c                                                 : port.obj (.bss.xIdleTaskTCB)
                  701301fc    0000008c                                                 : port.obj (.bss.xTimerTaskTCB)
                  70130288    00000050                                                 : timers.obj (.bss.prvCheckForValidListAndQueue.xStaticTimerQueue)
                  701302d8    00000050     (.common:gRovDummyQueue)
                  70130328    00000038     (.common:gClockCtrl)
                  70130360    00000014                                                 : timers.obj (.bss.xActiveTimerList2)
                  70130374    00000014                                                 : tasks.obj (.bss.xDelayedTaskList1)
                  70130388    00000014                                                 : tasks.obj (.bss.xDelayedTaskList2)
                  7013039c    00000014                                                 : tasks.obj (.bss.xPendingReadyList)
                  701303b0    00000014                                                 : tasks.obj (.bss.xSuspendedTaskList)
                  701303c4    00000014                                                 : tasks.obj (.bss.xTasksWaitingTermination)
                  701303d8    00000008     (.common:parmbuf)
                  701303e0    00000004                                                 : HwiP_armv7r_handlers_freertos.obj (.bss.gdummy)
                  701303e4    00000004                                                 : HwiP_armv7r_vim.obj (.bss.gdummy)
                  701303e8    00000004                                                 : timers.obj (.bss.pxCurrentTimerList)
                  701303ec    00000004                                                 : tasks.obj (.bss.pxDelayedTaskList)
                  701303f0    00000004                                                 : tasks.obj (.bss.pxOverflowDelayedTaskList)
                  701303f4    00000004                                                 : timers.obj (.bss.pxOverflowTimerList)
                  701303f8    00000004     libc.a : memory.c.obj (.bss.sys_free)
                  701303fc    00000004     (.common:gUartHandle)

.sysmem    0    70130400    00008000     UNINITIALIZED
                  70130400    00000010     libc.a : memory.c.obj (.sysmem)
                  70130410    00007ff0     --HOLE--

.stack     0    70138400    00004000     UNINITIALIZED
                  70138400    00000004     freertos.am64x.r5f.ti-arm-clang.release.lib : boot_armv7r_asm.obj (.stack)
                  70138404    00003ffc     --HOLE--

.text.hwi 
*          0    7013c400    000008d0     
                  7013c400    00000452     freertos.am64x.r5f.ti-arm-clang.release.lib : HwiP_armv7r_vim.obj (.text.hwi)
                  7013c852    00000002     --HOLE-- [fill = 0]
                  7013c854    00000008                                                 : HwiP_armv7r_asm.obj (.tramp.HwiP_enableFIQ.1)
                  7013c85c    00000004     --HOLE-- [fill = 0]
                  7013c860    0000020e                                                 : HwiP_armv7r_handlers_freertos.obj (.text.hwi)
                  7013ca6e    00000002     --HOLE-- [fill = 0]
                  7013ca70    000001ec                                                 : portASM.obj (.text.hwi)
                  7013cc5c    00000070                                                 : HwiP_armv7r_asm.obj (.text.hwi)
                  7013cccc    00000004     --HOLE-- [fill = 0]

.text.cache 
*          0    7013ccd0    00000450     
                  7013ccd0    00000340     freertos.am64x.r5f.ti-arm-clang.release.lib : CacheP_armv7r_asm.obj (.text.cache)
                  7013d010    000000f6                                                 : CacheP_armv7r.obj (.text.cache)
                  7013d106    00000002     --HOLE-- [fill = 0]
                  7013d108    00000008                                                 : CacheP_armv7r_asm.obj (.tramp.CacheP_enableL1p.1)
                  7013d110    00000008                                                 : HwiP_armv7r_asm.obj (.tramp.HwiP_restore.1)
                  7013d118    00000008                                                 : CacheP_armv7r_asm.obj (.tramp.CacheP_invL1d.1)

.text.mpu 
*          0    7013d120    00000240     
                  7013d120    000001b4     freertos.am64x.r5f.ti-arm-clang.release.lib : MpuP_armv7r.obj (.text.mpu)
                  7013d2d4    00000008                                                 : HwiP_armv7r_asm.obj (.tramp.HwiP_restore.2)
                  7013d2dc    00000008                                                 : MpuP_armv7r_asm.obj (.tramp.MpuP_isEnableAsm.1)
                  7013d2e4    00000078                                                 : MpuP_armv7r_asm.obj (.text.mpu)
                  7013d35c    00000004     --HOLE-- [fill = 0]

.text.boot 
*          0    7013d360    00000130     
                  7013d360    000000fc     freertos.am64x.r5f.ti-arm-clang.release.lib : boot_armv7r_asm.obj (.text.boot)
                  7013d45c    00000004     --HOLE-- [fill = 0]
                  7013d460    0000001e                                                 : DebugP_log.obj (.text.boot)
                  7013d47e    00000002     --HOLE-- [fill = 0]
                  7013d480    0000000e     ti_dpl_config.obj (.text.boot)
                  7013d48e    00000002     --HOLE-- [fill = 0]

.text:abort 
*          0    7013d490    00000008     
                  7013d490    00000008     libc.a : exit.c.obj (.text:abort)

.data      0    7013d498    00000698     
                  7013d498    000000f0     libc.a : defs.c.obj (.data._ftable)
                  7013d588    000000c0     EndpointFactory.obj (.data._ZL9msgObject)
                  7013d648    0000009c     drivers.am64x.r5f.ti-arm-clang.release.lib : uart_v0.obj (.data.gUartDrvObj)
                  7013d6e4    00000093                                                : ipc_notify_v0_cfg.obj (.data.gIpcNotifyMailboxConfig)
                  7013d777    00000001                                                : sciclient.obj (.data.gSecHeaderSizeWords)
                  7013d778    0000008c     main.obj (.data.gMainTaskObj)
                  7013d804    00000078     libsysbm.a : host_device.c.obj (.data._device)
                  7013d87c    00000060     drivers.am64x.r5f.ti-arm-clang.release.lib : ipc_notify_v0_cfg.obj (.data.gIpcNotifyInterruptConfig_r5fss1_0)
                  7013d8dc    00000054     ti_drivers_open_close.obj (.data.gUartParams)
                  7013d930    00000050     libsysbm.a : host_device.c.obj (.data._stream)
                  7013d980    00000038     libc.a : setlocale.c.obj (.data.C_locale)
                  7013d9b8    00000024     drivers.am64x.r5f.ti-arm-clang.release.lib : ipc_notify_v0_cfg.obj (.data.gIpcNotifyMailboxBaseAddr)
                  7013d9dc    00000004     freertos.am64x.r5f.ti-arm-clang.release.lib : tasks.obj (.data.FreeRTOS_errno)
                  7013d9e0    00000020     drivers.am64x.r5f.ti-arm-clang.release.lib : sciclient_soc_priv.obj (.data.gSciclientSecProxyCfg)
                  7013da00    00000018     ti_pinmux_config.obj (.data.gPinMuxMainDomainCfg)
                  7013da18    00000018     ti_power_clock_config.obj (.data.gSocModulesClockFrequency)
                  7013da30    00000014     ti_dpl_config.obj (.data.gClockConfig)
                  7013da44    00000004     EndpointFactory.obj (.data._ZN15EndpointFactory12freeEndpointE)
                  7013da48    0000000c     freertos.am64x.r5f.ti-arm-clang.release.lib : AddrTranslateP.obj (.data.gAddrTranslateConfig)
                  7013da54    00000008     libc.a : exit.c.obj (.data..L_MergedGlobals)
                  7013da5c    00000008     ti_pinmux_config.obj (.data.gPinMuxMcuDomainCfg)
                  7013da64    00000008     ti_power_clock_config.obj (.data.gSocModules)
                  7013da6c    00000008     ti_drivers_config.obj (.data.gUartAttrs)
                  7013da74    00000008     ti_drivers_config.obj (.data.gUartConfig)
                  7013da7c    00000004     libc.a : defs.c.obj (.data.__TI_ft_end)
                  7013da80    00000008     freertos.am64x.r5f.ti-arm-clang.release.lib : PmuP_armv7r.obj (.data.pmu)
                  7013da88    00000008                                                 : TaskP_freertos.obj (.data.vApplicationLoadHook.lastUpdateTime)
                  7013da90    00000004     libc.a : aeabi_portable.c.obj (.data.__aeabi_errno)
                  7013da94    00000004     libc++abi.a : cxa_default_handlers.cpp.obj (.data.__cxa_new_handler)
                  7013da98    00000004     libc.a : _lock.c.obj (.data._lock)
                  7013da9c    00000004            : _lock.c.obj (.data._unlock)
                  7013daa0    00000004     freertos.am64x.r5f.ti-arm-clang.release.lib : DebugP_log.obj (.data.gDebugLogZone)
                  7013daa4    00000004                                                 : DebugP_uartLogWriter.obj (.data.gDebugP_uartDrvIndex)
                  7013daa8    00000004     ti_dpl_config.obj (.data.gHwiConfig)
                  7013daac    00000004     drivers.am64x.r5f.ti-arm-clang.release.lib : ipc_notify_v0_cfg.obj (.data.gIpcNotifyInterruptConfigNum_r5fss1_0)
                  7013dab0    00000004     embedded_kafka.obj (.data.gMsgEchoCount)
                  7013dab4    00000004     drivers.am64x.r5f.ti-arm-clang.release.lib : sciclient.obj (.data.gSciclientHandle.0)
                  7013dab8    00000004                                                : sciclient.obj (.data.gSciclientHandle.2)
                  7013dabc    00000004                                                : sciclient.obj (.data.gSciclientHandle.3)
                  7013dac0    00000004                                                : sciclient.obj (.data.gSciclientHandle.4)
                  7013dac4    00000004                                                : sciclient.obj (.data.gSciclientHandle.5)
                  7013dac8    00000004     ti_drivers_config.obj (.data.gUartConfigNum)
                  7013dacc    00000004     ti_drivers_config.obj (.data.gUartDmaConfigNum)
                  7013dad0    00000004     freertos.am64x.r5f.ti-arm-clang.release.lib : timers.obj (.data.prvSampleTimeNow.xLastTime)
                  7013dad4    00000004                                                 : tasks.obj (.data.pxCurrentTCB)
                  7013dad8    00000004                                                 : port.obj (.data.ulPortInterruptNesting)
                  7013dadc    00000004                                                 : port.obj (.data.ulPortSchedularRunning)
                  7013dae0    00000004                                                 : port.obj (.data.ulPortTaskHasFPUContext)
                  7013dae4    00000004                                                 : port.obj (.data.ulPortYieldRequired)
                  7013dae8    00000004                                                 : tasks.obj (.data.ulTaskSwitchedInTime)
                  7013daec    00000004                                                 : tasks.obj (.data.ulTotalRunTime)
                  7013daf0    00000004                                                 : tasks.obj (.data.uxCurrentNumberOfTasks)
                  7013daf4    00000004                                                 : tasks.obj (.data.uxDeletedTasksWaitingCleanUp)
                  7013daf8    00000004                                                 : tasks.obj (.data.uxSchedulerSuspended)
                  7013dafc    00000004                                                 : tasks.obj (.data.uxTaskNumber)
                  7013db00    00000004                                                 : tasks.obj (.data.uxTopReadyPriority)
                  7013db04    00000004                                                 : tasks.obj (.data.xIdleTaskHandle)
                  7013db08    00000004                                                 : tasks.obj (.data.xNextTaskUnblockTime)
                  7013db0c    00000004                                                 : tasks.obj (.data.xNumOfOverflows)
                  7013db10    00000004                                                 : tasks.obj (.data.xPendedTicks)
                  7013db14    00000004                                                 : tasks.obj (.data.xSchedulerRunning)
                  7013db18    00000004                                                 : tasks.obj (.data.xTickCount)
                  7013db1c    00000004                                                 : timers.obj (.data.xTimerQueue)
                  7013db20    00000004                                                 : timers.obj (.data.xTimerTaskHandle)
                  7013db24    00000004                                                 : tasks.obj (.data.xYieldPending)
                  7013db28    00000001                                                 : DebugP_freertos.obj (.data.gDebugLogIsInitDone)
                  7013db29    00000003     --HOLE-- [fill = 0]
                  7013db2c    00000001     libc.a : memory.c.obj (.data.memory_is_initialized)
                  7013db2d    00000003     --HOLE-- [fill = 0]

.irqstack 
*          0    7013db30    00000100     UNINITIALIZED
                  7013db30    00000100     --HOLE--

.fiqstack 
*          0    7013dc30    00000100     UNINITIALIZED
                  7013dc30    00000100     --HOLE--

.svcstack 
*          0    7013dd30    00001000     UNINITIALIZED
                  7013dd30    00001000     --HOLE--

.abortstack 
*          0    7013ed30    00000100     UNINITIALIZED
                  7013ed30    00000100     --HOLE--

.undefinedstack 
*          0    7013ee30    00000100     UNINITIALIZED
                  7013ee30    00000100     --HOLE--

.bss.log_shared_mem 
*          0    701d0080    00003800     NOLOAD SECTION
                  701d0080    00003800     ti_dpl_config.obj (.bss.log_shared_mem)

.bss.ipc_vring_mem 
*          0    701d4000    000099c0     NOLOAD SECTION
                  701d4000    000099c0     ti_drivers_config.obj (.bss.ipc_vring_mem)

.ARM.exidx 
*          0    00000040    00000008     
                  00000040    00000008     (.ARM.exidx.vectors:freertos.am64x.r5f.ti-arm-clang.release.lib<HwiP_armv7r_vectors_freertos_asm.obj>)

MODULE SUMMARY

       Module                                 code     ro data   rw data
       ------                                 ----     -------   -------
    obj/release/
       Configurer.obj                         44064    8503      0      
       ti_drivers_config.obj                  288      66        40024  
       main.obj                               146      63        16528  
       ti_dpl_config.obj                      96       132       14360  
       Broker.obj                             2276     5844      0      
       TopicProxy.obj                         2108     5767      0      
       SystemManager.obj                      1290     5663      0      
       TopicHandler.obj                       2348     1486      0      
       BrokerMetadata.obj                     1896     510       0      
       RealTopic.obj                          1386     402       0      
       ClusterMetadata.obj                    1270     477       0      
       TopicFactory.obj                       1446     174       0      
       embedded_kafka.obj                     1292     246       4      
       Record.obj                             1112     340       0      
       UDPEndpoint.obj                        1024     428       0      
       RPMessageEndpoint.obj                  776      435       0      
       ConsumerMetadata.obj                   580      360       0      
       ProducerMetadata.obj                   314      328       0      
       TopicMetadata.obj                      288      330       0      
       RPMessageCommunication.obj             430      142       0      
       EndpointFactory.obj                    122      0         196    
       Consumer.obj                           250      0         0      
       ti_drivers_open_close.obj              80       70        88     
       TI_DebugLogger.obj                     216      19        0      
       Producer.obj                           178      0         0      
       ti_power_clock_config.obj              114      0         32     
       Topic.obj                              78       32        0      
       CommunicationUtils.obj                 72       0         0      
       ti_pinmux_config.obj                   34       0         32     
       ProducerRecord.obj                     40       0         0      
       CommunicationFactory.obj               32       0         0      
       ti_board_open_close.obj                6        0         0      
       ti_board_config.obj                    2        0         0      
    +--+--------------------------------------+--------+---------+---------+
       Total:                                 65654    31817     71264  
                                                                        
    /home/thomas/ti/mcu_plus_sdk_am64x_08_05_00_24/source/drivers/lib/drivers.am64x.r5f.ti-arm-clang.release.lib
       ipc_rpmsg.obj                          1804     794       2860   
       uart_v0.obj                            3460     309       156    
       ipc_notify_v0.obj                      1434     381       168    
       sciclient.obj                          1270     0         21     
       ipc_rpmsg_vring.obj                    1124     80        0      
       sciclient_pm.obj                       1184     0         0      
       soc.obj                                544      0         0      
       uart_dma.obj                           254      75        0      
       sciclient_fmwSecureProxyMap.obj        0        300       0      
       ipc_notify_v0_cfg.obj                  0        0         283    
       pinmux.obj                             188      0         0      
       sciclient_soc_priv.obj                 104      24        32     
       csl_sec_proxy.obj                      10       0         0      
    +--+--------------------------------------+--------+---------+---------+
       Total:                                 11376    1963      3520   
                                                                        
    /home/thomas/ti/mcu_plus_sdk_am64x_08_05_00_24/source/kernel/freertos/lib/freertos.am64x.r5f.ti-arm-clang.release.lib
       tasks.obj                              4172     1979      812    
       port.obj                               356      93        5416   
       queue.obj                              3124     1878      256    
       HwiP_armv7r_vim.obj                    1106     0         4108   
       DebugP_shmLogReader_freertos.obj       80       21        4240   
       printf.obj                             3952     98        0      
       timers.obj                             1184     700       396    
       CacheP_armv7r_asm.obj                  848      0         0      
       TimerP.obj                             516      269       0      
       SemaphoreP_freertos.obj                370      218       80     
       ClockP_freertos_r5.obj                 318      266       0      
       HwiP_armv7r_handlers_freertos.obj      526      0         4      
       DebugP_shmLogReader.obj                362      0         148    
       portASM.obj                            492      0         0      
       MpuP_armv7r.obj                        436      0         0      
       TaskP_freertos.obj                     238      0         168    
       ClockP_freertos.obj                    216      0         56     
       DebugP_freertos.obj                    118      0         153    
       CacheP_armv7r.obj                      246      8         0      
       boot_armv7r_asm.obj                    252      0         0      
       DebugP_log.obj                         154      45        4      
       list.obj                               150      0         0      
       HwiP_armv7r_asm.obj                    144      0         0      
       MpuP_armv7r_asm.obj                    128      0         0      
       AddrTranslateP.obj                     104      0         12     
       PmuP_armv7r.obj                        100      0         8      
       DebugP_uartLogWriter.obj               70       0         4      
       HwiP_armv7r_vectors_freertos_asm.obj   64       0         0      
       PmuP_armv7r_asm.obj                    56       0         0      
       boot_armv7r.obj                        28       0         0      
       heap_3.obj                             26       0         0      
    +--+--------------------------------------+--------+---------+---------+
       Total:                                 19936    5575      15865  
                                                                        
    /home/thomas/ti/ti-cgt-armllvm_2.1.2.LTS/lib/armv7r-ti-none-eabihf/c/libc.a
       _printfi.c.obj                         6516     34        0      
       strtod.c.obj                           1228     200       0      
       memory.c.obj                           1172     0         5      
       strtoll.c.obj                          652      0         0      
       strtoull.c.obj                         560      0         0      
       fputs.c.obj                            420      0         0      
       defs.c.obj                             0        0         404    
       setvbuf.c.obj                          324      0         0      
       s_scalbn.c.obj                         320      0         0      
       getdevice.c.obj                        308      0         0      
       fflush.c.obj                           304      0         0      
       aeabi_ctype.S.obj                      0        257       0      
       snprintf.c.obj                         256      0         0      
       vsnprintf.c.obj                        240      0         0      
       aeabi_portable.c.obj                   156      69        4      
       fseek.c.obj                            184      0         0      
       fclose.c.obj                           180      0         0      
       _io_perm.c.obj                         156      0         0      
       sprintf.c.obj                          152      0         0      
       _ltoa.c.obj                            136      0         0      
       s_frexp.c.obj                          124      0         0      
       atoi.c.obj                             112      0         0      
       exit.c.obj                             92       0         8      
       fopen.c.obj                            88       0         0      
       autoinit.c.obj                         80       0         0      
       memmov.c.obj                           76       0         0      
       setlocale.c.obj                        12       5         56     
       memccpy.c.obj                          72       0         0      
       memcmp.c.obj                           64       0         0      
       assert.c.obj                           32       0         0      
       wcslen.c.obj                           32       0         0      
       strlen.c.obj                           28       0         0      
       _lock.c.obj                            4        0         8      
    +--+--------------------------------------+--------+---------+---------+
       Total:                                 14080    565       485    
                                                                        
    /home/thomas/ti/ti-cgt-armllvm_2.1.2.LTS/lib/armv7r-ti-none-eabihf/c/libsysbm.a
       trgmsg.c.obj                           176      0         288    
       hostrename.c.obj                       208      0         0      
       host_device.c.obj                      0        0         200    
       hostopen.c.obj                         148      0         8      
       hostlseek.c.obj                        152      0         0      
       close.c.obj                            140      0         0      
       hostread.c.obj                         132      0         0      
       hostwrite.c.obj                        132      0         0      
       hostunlink.c.obj                       108      0         0      
       hostclose.c.obj                        96       0         0      
       unlink.c.obj                           72       0         0      
       lseek.c.obj                            52       0         0      
       write.c.obj                            52       0         0      
       memcpy32.S.obj                         28       0         0      
       memset32.S.obj                         24       0         0      
       remove.c.obj                           4        0         0      
    +--+--------------------------------------+--------+---------+---------+
       Total:                                 1524     0         496    
                                                                        
    /home/thomas/ti/ti-cgt-armllvm_2.1.2.LTS/lib/armv7r-ti-none-eabihf/libc++.a
       string.cpp.obj                         3368     40        0      
       charconv.cpp.obj                       852      200       0      
       stdexcept.cpp.obj                      176      0         0      
       memory.cpp.obj                         64       0         0      
    +--+--------------------------------------+--------+---------+---------+
       Total:                                 4460     240       0      
                                                                        
    /home/thomas/ti/ti-cgt-armllvm_2.1.2.LTS/lib/armv7r-ti-none-eabihf/libc++abi.a
       private_typeinfo.cpp.obj               2292     220       0      
       stdlib_stdexcept.cpp.obj               188      50        0      
       stdlib_new_delete.cpp.obj              84       0         0      
       cxa_virtual.cpp.obj                    16       63        0      
       stdlib_exception.cpp.obj               12       21        0      
       stdlib_typeinfo.cpp.obj                4        21        0      
       cxa_handlers.cpp.obj                   16       0         0      
       abort_message.cpp.obj                  8        0         0      
       cxa_default_handlers.cpp.obj           0        0         4      
    +--+--------------------------------------+--------+---------+---------+
       Total:                                 2620     375       4      
                                                                        
    /home/thomas/ti/ti-cgt-armllvm_2.1.2.LTS/lib/clang/14.0.6/lib/armv7r-ti-none-eabihf/libclang_rt.builtins.a
       udivsi3.S.obj                          464      0         0      
       udivmoddi4.S.obj                       280      0         0      
       divsi3.S.obj                           44       0         0      
       aeabi_uldivmod.S.obj                   36       0         0      
       aeabi_memset.S.obj                     28       0         0      
       aeabi_div0.c.obj                       8        0         0      
       aeabi_memcpy.S.obj                     4        0         0      
       aeabi_memmove.S.obj                    4        0         0      
    +--+--------------------------------------+--------+---------+---------+
       Total:                                 868      0         0      
                                                                        
       Heap:                                  0        0         32768  
       Stack:                                 0        0         16384  
       Linker Generated:                      0        8         0      
    +--+--------------------------------------+--------+---------+---------+
       Grand Total:                           120518   40543     140786 

VENEERS

callee name               veneer name
   callee addr  veneer addr  call addr  call info
--------------  -----------  ---------  ----------------
HwiP_enableFIQ            $Ven$TA$L$PI$$HwiP_enableFIQ
   7013cc8c     7013c854     7013c83c   freertos.am64x.r5f.ti-arm-clang.release.lib : HwiP_armv7r_vim.obj (.text.hwi)
CacheP_enableL1p          $Ven$TA$L$PI$$CacheP_enableL1p
   7013cd28     7013d108     7013d07c   freertos.am64x.r5f.ti-arm-clang.release.lib : CacheP_armv7r.obj (.text.cache)
                             7013d0dc                                               : CacheP_armv7r.obj (.text.cache)
HwiP_restore              $Ven$TA$L$PI$$HwiP_restore
   7013cc9c     7013d110     7013d0b6   freertos.am64x.r5f.ti-arm-clang.release.lib : CacheP_armv7r.obj (.text.cache)
CacheP_invL1d             $Ven$TA$L$PI$$CacheP_invL1d
   7013cd40     7013d118     7013d102   freertos.am64x.r5f.ti-arm-clang.release.lib : CacheP_armv7r.obj (.text.cache)
HwiP_restore              $Ven$TA$L$PI$$HwiP_restore
   7013cc9c     7013d2d4     7013d214   freertos.am64x.r5f.ti-arm-clang.release.lib : MpuP_armv7r.obj (.text.mpu)
                             7013d24c                                               : MpuP_armv7r.obj (.text.mpu)
MpuP_isEnableAsm          $Ven$TA$L$PI$$MpuP_isEnableAsm
   7013d334     7013d2dc     7013d260   freertos.am64x.r5f.ti-arm-clang.release.lib : MpuP_armv7r.obj (.text.mpu)
_ZNSt3__112basic_stringIcNS_11char_traitsIcEENS_9allocatorIcEEEC1ERKS5_  $Ven$TA$L$PI$$_ZNSt3__112basic_stringIcNS_11char_traitsIcEENS_9allocatorIcEEEC1ERKS5_
   70114f70     701028b8     7011d570   TopicMetadata.obj (.text._ZN13TopicMetadataC2ENSt3__112basic_stringIcNS0_11char_traitsIcEENS0_9allocatorIcEEEE)
                             7011d5f0   Record.obj (.text._ZN6RecordC2ENSt3__112basic_stringIcNS0_11char_traitsIcEENS0_9allocatorIcEEEE)
_ZNKSt13runtime_error4whatEv  $Ven$TA$L$PI$$_ZNKSt13runtime_error4whatEv
   7011d3e0     70102dd8     7011d492   Configurer.obj (.text._ZNK8nlohmann16json_abi_v3_11_26detail9exception4whatEv)
_ZNSt3__112basic_stringIcNS_11char_traitsIcEENS_9allocatorIcEEE6appendEPKcj  $Ven$TA$L$PI$$_ZNSt3__112basic_stringIcNS_11char_traitsIcEENS_9allocatorIcEEE6appendEPKcj
   7010c9f0     70103c18     7011d482   Configurer.obj (.text._ZN8nlohmann16json_abi_v3_11_26detail21output_string_adapterIcNSt3__112basic_stringIcNS3_11char_traitsIcEENS3_9allocatorIcEEEEE16write_charactersEPKcj)
_ZNSt3__112basic_stringIcNS_11char_traitsIcEENS_9allocatorIcEEE9push_backEc  $Ven$TA$L$PI$$_ZNSt3__112basic_stringIcNS_11char_traitsIcEENS_9allocatorIcEEE9push_backEc
   701114e0     70104098     7011d472   Configurer.obj (.text._ZN8nlohmann16json_abi_v3_11_26detail21output_string_adapterIcNSt3__112basic_stringIcNS3_11char_traitsIcEENS3_9allocatorIcEEEEE15write_characterEc)
_ZNSt3__119__shared_weak_countD2Ev  $Ven$TA$L$PI$$_ZNSt3__119__shared_weak_countD2Ev
   7011d680     70105c38     7011d1fc   Configurer.obj (.text._ZNSt3__120__shared_ptr_emplaceIN8nlohmann16json_abi_v3_11_26detail21output_string_adapterIcNS_12basic_stringIcNS_11char_traitsIcEENS_9allocatorIcEEEEEENS8_ISB_EEED2Ev)
_ZNSt3__112basic_stringIcNS_11char_traitsIcEENS_9allocatorIcEEEaSERKS5_  $Ven$TA$L$PI$$_ZNSt3__112basic_stringIcNS_11char_traitsIcEENS_9allocatorIcEEEaSERKS5_
   701097b0     70106334     7011d0fc   Configurer.obj (.text._ZN8nlohmann16json_abi_v3_11_214adl_serializerINSt3__112basic_stringIcNS2_11char_traitsIcEENS2_9allocatorIcEEEEvE9from_jsonIRKNS0_10basic_jsonINS2_3mapENS2_6vectorES8_bxydS6_S1_NSD_IhNS6_IhEEEEvEES8_EEDTcmclL_ZNS0_12_GLOBAL__N_19from_jsonEEclsr3stdE7forwardIT_Efp_Efp0_Ecvv_EEOSK_RT0_)
_ZNSt9exceptionD2Ev       $Ven$TA$L$PI$$_ZNSt9exceptionD2Ev
   7011d6b0     70106694     7011c670   Configurer.obj (.text._ZN8nlohmann16json_abi_v3_11_26detail9exceptionD2Ev)
HwiP_enable               $Ven$TA$L$PI$$HwiP_enable
   7013cc7c     70107a28     701196ba   ti_dpl_config.obj (.text.Dpl_init)
PmuP_enableCounters       $Ven$TA$L$PI$$PmuP_enableCounters
   7011ba10     70108458     70117c20   freertos.am64x.r5f.ti-arm-clang.release.lib : PmuP_armv7r.obj (.text.pmu)
_ZdlPv                    $Ven$TA$L$PI$$_ZdlPv
   7011d6e0     70108b08     701173e2   Configurer.obj (.text._ZN8nlohmann16json_abi_v3_11_26detail5lexerINS0_10basic_jsonINSt3__13mapENS4_6vectorENS4_12basic_stringIcNS4_11char_traitsIcEENS4_9allocatorIcEEEEbxydSA_NS0_14adl_serializerENS6_IhNSA_IhEEEEvEENS1_22iterator_input_adapterIPKcEEE5resetEv)
                             701174c2   Configurer.obj (.text._ZN8nlohmann16json_abi_v3_11_26detail5lexerINS0_10basic_jsonINSt3__13mapENS4_6vectorENS4_12basic_stringIcNS4_11char_traitsIcEENS4_9allocatorIcEEEEbxydSA_NS0_14adl_serializerENS6_IhNSA_IhEEEEvEENS1_22iterator_input_adapterIPcEEE5resetEv)
                             7011a2ce   Configurer.obj (.text._ZNSt3__16__treeINS_12__value_typeINS_12basic_stringIcNS_11char_traitsIcEENS_9allocatorIcEEEEN8nlohmann16json_abi_v3_11_210basic_jsonINS_3mapENS_6vectorES7_bxydS5_NS9_14adl_serializerENSC_IhNS5_IhEEEEvEEEENS_19__map_value_compareIS7_SH_NS_4lessIvEELb1EEENS5_ISH_EEE7destroyEPNS_11__tree_nodeISH_PvEE)
                             7011bd28   RPMessageCommunication.obj (.text._ZN22RPMessageCommunicationD0Ev)
                             7011c236   Configurer.obj (.text._ZNSt3__116allocator_traitsINS_9allocatorINS_11__tree_nodeINS_12__value_typeINS_12basic_stringIcNS_11char_traitsIcEENS1_IcEEEEN8nlohmann16json_abi_v3_11_210basic_jsonINS_3mapENS_6vectorES8_bxydS1_NSA_14adl_serializerENSD_IhNS1_IhEEEEvEEEEPvEEEEE7destroyINS_4pairIKS8_SH_EEvvEEvRSL_PT_)
                             7011c2f4   TopicProxy.obj (.text._ZN10TopicProxyD0Ev)
                             7011c354   Configurer.obj (.text._ZN8nlohmann16json_abi_v3_11_26detail11parse_errorD0Ev)
                             7011c384   Configurer.obj (.text._ZN8nlohmann16json_abi_v3_11_26detail12out_of_rangeD0Ev)
                             7011c3b4   Configurer.obj (.text._ZN8nlohmann16json_abi_v3_11_26detail9exceptionD0Ev)
                             7011c92c   TopicHandler.obj (.text._ZNSt3__16__treeINS_12__value_typeI16ConsumerMetadataiEENS_19__map_value_compareIS2_S3_NS_4lessIS2_EELb1EEENS_9allocatorIS3_EEE7destroyEPNS_11__tree_nodeIS3_PvEE)
                             7011ced6   Configurer.obj (.text._ZNSt3__120__shared_ptr_emplaceIN8nlohmann16json_abi_v3_11_26detail21output_string_adapterIcNS_12basic_stringIcNS_11char_traitsIcEENS_9allocatorIcEEEEEENS8_ISB_EEED0Ev)
                             7011d25a   RealTopic.obj (.text._ZN9RealTopicD0Ev)
                             7011d560   UDPEndpoint.obj (.text._ZN11UDPEndpointD0Ev)
                             7011d5e0   RPMessageEndpoint.obj (.text._ZN17RPMessageEndpointD0Ev)
                             7011d600   Configurer.obj (.text._ZN8nlohmann16json_abi_v3_11_26detail21output_string_adapterIcNSt3__112basic_stringIcNS3_11char_traitsIcEENS3_9allocatorIcEEEEED0Ev)
                             7011d690   Configurer.obj (.text._ZNSt3__120__shared_ptr_emplaceIN8nlohmann16json_abi_v3_11_26detail21output_string_adapterIcNS_12basic_stringIcNS_11char_traitsIcEENS_9allocatorIcEEEEEENS8_ISB_EEE21__on_zero_shared_weakEv)
__aeabi_assert            $Ven$TA$L$PI$$__aeabi_assert
   7011722c     70108d34     7010103e   Configurer.obj (.text._ZN8nlohmann16json_abi_v3_11_26detail10serializerINS0_10basic_jsonINSt3__13mapENS4_6vectorENS4_12basic_stringIcNS4_11char_traitsIcEENS4_9allocatorIcEEEEbxydSA_NS0_14adl_serializerENS6_IhNSA_IhEEEEvEEE4dumpERKSG_bbjj)
                             7011576e   Configurer.obj (.text._ZNK8nlohmann16json_abi_v3_11_210basic_jsonINSt3__13mapENS2_6vectorENS2_12basic_stringIcNS2_11char_traitsIcEENS2_9allocatorIcEEEEbxydS8_NS0_14adl_serializerENS4_IhNS8_IhEEEEvE16assert_invariantEb)

[17 trampolines]
[36 trampoline calls]


GLOBAL SYMBOLS: SORTED ALPHABETICALLY BY Name 

address   name                                                                                                                                                                                                                                                                                                                                                                                                                                           
-------   ----                                                                                                                                                                                                                                                                                                                                                                                                                                           
00000040  .ARM.exidx$$Base                                                                                                                                                                                                                                                                                                                                                                                                                               
00000048  .ARM.exidx$$Limit                                                                                                                                                                                                                                                                                                                                                                                                                              
70117541  AddrTranslateP_getLocalAddr                                                                                                                                                                                                                                                                                                                                                                                                                    
7011d721  Board_driversClose                                                                                                                                                                                                                                                                                                                                                                                                                             
7011d4c1  Board_driversOpen                                                                                                                                                                                                                                                                                                                                                                                                                              
7011d731  Board_init                                                                                                                                                                                                                                                                                                                                                                                                                                     
7013d490  C$$EXIT                                                                                                                                                                                                                                                                                                                                                                                                                                        
70118934  C$$IO$$                                                                                                                                                                                                                                                                                                                                                                                                                                        
7011d2f1  CSL_secProxyGetDataAddr                                                                                                                                                                                                                                                                                                                                                                                                                        
7013cfe0  CacheP_configForceWrThru                                                                                                                                                                                                                                                                                                                                                                                                                       
7013d081  CacheP_disable                                                                                                                                                                                                                                                                                                                                                                                                                                 
7013ccd0  CacheP_disableL1d                                                                                                                                                                                                                                                                                                                                                                                                                              
7013ccf8  CacheP_disableL1p                                                                                                                                                                                                                                                                                                                                                                                                                              
7013d0c1  CacheP_enable                                                                                                                                                                                                                                                                                                                                                                                                                                  
7013cd10  CacheP_enableL1d                                                                                                                                                                                                                                                                                                                                                                                                                               
7013cd28  CacheP_enableL1p                                                                                                                                                                                                                                                                                                                                                                                                                               
7013cfd4  CacheP_getCacheLevelInfo                                                                                                                                                                                                                                                                                                                                                                                                                       
7013cf9c  CacheP_getEnabled                                                                                                                                                                                                                                                                                                                                                                                                                              
7013d011  CacheP_init                                                                                                                                                                                                                                                                                                                                                                                                                                    
7013d0e1  CacheP_inv                                                                                                                                                                                                                                                                                                                                                                                                                                     
7013cd40  CacheP_invL1d                                                                                                                                                                                                                                                                                                                                                                                                                                  
7013cdb4  CacheP_invL1dAll                                                                                                                                                                                                                                                                                                                                                                                                                               
7013cd78  CacheP_invL1p                                                                                                                                                                                                                                                                                                                                                                                                                                  
7013cdbc  CacheP_invL1pAll                                                                                                                                                                                                                                                                                                                                                                                                                               
7013d000  CacheP_setDLFO                                                                                                                                                                                                                                                                                                                                                                                                                                 
7013cdc4  CacheP_wb                                                                                                                                                                                                                                                                                                                                                                                                                                      
7013ce3c  CacheP_wbAll                                                                                                                                                                                                                                                                                                                                                                                                                                   
7013ce00  CacheP_wbInv                                                                                                                                                                                                                                                                                                                                                                                                                                   
7013cee4  CacheP_wbInvAll                                                                                                                                                                                                                                                                                                                                                                                                                                
7013cefc  CacheP_wbInvAllAsm                                                                                                                                                                                                                                                                                                                                                                                                                             
7011d4d1  ClockP_getTicks                                                                                                                                                                                                                                                                                                                                                                                                                                
701198f1  ClockP_getTimeUsec                                                                                                                                                                                                                                                                                                                                                                                                                             
7011d4e1  ClockP_getTimerCount                                                                                                                                                                                                                                                                                                                                                                                                                           
7010f181  ClockP_init                                                                                                                                                                                                                                                                                                                                                                                                                                    
7011d1b1  ClockP_ticksToUsec                                                                                                                                                                                                                                                                                                                                                                                                                             
7011d4f1  ClockP_timerClearOverflowInt                                                                                                                                                                                                                                                                                                                                                                                                                   
7011ba61  ClockP_timerTickIsr                                                                                                                                                                                                                                                                                                                                                                                                                            
7011d0d1  ClockP_usecToTicks                                                                                                                                                                                                                                                                                                                                                                                                                             
7011b141  ClockP_usleep                                                                                                                                                                                                                                                                                                                                                                                                                                  
7011ba00  CycleCounterP_getCount32                                                                                                                                                                                                                                                                                                                                                                                                                       
70117bc1  CycleCounterP_init                                                                                                                                                                                                                                                                                                                                                                                                                             
70117bd1  CycleCounterP_nsToTicks                                                                                                                                                                                                                                                                                                                                                                                                                        
70117c01  CycleCounterP_reset                                                                                                                                                                                                                                                                                                                                                                                                                            
7011c9d1  DebugP_logZoneEnable                                                                                                                                                                                                                                                                                                                                                                                                                           
70114611  DebugP_shmLogReaderGetString                                                                                                                                                                                                                                                                                                                                                                                                                   
7011b6d1  DebugP_shmLogReaderInit                                                                                                                                                                                                                                                                                                                                                                                                                        
701193a1  DebugP_shmLogReaderTaskCreate                                                                                                                                                                                                                                                                                                                                                                                                                  
70114a71  DebugP_shmLogReaderTaskMain                                                                                                                                                                                                                                                                                                                                                                                                                    
7011ae81  DebugP_uartLogWriterPutChar                                                                                                                                                                                                                                                                                                                                                                                                                    
7011d281  DebugP_uartSetDrvIndex                                                                                                                                                                                                                                                                                                                                                                                                                         
70119671  Dpl_init                                                                                                                                                                                                                                                                                                                                                                                                                                       
7011d501  Drivers_open                                                                                                                                                                                                                                                                                                                                                                                                                                   
70119941  Drivers_uartOpen                                                                                                                                                                                                                                                                                                                                                                                                                               
7013d9dc  FreeRTOS_errno                                                                                                                                                                                                                                                                                                                                                                                                                                 
70117c94  HOSTclose                                                                                                                                                                                                                                                                                                                                                                                                                                      
70114d8c  HOSTlseek                                                                                                                                                                                                                                                                                                                                                                                                                                      
70115288  HOSTopen                                                                                                                                                                                                                                                                                                                                                                                                                                       
70116208  HOSTread                                                                                                                                                                                                                                                                                                                                                                                                                                       
701146b0  HOSTrename                                                                                                                                                                                                                                                                                                                                                                                                                                     
70117070  HOSTunlink                                                                                                                                                                                                                                                                                                                                                                                                                                     
7011628c  HOSTwrite                                                                                                                                                                                                                                                                                                                                                                                                                                      
7013c521  HwiP_Params_init                                                                                                                                                                                                                                                                                                                                                                                                                               
7013c4d1  HwiP_clearInt                                                                                                                                                                                                                                                                                                                                                                                                                                  
7013c541  HwiP_construct                                                                                                                                                                                                                                                                                                                                                                                                                                 
7013ca41  HwiP_data_abort_handler                                                                                                                                                                                                                                                                                                                                                                                                                        
7013c691  HwiP_destruct                                                                                                                                                                                                                                                                                                                                                                                                                                  
7013cc5c  HwiP_disable                                                                                                                                                                                                                                                                                                                                                                                                                                   
7013cc6c  HwiP_disableFIQ                                                                                                                                                                                                                                                                                                                                                                                                                                
7013c431  HwiP_disableInt                                                                                                                                                                                                                                                                                                                                                                                                                                
7013ccb4  HwiP_disableVIC                                                                                                                                                                                                                                                                                                                                                                                                                                
7013cc7c  HwiP_enable                                                                                                                                                                                                                                                                                                                                                                                                                                    
7013cc8c  HwiP_enableFIQ                                                                                                                                                                                                                                                                                                                                                                                                                                 
7013c401  HwiP_enableInt                                                                                                                                                                                                                                                                                                                                                                                                                                 
7013cca4  HwiP_enableVIC                                                                                                                                                                                                                                                                                                                                                                                                                                 
7013c8f1  HwiP_fiq_handler                                                                                                                                                                                                                                                                                                                                                                                                                               
7013ccc4  HwiP_getCPSR                                                                                                                                                                                                                                                                                                                                                                                                                                   
7013c841  HwiP_inISR                                                                                                                                                                                                                                                                                                                                                                                                                                     
7013c771  HwiP_init                                                                                                                                                                                                                                                                                                                                                                                                                                      
7013cb18  HwiP_irq_handler                                                                                                                                                                                                                                                                                                                                                                                                                               
7013c861  HwiP_irq_handler_c                                                                                                                                                                                                                                                                                                                                                                                                                             
7013c4f1  HwiP_post                                                                                                                                                                                                                                                                                                                                                                                                                                      
7013ca11  HwiP_prefetch_abort_handler                                                                                                                                                                                                                                                                                                                                                                                                                    
7013c9b1  HwiP_reserved_handler                                                                                                                                                                                                                                                                                                                                                                                                                          
7013cc9c  HwiP_restore                                                                                                                                                                                                                                                                                                                                                                                                                                   
7013c471  HwiP_restoreInt                                                                                                                                                                                                                                                                                                                                                                                                                                
7013caa8  HwiP_svc_handler                                                                                                                                                                                                                                                                                                                                                                                                                               
7013c9e1  HwiP_undefined_handler                                                                                                                                                                                                                                                                                                                                                                                                                         
7011ce21  IpcNotify_Params_init                                                                                                                                                                                                                                                                                                                                                                                                                          
7011cf21  IpcNotify_getConfig                                                                                                                                                                                                                                                                                                                                                                                                                            
7011d291  IpcNotify_getSelfCoreId                                                                                                                                                                                                                                                                                                                                                                                                                        
70105fc1  IpcNotify_init                                                                                                                                                                                                                                                                                                                                                                                                                                 
7011cf41  IpcNotify_isCoreEnabled                                                                                                                                                                                                                                                                                                                                                                                                                        
70112741  IpcNotify_isr                                                                                                                                                                                                                                                                                                                                                                                                                                  
7011aa41  IpcNotify_registerClient                                                                                                                                                                                                                                                                                                                                                                                                                       
701125b1  IpcNotify_sendMsg                                                                                                                                                                                                                                                                                                                                                                                                                              
7011cc31  IpcNotify_syncCallback                                                                                                                                                                                                                                                                                                                                                                                                                         
7011ba91  Module_clockEnable                                                                                                                                                                                                                                                                                                                                                                                                                             
7011b181  Module_clockSetFrequency                                                                                                                                                                                                                                                                                                                                                                                                                       
7013d121  MpuP_RegionAttrs_init                                                                                                                                                                                                                                                                                                                                                                                                                          
7013d221  MpuP_disable                                                                                                                                                                                                                                                                                                                                                                                                                                   
7013d2e4  MpuP_disableAsm                                                                                                                                                                                                                                                                                                                                                                                                                                
7013d2fc  MpuP_disableBRAsm                                                                                                                                                                                                                                                                                                                                                                                                                              
7013d1e1  MpuP_enable                                                                                                                                                                                                                                                                                                                                                                                                                                    
7013d30c  MpuP_enableAsm                                                                                                                                                                                                                                                                                                                                                                                                                                 
7013d324  MpuP_enableBRAsm                                                                                                                                                                                                                                                                                                                                                                                                                               
7013d271  MpuP_init                                                                                                                                                                                                                                                                                                                                                                                                                                      
7013d261  MpuP_isEnable                                                                                                                                                                                                                                                                                                                                                                                                                                  
7013d334  MpuP_isEnableAsm                                                                                                                                                                                                                                                                                                                                                                                                                               
7013d131  MpuP_setRegion                                                                                                                                                                                                                                                                                                                                                                                                                                 
7013d348  MpuP_setRegionAsm                                                                                                                                                                                                                                                                                                                                                                                                                              
70113321  Pinmux_config                                                                                                                                                                                                                                                                                                                                                                                                                                  
7011c7c1  Pinmux_init                                                                                                                                                                                                                                                                                                                                                                                                                                    
7011ba28  PmuP_clearOverflowStatus                                                                                                                                                                                                                                                                                                                                                                                                                       
7011ba18  PmuP_disableCounters                                                                                                                                                                                                                                                                                                                                                                                                                           
7011ba10  PmuP_enableCounters                                                                                                                                                                                                                                                                                                                                                                                                                            
7011ba20  PmuP_getOverflowStatus                                                                                                                                                                                                                                                                                                                                                                                                                         
7011ba08  PmuP_setup                                                                                                                                                                                                                                                                                                                                                                                                                                     
7011d241  PowerClock_init                                                                                                                                                                                                                                                                                                                                                                                                                                
7011d1c1  RPMessage_CreateParams_init                                                                                                                                                                                                                                                                                                                                                                                                                    
7011c2a1  RPMessage_Params_init                                                                                                                                                                                                                                                                                                                                                                                                                          
70119991  RPMessage_allocEndPtMsg                                                                                                                                                                                                                                                                                                                                                                                                                        
70116751  RPMessage_construct                                                                                                                                                                                                                                                                                                                                                                                                                            
7011bc71  RPMessage_controlEndPtHandler                                                                                                                                                                                                                                                                                                                                                                                                                  
70114e31  RPMessage_coreInit                                                                                                                                                                                                                                                                                                                                                                                                                             
7011a741  RPMessage_destruct                                                                                                                                                                                                                                                                                                                                                                                                                             
701178b1  RPMessage_getEndPtMsg                                                                                                                                                                                                                                                                                                                                                                                                                          
7011d511  RPMessage_getLocalEndPt                                                                                                                                                                                                                                                                                                                                                                                                                        
70111b81  RPMessage_init                                                                                                                                                                                                                                                                                                                                                                                                                                 
7011c4a1  RPMessage_isLinuxCore                                                                                                                                                                                                                                                                                                                                                                                                                          
70118cf1  RPMessage_notifyCallback                                                                                                                                                                                                                                                                                                                                                                                                                       
7010f2c1  RPMessage_recv                                                                                                                                                                                                                                                                                                                                                                                                                                 
70110591  RPMessage_recvHandler                                                                                                                                                                                                                                                                                                                                                                                                                          
70110ae1  RPMessage_send                                                                                                                                                                                                                                                                                                                                                                                                                                 
7011afc1  RPMessage_vringCheckEmptyTxBuf                                                                                                                                                                                                                                                                                                                                                                                                                 
701155a1  RPMessage_vringGetEmptyTxBuf                                                                                                                                                                                                                                                                                                                                                                                                                   
70113ea1  RPMessage_vringGetFullRxBuf                                                                                                                                                                                                                                                                                                                                                                                                                    
7011ce41  RPMessage_vringGetRxBufAddr                                                                                                                                                                                                                                                                                                                                                                                                                    
7011ce61  RPMessage_vringGetTxBufAddr                                                                                                                                                                                                                                                                                                                                                                                                                    
7011ccd1  RPMessage_vringGetTxBufLen                                                                                                                                                                                                                                                                                                                                                                                                                     
70118241  RPMessage_vringIsFullRxBuf                                                                                                                                                                                                                                                                                                                                                                                                                     
70114931  RPMessage_vringPutEmptyRxBuf                                                                                                                                                                                                                                                                                                                                                                                                                   
70117d61  RPMessage_vringPutFullTxBuf                                                                                                                                                                                                                                                                                                                                                                                                                    
701131a1  RPMessage_vringReset                                                                                                                                                                                                                                                                                                                                                                                                                           
70115931  RPMessage_vringResetInternal                                                                                                                                                                                                                                                                                                                                                                                                                   
7011bf41  SOC_controlModuleLockMMR                                                                                                                                                                                                                                                                                                                                                                                                                       
7011aa81  SOC_controlModuleUnlockMMR                                                                                                                                                                                                                                                                                                                                                                                                                     
7011c9f1  SOC_getSelfCpuClk                                                                                                                                                                                                                                                                                                                                                                                                                              
70116f91  SOC_moduleClockEnable                                                                                                                                                                                                                                                                                                                                                                                                                          
7010f7b1  SOC_moduleSetClockFrequency                                                                                                                                                                                                                                                                                                                                                                                                                    
701193f1  Sciclient_getContext                                                                                                                                                                                                                                                                                                                                                                                                                           
7011b001  Sciclient_getCurrentContext                                                                                                                                                                                                                                                                                                                                                                                                                    
7011cf61  Sciclient_getDevId                                                                                                                                                                                                                                                                                                                                                                                                                             
7011d2a1  Sciclient_getSelfDevIdCore                                                                                                                                                                                                                                                                                                                                                                                                                     
70114b11  Sciclient_init                                                                                                                                                                                                                                                                                                                                                                                                                                 
70117921  Sciclient_pmGetModuleClkFreq                                                                                                                                                                                                                                                                                                                                                                                                                   
701168d1  Sciclient_pmGetModuleClkNumParent                                                                                                                                                                                                                                                                                                                                                                                                              
70117991  Sciclient_pmGetModuleClkParent                                                                                                                                                                                                                                                                                                                                                                                                                 
70117001  Sciclient_pmGetModuleState                                                                                                                                                                                                                                                                                                                                                                                                                     
70117dc1  Sciclient_pmModuleClkRequest                                                                                                                                                                                                                                                                                                                                                                                                                   
70117b51  Sciclient_pmModuleGetClkStatus                                                                                                                                                                                                                                                                                                                                                                                                                 
701142b1  Sciclient_pmQueryModuleClkFreq                                                                                                                                                                                                                                                                                                                                                                                                                 
70115641  Sciclient_pmSetModuleClkFreq                                                                                                                                                                                                                                                                                                                                                                                                                   
70117e21  Sciclient_pmSetModuleClkParent                                                                                                                                                                                                                                                                                                                                                                                                                 
7011a1f1  Sciclient_pmSetModuleRst                                                                                                                                                                                                                                                                                                                                                                                                                       
70118f81  Sciclient_pmSetModuleState                                                                                                                                                                                                                                                                                                                                                                                                                     
70105c41  Sciclient_service                                                                                                                                                                                                                                                                                                                                                                                                                              
70116e41  SemaphoreP_constructBinary                                                                                                                                                                                                                                                                                                                                                                                                                     
70118fe1  SemaphoreP_constructMutex                                                                                                                                                                                                                                                                                                                                                                                                                      
7011d441  SemaphoreP_destruct                                                                                                                                                                                                                                                                                                                                                                                                                            
70118421  SemaphoreP_pend                                                                                                                                                                                                                                                                                                                                                                                                                                
70119041  SemaphoreP_post                                                                                                                                                                                                                                                                                                                                                                                                                                
701107b1  System_init                                                                                                                                                                                                                                                                                                                                                                                                                                    
7011cddc  TI_memcpy_small                                                                                                                                                                                                                                                                                                                                                                                                                                
7011d018  TI_memset_small                                                                                                                                                                                                                                                                                                                                                                                                                                
70113d41  TaskP_loadUpdateAll                                                                                                                                                                                                                                                                                                                                                                                                                            
7011d521  TaskP_yield                                                                                                                                                                                                                                                                                                                                                                                                                                    
7011ca11  TimerP_Params_init                                                                                                                                                                                                                                                                                                                                                                                                                             
7011d131  TimerP_clearOverflowInt                                                                                                                                                                                                                                                                                                                                                                                                                        
7011d531  TimerP_getCount                                                                                                                                                                                                                                                                                                                                                                                                                                
7011d541  TimerP_getReloadCount                                                                                                                                                                                                                                                                                                                                                                                                                          
7010ba81  TimerP_setup                                                                                                                                                                                                                                                                                                                                                                                                                                   
7011d301  TimerP_start                                                                                                                                                                                                                                                                                                                                                                                                                                   
7010e781  UART_close                                                                                                                                                                                                                                                                                                                                                                                                                                     
70118d51  UART_dmaClose                                                                                                                                                                                                                                                                                                                                                                                                                                  
70118ab1  UART_dmaDisableChannel                                                                                                                                                                                                                                                                                                                                                                                                                         
7011aec1  UART_dmaOpen                                                                                                                                                                                                                                                                                                                                                                                                                                   
70113841  UART_flushTxFifo                                                                                                                                                                                                                                                                                                                                                                                                                               
7011bac1  UART_getHandle                                                                                                                                                                                                                                                                                                                                                                                                                                 
70115321  UART_init                                                                                                                                                                                                                                                                                                                                                                                                                                      
70102de1  UART_open                                                                                                                                                                                                                                                                                                                                                                                                                                      
70109bd1  UART_write                                                                                                                                                                                                                                                                                                                                                                                                                                     
7011ce81  UART_writeInterruptDma                                                                                                                                                                                                                                                                                                                                                                                                                         
7012faac  _CIOBUF_                                                                                                                                                                                                                                                                                                                                                                                                                                       
70118001  _DebugP_assert                                                                                                                                                                                                                                                                                                                                                                                                                                 
7013d461  _DebugP_assertNoLog                                                                                                                                                                                                                                                                                                                                                                                                                            
70116bc1  _DebugP_logZone                                                                                                                                                                                                                                                                                                                                                                                                                                
701196c1  _Z10configurerii                                                                                                                                                                                                                                                                                                                                                                                                                               
7011d151  _Z13freertos_mainPv                                                                                                                                                                                                                                                                                                                                                                                                                            
701163a1  _Z18communication_mainPv                                                                                                                                                                                                                                                                                                                                                                                                                       
701150b1  _Z6brokerii                                                                                                                                                                                                                                                                                                                                                                                                                                    
70107a31  _Z6testeriiNSt3__112basic_stringIcNS_11char_traitsIcEENS_9allocatorIcEEEE                                                                                                                                                                                                                                                                                                                                                                      
7011d311  _Z7to_jsonRN8nlohmann16json_abi_v3_11_210basic_jsonINSt3__13mapENS2_6vectorENS2_12basic_stringIcNS2_11char_traitsIcEENS2_9allocatorIcEEEEbxydS8_NS0_14adl_serializerENS4_IhNS8_IhEEEEvEERK13TopicMetadata                                                                                                                                                                                                                                      
7011d321  _Z7to_jsonRN8nlohmann16json_abi_v3_11_210basic_jsonINSt3__13mapENS2_6vectorENS2_12basic_stringIcNS2_11char_traitsIcEENS2_9allocatorIcEEEEbxydS8_NS0_14adl_serializerENS4_IhNS8_IhEEEEvEERK14BrokerMetadata                                                                                                                                                                                                                                     
7011d331  _Z7to_jsonRN8nlohmann16json_abi_v3_11_210basic_jsonINSt3__13mapENS2_6vectorENS2_12basic_stringIcNS2_11char_traitsIcEENS2_9allocatorIcEEEEbxydS8_NS0_14adl_serializerENS4_IhNS8_IhEEEEvEERK16ConsumerMetadata                                                                                                                                                                                                                                   
7011d341  _Z7to_jsonRN8nlohmann16json_abi_v3_11_210basic_jsonINSt3__13mapENS2_6vectorENS2_12basic_stringIcNS2_11char_traitsIcEENS2_9allocatorIcEEEEbxydS8_NS0_14adl_serializerENS4_IhNS8_IhEEEEvEERK16ProducerMetadata                                                                                                                                                                                                                                   
70107f61  _ZN10Configurer14retrieveTopicsEv                                                                                                                                                                                                                                                                                                                                                                                                              
701028c1  _ZN10Configurer15handleOperationEPKcP8Endpoint                                                                                                                                                                                                                                                                                                                                                                                                 
70113261  _ZN10Configurer17initCommunicationEv                                                                                                                                                                                                                                                                                                                                                                                                           
70114c51  _ZN10Configurer5startEv                                                                                                                                                                                                                                                                                                                                                                                                                        
70105171  _ZN10Configurer9checkInitEv                                                                                                                                                                                                                                                                                                                                                                                                                    
70119c61  _ZN10ConfigurerC1E17CommunicationTypeRK8EndpointRK6Logger                                                                                                                                                                                                                                                                                                                                                                                      
70117621  _ZN10ConfigurerC1E17CommunicationTypeRK8EndpointRK6LoggerNSt3__112basic_stringIcNS7_11char_traitsIcEENS7_9allocatorIcEEEEb                                                                                                                                                                                                                                                                                                                     
70119c61  _ZN10ConfigurerC2E17CommunicationTypeRK8EndpointRK6Logger                                                                                                                                                                                                                                                                                                                                                                                      
70117621  _ZN10ConfigurerC2E17CommunicationTypeRK8EndpointRK6LoggerNSt3__112basic_stringIcNS7_11char_traitsIcEENS7_9allocatorIcEEEEb                                                                                                                                                                                                                                                                                                                     
70119711  _ZN10ConfigurerD1Ev                                                                                                                                                                                                                                                                                                                                                                                                                            
70119711  _ZN10ConfigurerD2Ev                                                                                                                                                                                                                                                                                                                                                                                                                            
7010d1a1  _ZN10TopicProxy11unsubscribeE16ConsumerMetadata                                                                                                                                                                                                                                                                                                                                                                                                
70108b11  _ZN10TopicProxy4pollE16ConsumerMetadata                                                                                                                                                                                                                                                                                                                                                                                                        
7011c4d1  _ZN10TopicProxy4readE16ConsumerMetadata                                                                                                                                                                                                                                                                                                                                                                                                        
7010c331  _ZN10TopicProxy7publishE16ProducerMetadata6Record                                                                                                                                                                                                                                                                                                                                                                                              
7010d311  _ZN10TopicProxy9subscribeE16ConsumerMetadata                                                                                                                                                                                                                                                                                                                                                                                                   
70116eb1  _ZN10TopicProxyC1E17CommunicationType14BrokerMetadata13TopicMetadataRK6Logger                                                                                                                                                                                                                                                                                                                                                                  
70116eb1  _ZN10TopicProxyC2E17CommunicationType14BrokerMetadata13TopicMetadataRK6Logger                                                                                                                                                                                                                                                                                                                                                                  
7011c2d1  _ZN10TopicProxyD0Ev                                                                                                                                                                                                                                                                                                                                                                                                                            
7011c621  _ZN10TopicProxyD1Ev                                                                                                                                                                                                                                                                                                                                                                                                                            
7011c621  _ZN10TopicProxyD2Ev                                                                                                                                                                                                                                                                                                                                                                                                                            
7011d550  _ZN10__cxxabiv116__enum_type_infoD1Ev                                                                                                                                                                                                                                                                                                                                                                                                          
7011d550  _ZN10__cxxabiv116__enum_type_infoD2Ev                                                                                                                                                                                                                                                                                                                                                                                                          
7011d550  _ZN10__cxxabiv116__shim_type_infoD1Ev                                                                                                                                                                                                                                                                                                                                                                                                          
7011d550  _ZN10__cxxabiv116__shim_type_infoD2Ev                                                                                                                                                                                                                                                                                                                                                                                                          
7011d550  _ZN10__cxxabiv117__array_type_infoD1Ev                                                                                                                                                                                                                                                                                                                                                                                                         
7011d550  _ZN10__cxxabiv117__array_type_infoD2Ev                                                                                                                                                                                                                                                                                                                                                                                                         
7011d1d0  _ZN10__cxxabiv117__class_type_infoD0Ev                                                                                                                                                                                                                                                                                                                                                                                                         
7011d550  _ZN10__cxxabiv117__class_type_infoD1Ev                                                                                                                                                                                                                                                                                                                                                                                                         
7011d550  _ZN10__cxxabiv117__class_type_infoD2Ev                                                                                                                                                                                                                                                                                                                                                                                                         
7011d550  _ZN10__cxxabiv117__pbase_type_infoD1Ev                                                                                                                                                                                                                                                                                                                                                                                                         
7011d550  _ZN10__cxxabiv117__pbase_type_infoD2Ev                                                                                                                                                                                                                                                                                                                                                                                                         
7011d550  _ZN10__cxxabiv119__pointer_type_infoD1Ev                                                                                                                                                                                                                                                                                                                                                                                                       
7011d550  _ZN10__cxxabiv119__pointer_type_infoD2Ev                                                                                                                                                                                                                                                                                                                                                                                                       
7011d550  _ZN10__cxxabiv120__function_type_infoD1Ev                                                                                                                                                                                                                                                                                                                                                                                                      
7011d550  _ZN10__cxxabiv120__function_type_infoD2Ev                                                                                                                                                                                                                                                                                                                                                                                                      
7011d1e0  _ZN10__cxxabiv120__si_class_type_infoD0Ev                                                                                                                                                                                                                                                                                                                                                                                                      
7011d550  _ZN10__cxxabiv120__si_class_type_infoD1Ev                                                                                                                                                                                                                                                                                                                                                                                                      
7011d550  _ZN10__cxxabiv120__si_class_type_infoD2Ev                                                                                                                                                                                                                                                                                                                                                                                                      
7011d550  _ZN10__cxxabiv121__vmi_class_type_infoD1Ev                                                                                                                                                                                                                                                                                                                                                                                                     
7011d550  _ZN10__cxxabiv121__vmi_class_type_infoD2Ev                                                                                                                                                                                                                                                                                                                                                                                                     
7011d550  _ZN10__cxxabiv123__fundamental_type_infoD1Ev                                                                                                                                                                                                                                                                                                                                                                                                   
7011d550  _ZN10__cxxabiv123__fundamental_type_infoD2Ev                                                                                                                                                                                                                                                                                                                                                                                                   
7011d550  _ZN10__cxxabiv129__pointer_to_member_type_infoD1Ev                                                                                                                                                                                                                                                                                                                                                                                             
7011d550  _ZN10__cxxabiv129__pointer_to_member_type_infoD2Ev                                                                                                                                                                                                                                                                                                                                                                                             
701153c1  _ZN11UDPEndpoint9from_jsonERKN8nlohmann16json_abi_v3_11_210basic_jsonINSt3__13mapENS3_6vectorENS3_12basic_stringIcNS3_11char_traitsIcEENS3_9allocatorIcEEEEbxydS9_NS1_14adl_serializerENS5_IhNS9_IhEEEEvEE                                                                                                                                                                                                                                     
7011bca1  _ZN11UDPEndpointC1Ev                                                                                                                                                                                                                                                                                                                                                                                                                           
7011bca1  _ZN11UDPEndpointC2Ev                                                                                                                                                                                                                                                                                                                                                                                                                           
7011d561  _ZN11UDPEndpointD0Ev                                                                                                                                                                                                                                                                                                                                                                                                                           
7011d741  _ZN11UDPEndpointD1Ev                                                                                                                                                                                                                                                                                                                                                                                                                           
7011d741  _ZN11UDPEndpointD2Ev                                                                                                                                                                                                                                                                                                                                                                                                                           
7010af81  _ZN12TopicFactory12createTopicsEv                                                                                                                                                                                                                                                                                                                                                                                                              
7011bf71  _ZN12TopicFactory26retrieveClusterInformationEv                                                                                                                                                                                                                                                                                                                                                                                                
7011d451  _ZN12TopicFactory8askForIDEv                                                                                                                                                                                                                                                                                                                                                                                                                   
7011b041  _ZN12TopicFactory8getTopicE13TopicMetadata                                                                                                                                                                                                                                                                                                                                                                                                     
70112271  _ZN12TopicFactory9findTopicE13TopicMetadata                                                                                                                                                                                                                                                                                                                                                                                                    
70118481  _ZN12TopicFactoryC1E17CommunicationTypeRK6Logger14BrokerMetadata                                                                                                                                                                                                                                                                                                                                                                               
70118481  _ZN12TopicFactoryC2E17CommunicationTypeRK6Logger14BrokerMetadata                                                                                                                                                                                                                                                                                                                                                                               
7011cc51  _ZN12TopicFactoryD1Ev                                                                                                                                                                                                                                                                                                                                                                                                                          
7011cc51  _ZN12TopicFactoryD2Ev                                                                                                                                                                                                                                                                                                                                                                                                                          
70119b21  _ZN12TopicHandler11unsubscribeE16ConsumerMetadata13TopicMetadata                                                                                                                                                                                                                                                                                                                                                                               
70111d61  _ZN12TopicHandler14findTopicIndexE13TopicMetadata                                                                                                                                                                                                                                                                                                                                                                                              
70113901  _ZN12TopicHandler15addHandledTopicE13TopicMetadata                                                                                                                                                                                                                                                                                                                                                                                             
70110111  _ZN12TopicHandler4pollE16ConsumerMetadata13TopicMetadata                                                                                                                                                                                                                                                                                                                                                                                       
7010cd21  _ZN12TopicHandler4saveE6Record13TopicMetadata16ProducerMetadata                                                                                                                                                                                                                                                                                                                                                                                
70119b71  _ZN12TopicHandler9subscribeE16ConsumerMetadata13TopicMetadata                                                                                                                                                                                                                                                                                                                                                                                  
7011bcd1  _ZN12TopicHandlerC1E17CommunicationTypeRK6LoggerP13Communication                                                                                                                                                                                                                                                                                                                                                                               
7011bcd1  _ZN12TopicHandlerC2E17CommunicationTypeRK6LoggerP13Communication                                                                                                                                                                                                                                                                                                                                                                               
7011cf81  _ZN12TopicHandlerD1Ev                                                                                                                                                                                                                                                                                                                                                                                                                          
7011cf81  _ZN12TopicHandlerD2Ev                                                                                                                                                                                                                                                                                                                                                                                                                          
7010db91  _ZN13SystemManager4initEv                                                                                                                                                                                                                                                                                                                                                                                                                      
7010d481  _ZN13SystemManager8askForIDEv                                                                                                                                                                                                                                                                                                                                                                                                                  
70119cb1  _ZN13SystemManagerC1E17CommunicationTypeRK6Logger14BrokerMetadata                                                                                                                                                                                                                                                                                                                                                                              
70119cb1  _ZN13SystemManagerC2E17CommunicationTypeRK6Logger14BrokerMetadata                                                                                                                                                                                                                                                                                                                                                                              
7011bfa1  _ZN13SystemManagerD1Ev                                                                                                                                                                                                                                                                                                                                                                                                                         
7011bfa1  _ZN13SystemManagerD2Ev                                                                                                                                                                                                                                                                                                                                                                                                                         
7011ac01  _ZN13TopicMetadata9from_jsonERKN8nlohmann16json_abi_v3_11_210basic_jsonINSt3__13mapENS3_6vectorENS3_12basic_stringIcNS3_11char_traitsIcEENS3_9allocatorIcEEEEbxydS9_NS1_14adl_serializerENS5_IhNS9_IhEEEEvEE                                                                                                                                                                                                                                   
7011d571  _ZN13TopicMetadataC1ENSt3__112basic_stringIcNS0_11char_traitsIcEENS0_9allocatorIcEEEE                                                                                                                                                                                                                                                                                                                                                          
7011d351  _ZN13TopicMetadataC1Ev                                                                                                                                                                                                                                                                                                                                                                                                                         
7011d571  _ZN13TopicMetadataC2ENSt3__112basic_stringIcNS0_11char_traitsIcEENS0_9allocatorIcEEEE                                                                                                                                                                                                                                                                                                                                                          
7011d351  _ZN13TopicMetadataC2Ev                                                                                                                                                                                                                                                                                                                                                                                                                         
7011d581  _ZN14BrokerMetadata11setEndpointEP8Endpoint                                                                                                                                                                                                                                                                                                                                                                                                    
7011ca31  _ZN14BrokerMetadata16addTopicMetadataE13TopicMetadata                                                                                                                                                                                                                                                                                                                                                                                          
7010a3d1  _ZN14BrokerMetadata9from_jsonERKN8nlohmann16json_abi_v3_11_210basic_jsonINSt3__13mapENS3_6vectorENS3_12basic_stringIcNS3_11char_traitsIcEENS3_9allocatorIcEEEEbxydS9_NS1_14adl_serializerENS5_IhNS9_IhEEEEvEE                                                                                                                                                                                                                                  
7011d2b1  _ZN14BrokerMetadataC1EP8Endpoint                                                                                                                                                                                                                                                                                                                                                                                                               
7011d361  _ZN14BrokerMetadataC1Ev                                                                                                                                                                                                                                                                                                                                                                                                                        
7011d2b1  _ZN14BrokerMetadataC2EP8Endpoint                                                                                                                                                                                                                                                                                                                                                                                                               
7011d361  _ZN14BrokerMetadataC2Ev                                                                                                                                                                                                                                                                                                                                                                                                                        
7011d031  _ZN14ProducerRecordC1E13TopicMetadata6Record                                                                                                                                                                                                                                                                                                                                                                                                   
7011d031  _ZN14ProducerRecordC2E13TopicMetadata6Record                                                                                                                                                                                                                                                                                                                                                                                                   
70115b71  _ZN15ClusterMetadata17addBrokerMetadataE14BrokerMetadata                                                                                                                                                                                                                                                                                                                                                                                       
7011d3c1  _ZN15ClusterMetadata18getBrokersMetadataEv                                                                                                                                                                                                                                                                                                                                                                                                     
7010cea1  _ZN15ClusterMetadata9from_jsonERKN8nlohmann16json_abi_v3_11_210basic_jsonINSt3__13mapENS3_6vectorENS3_12basic_stringIcNS3_11char_traitsIcEENS3_9allocatorIcEEEEbxydS9_NS1_14adl_serializerENS5_IhNS9_IhEEEEvEE                                                                                                                                                                                                                                 
7011d591  _ZN15ClusterMetadataD1Ev                                                                                                                                                                                                                                                                                                                                                                                                                       
7011d591  _ZN15ClusterMetadataD2Ev                                                                                                                                                                                                                                                                                                                                                                                                                       
7013da44  _ZN15EndpointFactory12freeEndpointE                                                                                                                                                                                                                                                                                                                                                                                                            
7011bfd1  _ZN15EndpointFactory14createEndpointE17CommunicationType                                                                                                                                                                                                                                                                                                                                                                                       
70119441  _ZN15EndpointFactory15getFreeEndpointEv                                                                                                                                                                                                                                                                                                                                                                                                        
7011d5a1  _ZN16ConsumerMetadata11setEndpointEP8Endpoint                                                                                                                                                                                                                                                                                                                                                                                                  
701119a1  _ZN16ConsumerMetadata9from_jsonERKN8nlohmann16json_abi_v3_11_210basic_jsonINSt3__13mapENS3_6vectorENS3_12basic_stringIcNS3_11char_traitsIcEENS3_9allocatorIcEEEEbxydS9_NS1_14adl_serializerENS5_IhNS9_IhEEEEvEE                                                                                                                                                                                                                                
7011d461  _ZN16ConsumerMetadataC1EiP8Endpoint                                                                                                                                                                                                                                                                                                                                                                                                            
7011d2c1  _ZN16ConsumerMetadataC1Ev                                                                                                                                                                                                                                                                                                                                                                                                                      
7011d461  _ZN16ConsumerMetadataC2EiP8Endpoint                                                                                                                                                                                                                                                                                                                                                                                                            
7011d2c1  _ZN16ConsumerMetadataC2Ev                                                                                                                                                                                                                                                                                                                                                                                                                      
7011b611  _ZN16ProducerMetadata9from_jsonERKN8nlohmann16json_abi_v3_11_210basic_jsonINSt3__13mapENS3_6vectorENS3_12basic_stringIcNS3_11char_traitsIcEENS3_9allocatorIcEEEEbxydS9_NS1_14adl_serializerENS5_IhNS9_IhEEEEvEE                                                                                                                                                                                                                                
7011d5b1  _ZN16ProducerMetadataC1Ei                                                                                                                                                                                                                                                                                                                                                                                                                      
7011d751  _ZN16ProducerMetadataC1Ev                                                                                                                                                                                                                                                                                                                                                                                                                      
7011d5b1  _ZN16ProducerMetadataC2Ei                                                                                                                                                                                                                                                                                                                                                                                                                      
7011d751  _ZN16ProducerMetadataC2Ev                                                                                                                                                                                                                                                                                                                                                                                                                      
7011d5c1  _ZN17RPMessageEndpoint18setServiceEndpointEt                                                                                                                                                                                                                                                                                                                                                                                                   
701190a1  _ZN17RPMessageEndpoint9from_jsonERKN8nlohmann16json_abi_v3_11_210basic_jsonINSt3__13mapENS3_6vectorENS3_12basic_stringIcNS3_11char_traitsIcEENS3_9allocatorIcEEEEbxydS9_NS1_14adl_serializerENS5_IhNS9_IhEEEEvEE                                                                                                                                                                                                                               
7011d5d1  _ZN17RPMessageEndpoint9setCoreIdEj                                                                                                                                                                                                                                                                                                                                                                                                             
7011d171  _ZN17RPMessageEndpointC1Ejt                                                                                                                                                                                                                                                                                                                                                                                                                    
7011cea1  _ZN17RPMessageEndpointC1Ev                                                                                                                                                                                                                                                                                                                                                                                                                     
7011d171  _ZN17RPMessageEndpointC2Ejt                                                                                                                                                                                                                                                                                                                                                                                                                    
7011cea1  _ZN17RPMessageEndpointC2Ev                                                                                                                                                                                                                                                                                                                                                                                                                     
7011d5e1  _ZN17RPMessageEndpointD0Ev                                                                                                                                                                                                                                                                                                                                                                                                                     
7011d761  _ZN17RPMessageEndpointD1Ev                                                                                                                                                                                                                                                                                                                                                                                                                     
7011d761  _ZN17RPMessageEndpointD2Ev                                                                                                                                                                                                                                                                                                                                                                                                                     
70119d01  _ZN18CommunicationUtils7requestEP13Communication17CommunicationTypeP8EndpointPKcjPcj                                                                                                                                                                                                                                                                                                                                                           
7011ca51  _ZN20CommunicationFactory19createCommunicationE17CommunicationTypeRK8EndpointRK6Logger                                                                                                                                                                                                                                                                                                                                                         
70117a01  _ZN22RPMessageCommunication4readEPcjR8Endpoint                                                                                                                                                                                                                                                                                                                                                                                                 
70116cc1  _ZN22RPMessageCommunication5writeEPKcjRK8Endpoint                                                                                                                                                                                                                                                                                                                                                                                              
70116431  _ZN22RPMessageCommunicationC1ERK17RPMessageEndpointRK6Logger                                                                                                                                                                                                                                                                                                                                                                                   
70116431  _ZN22RPMessageCommunicationC2ERK17RPMessageEndpointRK6Logger                                                                                                                                                                                                                                                                                                                                                                                   
7011bd01  _ZN22RPMessageCommunicationD0Ev                                                                                                                                                                                                                                                                                                                                                                                                                
7011c501  _ZN22RPMessageCommunicationD1Ev                                                                                                                                                                                                                                                                                                                                                                                                                
7011c501  _ZN22RPMessageCommunicationD2Ev                                                                                                                                                                                                                                                                                                                                                                                                                
7011ca71  _ZN5TopicC2E13TopicMetadataRK6Logger                                                                                                                                                                                                                                                                                                                                                                                                           
7011d771  _ZN5TopicD0Ev                                                                                                                                                                                                                                                                                                                                                                                                                                  
7011c7f1  _ZN5TopicD1Ev                                                                                                                                                                                                                                                                                                                                                                                                                                  
7011c7f1  _ZN5TopicD2Ev                                                                                                                                                                                                                                                                                                                                                                                                                                  
70106f51  _ZN6Broker12askForTopicsEv                                                                                                                                                                                                                                                                                                                                                                                                                     
70104961  _ZN6Broker15handleOperationEPKcP8Endpoint                                                                                                                                                                                                                                                                                                                                                                                                      
70117691  _ZN6Broker5startEv                                                                                                                                                                                                                                                                                                                                                                                                                             
70119101  _ZN6BrokerC1E17CommunicationTypeRK8EndpointRK6Logger14BrokerMetadata                                                                                                                                                                                                                                                                                                                                                                           
70119101  _ZN6BrokerC2E17CommunicationTypeRK8EndpointRK6Logger14BrokerMetadata                                                                                                                                                                                                                                                                                                                                                                           
7011c301  _ZN6BrokerD1Ev                                                                                                                                                                                                                                                                                                                                                                                                                                 
7011c301  _ZN6BrokerD2Ev                                                                                                                                                                                                                                                                                                                                                                                                                                 
7011ac41  _ZN6Record9from_jsonERKN8nlohmann16json_abi_v3_11_210basic_jsonINSt3__13mapENS3_6vectorENS3_12basic_stringIcNS3_11char_traitsIcEENS3_9allocatorIcEEEEbxydS9_NS1_14adl_serializerENS5_IhNS9_IhEEEEvEE                                                                                                                                                                                                                                           
7011d5f1  _ZN6RecordC1ENSt3__112basic_stringIcNS0_11char_traitsIcEENS0_9allocatorIcEEEE                                                                                                                                                                                                                                                                                                                                                                  
7011d2d1  _ZN6RecordC1Ev                                                                                                                                                                                                                                                                                                                                                                                                                                 
7011d5f1  _ZN6RecordC2ENSt3__112basic_stringIcNS0_11char_traitsIcEENS0_9allocatorIcEEEE                                                                                                                                                                                                                                                                                                                                                                  
7011d2d1  _ZN6RecordC2Ev                                                                                                                                                                                                                                                                                                                                                                                                                                 
7011af01  _ZN8Consumer4readE13TopicMetadata                                                                                                                                                                                                                                                                                                                                                                                                              
701182a1  _ZN8Consumer9subscribeE13TopicMetadata                                                                                                                                                                                                                                                                                                                                                                                                         
70117a71  _ZN8ConsumerC1E17CommunicationTypeRK6Logger14BrokerMetadata                                                                                                                                                                                                                                                                                                                                                                                    
70117a71  _ZN8ConsumerC2E17CommunicationTypeRK6Logger14BrokerMetadata                                                                                                                                                                                                                                                                                                                                                                                    
70118b11  _ZN8Producer7publishE14ProducerRecord                                                                                                                                                                                                                                                                                                                                                                                                          
70118061  _ZN8ProducerC1E17CommunicationTypeRK6Logger14BrokerMetadata                                                                                                                                                                                                                                                                                                                                                                                    
70118061  _ZN8ProducerC2E17CommunicationTypeRK6Logger14BrokerMetadata                                                                                                                                                                                                                                                                                                                                                                                    
70105521  _ZN8nlohmann16json_abi_v3_11_210basic_jsonINSt3__13mapENS2_6vectorENS2_12basic_stringIcNS2_11char_traitsIcEENS2_9allocatorIcEEEEbxydS8_NS0_14adl_serializerENS4_IhNS8_IhEEEEvE10json_value7destroyENS0_6detail7value_tE                                                                                                                                                                                                                        
701199e1  _ZN8nlohmann16json_abi_v3_11_210basic_jsonINSt3__13mapENS2_6vectorENS2_12basic_stringIcNS2_11char_traitsIcEENS2_9allocatorIcEEEEbxydS8_NS0_14adl_serializerENS4_IhNS8_IhEEEEvE10json_valueC2ENS0_6detail7value_tE                                                                                                                                                                                                                              
7011ca91  _ZN8nlohmann16json_abi_v3_11_210basic_jsonINSt3__13mapENS2_6vectorENS2_12basic_stringIcNS2_11char_traitsIcEENS2_9allocatorIcEEEEbxydS8_NS0_14adl_serializerENS4_IhNS8_IhEEEEvE2atIRA5_KcLi0EEERSE_OT_                                                                                                                                                                                                                                          
701110e1  _ZN8nlohmann16json_abi_v3_11_210basic_jsonINSt3__13mapENS2_6vectorENS2_12basic_stringIcNS2_11char_traitsIcEENS2_9allocatorIcEEEEbxydS8_NS0_14adl_serializerENS4_IhNS8_IhEEEEvE5eraseINS0_6detail9iter_implISE_EELi0EEET_SJ_                                                                                                                                                                                                                    
70115c01  _ZN8nlohmann16json_abi_v3_11_210basic_jsonINSt3__13mapENS2_6vectorENS2_12basic_stringIcNS2_11char_traitsIcEENS2_9allocatorIcEEEEbxydS8_NS0_14adl_serializerENS4_IhNS8_IhEEEEvE5parseIRA1024_cEESE_OT_NS2_8functionIFbiNS0_6detail13parse_event_tERSE_EEEbb                                                                                                                                                                                     
70115c91  _ZN8nlohmann16json_abi_v3_11_210basic_jsonINSt3__13mapENS2_6vectorENS2_12basic_stringIcNS2_11char_traitsIcEENS2_9allocatorIcEEEEbxydS8_NS0_14adl_serializerENS4_IhNS8_IhEEEEvE5parseIRA128_cEESE_OT_NS2_8functionIFbiNS0_6detail13parse_event_tERSE_EEEbb                                                                                                                                                                                      
70115d21  _ZN8nlohmann16json_abi_v3_11_210basic_jsonINSt3__13mapENS2_6vectorENS2_12basic_stringIcNS2_11char_traitsIcEENS2_9allocatorIcEEEEbxydS8_NS0_14adl_serializerENS4_IhNS8_IhEEEEvE5parseIRA512_cEESE_OT_NS2_8functionIFbiNS0_6detail13parse_event_tERSE_EEEbb                                                                                                                                                                                      
70115461  _ZN8nlohmann16json_abi_v3_11_210basic_jsonINSt3__13mapENS2_6vectorENS2_12basic_stringIcNS2_11char_traitsIcEENS2_9allocatorIcEEEEbxydS8_NS0_14adl_serializerENS4_IhNS8_IhEEEEvE5parseIRPKcEESE_OT_NS2_8functionIFbiNS0_6detail13parse_event_tERSE_EEEbb                                                                                                                                                                                         
7011b1c1  _ZN8nlohmann16json_abi_v3_11_210basic_jsonINSt3__13mapENS2_6vectorENS2_12basic_stringIcNS2_11char_traitsIcEENS2_9allocatorIcEEEEbxydS8_NS0_14adl_serializerENS4_IhNS8_IhEEEEvE6createINS0_27byte_container_with_subtypeISD_EEJEEEPT_DpOT0_                                                                                                                                                                                                     
7011aac1  _ZN8nlohmann16json_abi_v3_11_210basic_jsonINSt3__13mapENS2_6vectorENS2_12basic_stringIcNS2_11char_traitsIcEENS2_9allocatorIcEEEEbxydS8_NS0_14adl_serializerENS4_IhNS8_IhEEEEvE6createINS0_27byte_container_with_subtypeISD_EEJRKSH_EEEPT_DpOT0_                                                                                                                                                                                                
7011b301  _ZN8nlohmann16json_abi_v3_11_210basic_jsonINSt3__13mapENS2_6vectorENS2_12basic_stringIcNS2_11char_traitsIcEENS2_9allocatorIcEEEEbxydS8_NS0_14adl_serializerENS4_IhNS8_IhEEEEvE6createINS3_ISA_SE_NS2_4lessIvEENS8_INS2_4pairIKSA_SE_EEEEEEJEEEPT_DpOT0_                                                                                                                                                                                        
7011a3d1  _ZN8nlohmann16json_abi_v3_11_210basic_jsonINSt3__13mapENS2_6vectorENS2_12basic_stringIcNS2_11char_traitsIcEENS2_9allocatorIcEEEEbxydS8_NS0_14adl_serializerENS4_IhNS8_IhEEEEvE6createINS3_ISA_SE_NS2_4lessIvEENS8_INS2_4pairIKSA_SE_EEEEEEJRKSM_EEEPT_DpOT0_                                                                                                                                                                                   
7011b701  _ZN8nlohmann16json_abi_v3_11_210basic_jsonINSt3__13mapENS2_6vectorENS2_12basic_stringIcNS2_11char_traitsIcEENS2_9allocatorIcEEEEbxydS8_NS0_14adl_serializerENS4_IhNS8_IhEEEEvE6createINS4_ISE_NS8_ISE_EEEEJEEEPT_DpOT0_                                                                                                                                                                                                                        
7011b341  _ZN8nlohmann16json_abi_v3_11_210basic_jsonINSt3__13mapENS2_6vectorENS2_12basic_stringIcNS2_11char_traitsIcEENS2_9allocatorIcEEEEbxydS8_NS0_14adl_serializerENS4_IhNS8_IhEEEEvE6createINS4_ISE_NS8_ISE_EEEEJNS2_11__wrap_iterIPK13TopicMetadataEESM_EEEPT_DpOT0_                                                                                                                                                                                
7011b381  _ZN8nlohmann16json_abi_v3_11_210basic_jsonINSt3__13mapENS2_6vectorENS2_12basic_stringIcNS2_11char_traitsIcEENS2_9allocatorIcEEEEbxydS8_NS0_14adl_serializerENS4_IhNS8_IhEEEEvE6createINS4_ISE_NS8_ISE_EEEEJNS2_11__wrap_iterIPK14BrokerMetadataEESM_EEEPT_DpOT0_                                                                                                                                                                               
7011b3c1  _ZN8nlohmann16json_abi_v3_11_210basic_jsonINSt3__13mapENS2_6vectorENS2_12basic_stringIcNS2_11char_traitsIcEENS2_9allocatorIcEEEEbxydS8_NS0_14adl_serializerENS4_IhNS8_IhEEEEvE6createINS4_ISE_NS8_ISE_EEEEJPKNS0_6detail8json_refISE_EESM_EEEPT_DpOT0_                                                                                                                                                                                         
7011b731  _ZN8nlohmann16json_abi_v3_11_210basic_jsonINSt3__13mapENS2_6vectorENS2_12basic_stringIcNS2_11char_traitsIcEENS2_9allocatorIcEEEEbxydS8_NS0_14adl_serializerENS4_IhNS8_IhEEEEvE6createINS4_ISE_NS8_ISE_EEEEJRKSH_EEEPT_DpOT0_                                                                                                                                                                                                                   
7011b761  _ZN8nlohmann16json_abi_v3_11_210basic_jsonINSt3__13mapENS2_6vectorENS2_12basic_stringIcNS2_11char_traitsIcEENS2_9allocatorIcEEEEbxydS8_NS0_14adl_serializerENS4_IhNS8_IhEEEEvE6createISA_JRA10_KcEEEPT_DpOT0_                                                                                                                                                                                                                                  
7011b791  _ZN8nlohmann16json_abi_v3_11_210basic_jsonINSt3__13mapENS2_6vectorENS2_12basic_stringIcNS2_11char_traitsIcEENS2_9allocatorIcEEEEbxydS8_NS0_14adl_serializerENS4_IhNS8_IhEEEEvE6createISA_JRA11_KcEEEPT_DpOT0_                                                                                                                                                                                                                                  
7011b7c1  _ZN8nlohmann16json_abi_v3_11_210basic_jsonINSt3__13mapENS2_6vectorENS2_12basic_stringIcNS2_11char_traitsIcEENS2_9allocatorIcEEEEbxydS8_NS0_14adl_serializerENS4_IhNS8_IhEEEEvE6createISA_JRA12_KcEEEPT_DpOT0_                                                                                                                                                                                                                                  
7011b7f1  _ZN8nlohmann16json_abi_v3_11_210basic_jsonINSt3__13mapENS2_6vectorENS2_12basic_stringIcNS2_11char_traitsIcEENS2_9allocatorIcEEEEbxydS8_NS0_14adl_serializerENS4_IhNS8_IhEEEEvE6createISA_JRA16_KcEEEPT_DpOT0_                                                                                                                                                                                                                                  
7011b821  _ZN8nlohmann16json_abi_v3_11_210basic_jsonINSt3__13mapENS2_6vectorENS2_12basic_stringIcNS2_11char_traitsIcEENS2_9allocatorIcEEEEbxydS8_NS0_14adl_serializerENS4_IhNS8_IhEEEEvE6createISA_JRA1_KcEEEPT_DpOT0_                                                                                                                                                                                                                                   
7011b851  _ZN8nlohmann16json_abi_v3_11_210basic_jsonINSt3__13mapENS2_6vectorENS2_12basic_stringIcNS2_11char_traitsIcEENS2_9allocatorIcEEEEbxydS8_NS0_14adl_serializerENS4_IhNS8_IhEEEEvE6createISA_JRA22_KcEEEPT_DpOT0_                                                                                                                                                                                                                                  
7011b881  _ZN8nlohmann16json_abi_v3_11_210basic_jsonINSt3__13mapENS2_6vectorENS2_12basic_stringIcNS2_11char_traitsIcEENS2_9allocatorIcEEEEbxydS8_NS0_14adl_serializerENS4_IhNS8_IhEEEEvE6createISA_JRA3_KcEEEPT_DpOT0_                                                                                                                                                                                                                                   
7011b8b1  _ZN8nlohmann16json_abi_v3_11_210basic_jsonINSt3__13mapENS2_6vectorENS2_12basic_stringIcNS2_11char_traitsIcEENS2_9allocatorIcEEEEbxydS8_NS0_14adl_serializerENS4_IhNS8_IhEEEEvE6createISA_JRA5_KcEEEPT_DpOT0_                                                                                                                                                                                                                                   
7011b8e1  _ZN8nlohmann16json_abi_v3_11_210basic_jsonINSt3__13mapENS2_6vectorENS2_12basic_stringIcNS2_11char_traitsIcEENS2_9allocatorIcEEEEbxydS8_NS0_14adl_serializerENS4_IhNS8_IhEEEEvE6createISA_JRA7_KcEEEPT_DpOT0_                                                                                                                                                                                                                                   
7011b911  _ZN8nlohmann16json_abi_v3_11_210basic_jsonINSt3__13mapENS2_6vectorENS2_12basic_stringIcNS2_11char_traitsIcEENS2_9allocatorIcEEEEbxydS8_NS0_14adl_serializerENS4_IhNS8_IhEEEEvE6createISA_JRA8_KcEEEPT_DpOT0_                                                                                                                                                                                                                                   
7011b941  _ZN8nlohmann16json_abi_v3_11_210basic_jsonINSt3__13mapENS2_6vectorENS2_12basic_stringIcNS2_11char_traitsIcEENS2_9allocatorIcEEEEbxydS8_NS0_14adl_serializerENS4_IhNS8_IhEEEEvE6createISA_JRA9_KcEEEPT_DpOT0_                                                                                                                                                                                                                                   
7011b971  _ZN8nlohmann16json_abi_v3_11_210basic_jsonINSt3__13mapENS2_6vectorENS2_12basic_stringIcNS2_11char_traitsIcEENS2_9allocatorIcEEEEbxydS8_NS0_14adl_serializerENS4_IhNS8_IhEEEEvE6createISA_JRKSA_EEEPT_DpOT0_                                                                                                                                                                                                                                    
701184e1  _ZN8nlohmann16json_abi_v3_11_210basic_jsonINSt3__13mapENS2_6vectorENS2_12basic_stringIcNS2_11char_traitsIcEENS2_9allocatorIcEEEEbxydS8_NS0_14adl_serializerENS4_IhNS8_IhEEEEvE6parserINS0_6detail22iterator_input_adapterIPKcEEEENSG_6parserISE_T_EESM_NS2_8functionIFbiNSG_13parse_event_tERSE_EEEbb                                                                                                                                          
70118541  _ZN8nlohmann16json_abi_v3_11_210basic_jsonINSt3__13mapENS2_6vectorENS2_12basic_stringIcNS2_11char_traitsIcEENS2_9allocatorIcEEEEbxydS8_NS0_14adl_serializerENS4_IhNS8_IhEEEEvE6parserINS0_6detail22iterator_input_adapterIPcEEEENSG_6parserISE_T_EESL_NS2_8functionIFbiNSG_13parse_event_tERSE_EEEbb                                                                                                                                           
70115151  _ZN8nlohmann16json_abi_v3_11_210basic_jsonINSt3__13mapENS2_6vectorENS2_12basic_stringIcNS2_11char_traitsIcEENS2_9allocatorIcEEEEbxydS8_NS0_14adl_serializerENS4_IhNS8_IhEEEEvE9push_backERKSE_                                                                                                                                                                                                                                                 
701170e1  _ZN8nlohmann16json_abi_v3_11_210basic_jsonINSt3__13mapENS2_6vectorENS2_12basic_stringIcNS2_11char_traitsIcEENS2_9allocatorIcEEEEbxydS8_NS0_14adl_serializerENS4_IhNS8_IhEEEEvEC2ERKSE_                                                                                                                                                                                                                                                         
701115e1  _ZN8nlohmann16json_abi_v3_11_210basic_jsonINSt3__13mapENS2_6vectorENS2_12basic_stringIcNS2_11char_traitsIcEENS2_9allocatorIcEEEEbxydS8_NS0_14adl_serializerENS4_IhNS8_IhEEEEvEC2ESt16initializer_listINS0_6detail8json_refISE_EEEbNSG_7value_tE                                                                                                                                                                                                
70119761  _ZN8nlohmann16json_abi_v3_11_210basic_jsonINSt3__13mapENS2_6vectorENS2_12basic_stringIcNS2_11char_traitsIcEENS2_9allocatorIcEEEEbxydS8_NS0_14adl_serializerENS4_IhNS8_IhEEEEvEC2INS0_6detail8json_refISE_EELi0EEERKT_                                                                                                                                                                                                                          
7011a781  _ZN8nlohmann16json_abi_v3_11_210basic_jsonINSt3__13mapENS2_6vectorENS2_12basic_stringIcNS2_11char_traitsIcEENS2_9allocatorIcEEEEbxydS8_NS0_14adl_serializerENS4_IhNS8_IhEEEEvEC2IRKiiLi0EEEOT_                                                                                                                                                                                                                                                 
7011ac81  _ZN8nlohmann16json_abi_v3_11_210basic_jsonINSt3__13mapENS2_6vectorENS2_12basic_stringIcNS2_11char_traitsIcEENS2_9allocatorIcEEEEbxydS8_NS0_14adl_serializerENS4_IhNS8_IhEEEEvEC2IRKjjLi0EEEOT_                                                                                                                                                                                                                                                 
7011acc1  _ZN8nlohmann16json_abi_v3_11_210basic_jsonINSt3__13mapENS2_6vectorENS2_12basic_stringIcNS2_11char_traitsIcEENS2_9allocatorIcEEEEbxydS8_NS0_14adl_serializerENS4_IhNS8_IhEEEEvEC2IRKttLi0EEEOT_                                                                                                                                                                                                                                                 
7011ad01  _ZN8nlohmann16json_abi_v3_11_210basic_jsonINSt3__13mapENS2_6vectorENS2_12basic_stringIcNS2_11char_traitsIcEENS2_9allocatorIcEEEEbxydS8_NS0_14adl_serializerENS4_IhNS8_IhEEEEvEC2IRbbLi0EEEOT_                                                                                                                                                                                                                                                  
7011a421  _ZN8nlohmann16json_abi_v3_11_210basic_jsonINSt3__13mapENS2_6vectorENS2_12basic_stringIcNS2_11char_traitsIcEENS2_9allocatorIcEEEEbxydS8_NS0_14adl_serializerENS4_IhNS8_IhEEEEvEC2IRddLi0EEEOT_                                                                                                                                                                                                                                                  
7011ab01  _ZN8nlohmann16json_abi_v3_11_210basic_jsonINSt3__13mapENS2_6vectorENS2_12basic_stringIcNS2_11char_traitsIcEENS2_9allocatorIcEEEEbxydS8_NS0_14adl_serializerENS4_IhNS8_IhEEEEvEC2IRxxLi0EEEOT_                                                                                                                                                                                                                                                  
7011ab41  _ZN8nlohmann16json_abi_v3_11_210basic_jsonINSt3__13mapENS2_6vectorENS2_12basic_stringIcNS2_11char_traitsIcEENS2_9allocatorIcEEEEbxydS8_NS0_14adl_serializerENS4_IhNS8_IhEEEEvEC2IRyyLi0EEEOT_                                                                                                                                                                                                                                                  
7011a7c1  _ZN8nlohmann16json_abi_v3_11_210basic_jsonINSt3__13mapENS2_6vectorENS2_12basic_stringIcNS2_11char_traitsIcEENS2_9allocatorIcEEEEbxydS8_NS0_14adl_serializerENS4_IhNS8_IhEEEEvEC2IiiLi0EEEOT_                                                                                                                                                                                                                                                   
7011b651  _ZN8nlohmann16json_abi_v3_11_210basic_jsonINSt3__13mapENS2_6vectorENS2_12basic_stringIcNS2_11char_traitsIcEENS2_9allocatorIcEEEEbxydS8_NS0_14adl_serializerENS4_IhNS8_IhEEEEvEaSESE_                                                                                                                                                                                                                                                           
7011a241  _ZN8nlohmann16json_abi_v3_11_210basic_jsonINSt3__13mapENS2_6vectorENS2_12basic_stringIcNS2_11char_traitsIcEENS2_9allocatorIcEEEEbxydS8_NS0_14adl_serializerENS4_IhNS8_IhEEEEvEixESA_                                                                                                                                                                                                                                                           
7011bd31  _ZN8nlohmann16json_abi_v3_11_210basic_jsonINSt3__13mapENS2_6vectorENS2_12basic_stringIcNS2_11char_traitsIcEENS2_9allocatorIcEEEEbxydS8_NS0_14adl_serializerENS4_IhNS8_IhEEEEvEixIKcEERSE_PT_                                                                                                                                                                                                                                                   
7011d0f1  _ZN8nlohmann16json_abi_v3_11_214adl_serializerINSt3__112basic_stringIcNS2_11char_traitsIcEENS2_9allocatorIcEEEEvE9from_jsonIRKNS0_10basic_jsonINS2_3mapENS2_6vectorES8_bxydS6_S1_NSD_IhNS6_IhEEEEvEES8_EEDTcmclL_ZNS0_12_GLOBAL__N_19from_jsonEEclsr3stdE7forwardIT_Efp_Efp0_Ecvv_EEOSK_RT0_                                                                                                                                                   
7011ccf1  _ZN8nlohmann16json_abi_v3_11_26detail10lexer_baseINS0_10basic_jsonINSt3__13mapENS4_6vectorENS4_12basic_stringIcNS4_11char_traitsIcEENS4_9allocatorIcEEEEbxydSA_NS0_14adl_serializerENS6_IhNSA_IhEEEEvEEE15token_type_nameENSH_10token_typeE                                                                                                                                                                                                    
70117d01  _ZN8nlohmann16json_abi_v3_11_26detail10serializerINS0_10basic_jsonINSt3__13mapENS4_6vectorENS4_12basic_stringIcNS4_11char_traitsIcEENS4_9allocatorIcEEEEbxydSA_NS0_14adl_serializerENS6_IhNSA_IhEEEEvEEE10dump_floatEd                                                                                                                                                                                                                         
70107781  _ZN8nlohmann16json_abi_v3_11_26detail10serializerINS0_10basic_jsonINSt3__13mapENS4_6vectorENS4_12basic_stringIcNS4_11char_traitsIcEENS4_9allocatorIcEEEEbxydSA_NS0_14adl_serializerENS6_IhNSA_IhEEEEvEEE12dump_escapedERKSC_b                                                                                                                                                                                                                  
701164c1  _ZN8nlohmann16json_abi_v3_11_26detail10serializerINS0_10basic_jsonINSt3__13mapENS4_6vectorENS4_12basic_stringIcNS4_11char_traitsIcEENS4_9allocatorIcEEEEbxydSA_NS0_14adl_serializerENS6_IhNSA_IhEEEEvEEE12dump_integerIhLi0EEEvT_                                                                                                                                                                                                              
701099c1  _ZN8nlohmann16json_abi_v3_11_26detail10serializerINS0_10basic_jsonINSt3__13mapENS4_6vectorENS4_12basic_stringIcNS4_11char_traitsIcEENS4_9allocatorIcEEEEbxydSA_NS0_14adl_serializerENS6_IhNSA_IhEEEEvEEE12dump_integerIxLi0EEEvT_                                                                                                                                                                                                              
7010da31  _ZN8nlohmann16json_abi_v3_11_26detail10serializerINS0_10basic_jsonINSt3__13mapENS4_6vectorENS4_12basic_stringIcNS4_11char_traitsIcEENS4_9allocatorIcEEEEbxydSA_NS0_14adl_serializerENS6_IhNSA_IhEEEEvEEE12dump_integerIyLi0EEEvT_                                                                                                                                                                                                              
70100ff1  _ZN8nlohmann16json_abi_v3_11_26detail10serializerINS0_10basic_jsonINSt3__13mapENS4_6vectorENS4_12basic_stringIcNS4_11char_traitsIcEENS4_9allocatorIcEEEEbxydSA_NS0_14adl_serializerENS6_IhNSA_IhEEEEvEEE4dumpERKSG_bbjj                                                                                                                                                                                                                        
70118db1  _ZN8nlohmann16json_abi_v3_11_26detail10serializerINS0_10basic_jsonINSt3__13mapENS4_6vectorENS4_12basic_stringIcNS4_11char_traitsIcEENS4_9allocatorIcEEEEbxydSA_NS0_14adl_serializerENS6_IhNSA_IhEEEEvEEE6decodeERhRjh                                                                                                                                                                                                                          
70115db1  _ZN8nlohmann16json_abi_v3_11_26detail10serializerINS0_10basic_jsonINSt3__13mapENS4_6vectorENS4_12basic_stringIcNS4_11char_traitsIcEENS4_9allocatorIcEEEEbxydSA_NS0_14adl_serializerENS6_IhNSA_IhEEEEvEEEC2ENS4_10shared_ptrINS1_23output_adapter_protocolIcEEEEcNS1_15error_handler_tE                                                                                                                                                         
7011cc71  _ZN8nlohmann16json_abi_v3_11_26detail10serializerINS0_10basic_jsonINSt3__13mapENS4_6vectorENS4_12basic_stringIcNS4_11char_traitsIcEENS4_9allocatorIcEEEEbxydSA_NS0_14adl_serializerENS6_IhNSA_IhEEEEvEEED2Ev                                                                                                                                                                                                                                   
701185a1  _ZN8nlohmann16json_abi_v3_11_26detail11parse_error15position_stringERKNS1_10position_tE                                                                                                                                                                                                                                                                                                                                                        
701116d1  _ZN8nlohmann16json_abi_v3_11_26detail11parse_error6createIDnLi0EEES2_iRKNS1_10position_tERKNSt3__112basic_stringIcNS7_11char_traitsIcEENS7_9allocatorIcEEEET_                                                                                                                                                                                                                                                                                  
7011c331  _ZN8nlohmann16json_abi_v3_11_26detail11parse_errorD0Ev                                                                                                                                                                                                                                                                                                                                                                                         
7010f681  _ZN8nlohmann16json_abi_v3_11_26detail12out_of_range6createIDnLi0EEES2_iRKNSt3__112basic_stringIcNS4_11char_traitsIcEENS4_9allocatorIcEEEET_                                                                                                                                                                                                                                                                                                    
7011c361  _ZN8nlohmann16json_abi_v3_11_26detail12out_of_rangeD0Ev                                                                                                                                                                                                                                                                                                                                                                                        
70124757  _ZN8nlohmann16json_abi_v3_11_26detail12static_constINS1_12from_json_fnEE5valueE                                                                                                                                                                                                                                                                                                                                                                
70119161  _ZN8nlohmann16json_abi_v3_11_26detail19json_sax_dom_parserINS0_10basic_jsonINSt3__13mapENS4_6vectorENS4_12basic_stringIcNS4_11char_traitsIcEENS4_9allocatorIcEEEEbxydSA_NS0_14adl_serializerENS6_IhNSA_IhEEEEvEEE10end_objectEv                                                                                                                                                                                                                
70111f21  _ZN8nlohmann16json_abi_v3_11_26detail19json_sax_dom_parserINS0_10basic_jsonINSt3__13mapENS4_6vectorENS4_12basic_stringIcNS4_11char_traitsIcEENS4_9allocatorIcEEEEbxydSA_NS0_14adl_serializerENS6_IhNSA_IhEEEEvEEE11start_arrayEj                                                                                                                                                                                                               
701108c1  _ZN8nlohmann16json_abi_v3_11_26detail19json_sax_dom_parserINS0_10basic_jsonINSt3__13mapENS4_6vectorENS4_12basic_stringIcNS4_11char_traitsIcEENS4_9allocatorIcEEEEbxydSA_NS0_14adl_serializerENS6_IhNSA_IhEEEEvEEE12handle_valueIDnEEPSG_OT_                                                                                                                                                                                                    
70110be1  _ZN8nlohmann16json_abi_v3_11_26detail19json_sax_dom_parserINS0_10basic_jsonINSt3__13mapENS4_6vectorENS4_12basic_stringIcNS4_11char_traitsIcEENS4_9allocatorIcEEEEbxydSA_NS0_14adl_serializerENS6_IhNSA_IhEEEEvEEE12handle_valueINS1_7value_tEEEPSG_OT_                                                                                                                                                                                         
701106a1  _ZN8nlohmann16json_abi_v3_11_26detail19json_sax_dom_parserINS0_10basic_jsonINSt3__13mapENS4_6vectorENS4_12basic_stringIcNS4_11char_traitsIcEENS4_9allocatorIcEEEEbxydSA_NS0_14adl_serializerENS6_IhNSA_IhEEEEvEEE12handle_valueIRSC_EEPSG_OT_                                                                                                                                                                                                  
7010e0f1  _ZN8nlohmann16json_abi_v3_11_26detail19json_sax_dom_parserINS0_10basic_jsonINSt3__13mapENS4_6vectorENS4_12basic_stringIcNS4_11char_traitsIcEENS4_9allocatorIcEEEEbxydSA_NS0_14adl_serializerENS6_IhNSA_IhEEEEvEEE12handle_valueIRbEEPSG_OT_                                                                                                                                                                                                    
7010e241  _ZN8nlohmann16json_abi_v3_11_26detail19json_sax_dom_parserINS0_10basic_jsonINSt3__13mapENS4_6vectorENS4_12basic_stringIcNS4_11char_traitsIcEENS4_9allocatorIcEEEEbxydSA_NS0_14adl_serializerENS6_IhNSA_IhEEEEvEEE12handle_valueIRdEEPSG_OT_                                                                                                                                                                                                    
7010e391  _ZN8nlohmann16json_abi_v3_11_26detail19json_sax_dom_parserINS0_10basic_jsonINSt3__13mapENS4_6vectorENS4_12basic_stringIcNS4_11char_traitsIcEENS4_9allocatorIcEEEEbxydSA_NS0_14adl_serializerENS6_IhNSA_IhEEEEvEEE12handle_valueIRxEEPSG_OT_                                                                                                                                                                                                    
7010e4e1  _ZN8nlohmann16json_abi_v3_11_26detail19json_sax_dom_parserINS0_10basic_jsonINSt3__13mapENS4_6vectorENS4_12basic_stringIcNS4_11char_traitsIcEENS4_9allocatorIcEEEEbxydSA_NS0_14adl_serializerENS6_IhNSA_IhEEEEvEEE12handle_valueIRyEEPSG_OT_                                                                                                                                                                                                    
70112001  _ZN8nlohmann16json_abi_v3_11_26detail19json_sax_dom_parserINS0_10basic_jsonINSt3__13mapENS4_6vectorENS4_12basic_stringIcNS4_11char_traitsIcEENS4_9allocatorIcEEEEbxydSA_NS0_14adl_serializerENS6_IhNSA_IhEEEEvEEE12start_objectEj                                                                                                                                                                                                              
70116551  _ZN8nlohmann16json_abi_v3_11_26detail19json_sax_dom_parserINS0_10basic_jsonINSt3__13mapENS4_6vectorENS4_12basic_stringIcNS4_11char_traitsIcEENS4_9allocatorIcEEEEbxydSA_NS0_14adl_serializerENS6_IhNSA_IhEEEEvEEE3keyERSC_                                                                                                                                                                                                                     
701191c1  _ZN8nlohmann16json_abi_v3_11_26detail19json_sax_dom_parserINS0_10basic_jsonINSt3__13mapENS4_6vectorENS4_12basic_stringIcNS4_11char_traitsIcEENS4_9allocatorIcEEEEbxydSA_NS0_14adl_serializerENS6_IhNSA_IhEEEEvEEE9end_arrayEv                                                                                                                                                                                                                  
7011b401  _ZN8nlohmann16json_abi_v3_11_26detail20external_constructorILNS1_7value_tE2EE9constructINS0_10basic_jsonINSt3__13mapENS7_6vectorENS7_12basic_stringIcNS7_11char_traitsIcEENS7_9allocatorIcEEEEbxydSD_NS0_14adl_serializerENS9_IhNSD_IhEEEEvEENS9_I13TopicMetadataNSD_ISK_EEEELi0EEEvRT_RKT0_                                                                                                                                                   
7011b441  _ZN8nlohmann16json_abi_v3_11_26detail20external_constructorILNS1_7value_tE2EE9constructINS0_10basic_jsonINSt3__13mapENS7_6vectorENS7_12basic_stringIcNS7_11char_traitsIcEENS7_9allocatorIcEEEEbxydSD_NS0_14adl_serializerENS9_IhNSD_IhEEEEvEENS9_I14BrokerMetadataNSD_ISK_EEEELi0EEEvRT_RKT0_                                                                                                                                                  
7011c001  _ZN8nlohmann16json_abi_v3_11_26detail20external_constructorILNS1_7value_tE3EE9constructINS0_10basic_jsonINSt3__13mapENS7_6vectorENS7_12basic_stringIcNS7_11char_traitsIcEENS7_9allocatorIcEEEEbxydSD_NS0_14adl_serializerENS9_IhNSD_IhEEEEvEEA10_cLi0EEEvRT_RKT0_                                                                                                                                                                              
7011c031  _ZN8nlohmann16json_abi_v3_11_26detail20external_constructorILNS1_7value_tE3EE9constructINS0_10basic_jsonINSt3__13mapENS7_6vectorENS7_12basic_stringIcNS7_11char_traitsIcEENS7_9allocatorIcEEEEbxydSD_NS0_14adl_serializerENS9_IhNSD_IhEEEEvEEA11_cLi0EEEvRT_RKT0_                                                                                                                                                                              
7011c061  _ZN8nlohmann16json_abi_v3_11_26detail20external_constructorILNS1_7value_tE3EE9constructINS0_10basic_jsonINSt3__13mapENS7_6vectorENS7_12basic_stringIcNS7_11char_traitsIcEENS7_9allocatorIcEEEEbxydSD_NS0_14adl_serializerENS9_IhNSD_IhEEEEvEEA12_cLi0EEEvRT_RKT0_                                                                                                                                                                              
7011c091  _ZN8nlohmann16json_abi_v3_11_26detail20external_constructorILNS1_7value_tE3EE9constructINS0_10basic_jsonINSt3__13mapENS7_6vectorENS7_12basic_stringIcNS7_11char_traitsIcEENS7_9allocatorIcEEEEbxydSD_NS0_14adl_serializerENS9_IhNSD_IhEEEEvEEA16_cLi0EEEvRT_RKT0_                                                                                                                                                                              
7011c0c1  _ZN8nlohmann16json_abi_v3_11_26detail20external_constructorILNS1_7value_tE3EE9constructINS0_10basic_jsonINSt3__13mapENS7_6vectorENS7_12basic_stringIcNS7_11char_traitsIcEENS7_9allocatorIcEEEEbxydSD_NS0_14adl_serializerENS9_IhNSD_IhEEEEvEEA22_cLi0EEEvRT_RKT0_                                                                                                                                                                              
7011c0f1  _ZN8nlohmann16json_abi_v3_11_26detail20external_constructorILNS1_7value_tE3EE9constructINS0_10basic_jsonINSt3__13mapENS7_6vectorENS7_12basic_stringIcNS7_11char_traitsIcEENS7_9allocatorIcEEEEbxydSD_NS0_14adl_serializerENS9_IhNSD_IhEEEEvEEA3_cLi0EEEvRT_RKT0_                                                                                                                                                                               
7011c121  _ZN8nlohmann16json_abi_v3_11_26detail20external_constructorILNS1_7value_tE3EE9constructINS0_10basic_jsonINSt3__13mapENS7_6vectorENS7_12basic_stringIcNS7_11char_traitsIcEENS7_9allocatorIcEEEEbxydSD_NS0_14adl_serializerENS9_IhNSD_IhEEEEvEEA5_cLi0EEEvRT_RKT0_                                                                                                                                                                               
7011c151  _ZN8nlohmann16json_abi_v3_11_26detail20external_constructorILNS1_7value_tE3EE9constructINS0_10basic_jsonINSt3__13mapENS7_6vectorENS7_12basic_stringIcNS7_11char_traitsIcEENS7_9allocatorIcEEEEbxydSD_NS0_14adl_serializerENS9_IhNSD_IhEEEEvEEA7_cLi0EEEvRT_RKT0_                                                                                                                                                                               
7011c181  _ZN8nlohmann16json_abi_v3_11_26detail20external_constructorILNS1_7value_tE3EE9constructINS0_10basic_jsonINSt3__13mapENS7_6vectorENS7_12basic_stringIcNS7_11char_traitsIcEENS7_9allocatorIcEEEEbxydSD_NS0_14adl_serializerENS9_IhNSD_IhEEEEvEEA8_cLi0EEEvRT_RKT0_                                                                                                                                                                               
7011c1b1  _ZN8nlohmann16json_abi_v3_11_26detail20external_constructorILNS1_7value_tE3EE9constructINS0_10basic_jsonINSt3__13mapENS7_6vectorENS7_12basic_stringIcNS7_11char_traitsIcEENS7_9allocatorIcEEEEbxydSD_NS0_14adl_serializerENS9_IhNSD_IhEEEEvEEA9_cLi0EEEvRT_RKT0_                                                                                                                                                                               
7011c1e1  _ZN8nlohmann16json_abi_v3_11_26detail20external_constructorILNS1_7value_tE3EE9constructINS0_10basic_jsonINSt3__13mapENS7_6vectorENS7_12basic_stringIcNS7_11char_traitsIcEENS7_9allocatorIcEEEEbxydSD_NS0_14adl_serializerENS9_IhNSD_IhEEEEvEEEEvRT_RKNSK_8string_tE                                                                                                                                                                            
7011d471  _ZN8nlohmann16json_abi_v3_11_26detail21output_string_adapterIcNSt3__112basic_stringIcNS3_11char_traitsIcEENS3_9allocatorIcEEEEE15write_characterEc                                                                                                                                                                                                                                                                                             
7011d481  _ZN8nlohmann16json_abi_v3_11_26detail21output_string_adapterIcNSt3__112basic_stringIcNS3_11char_traitsIcEENS3_9allocatorIcEEEEE16write_charactersEPKcj                                                                                                                                                                                                                                                                                         
7011d601  _ZN8nlohmann16json_abi_v3_11_26detail21output_string_adapterIcNSt3__112basic_stringIcNS3_11char_traitsIcEENS3_9allocatorIcEEEEED0Ev                                                                                                                                                                                                                                                                                                            
7011d781  _ZN8nlohmann16json_abi_v3_11_26detail23output_adapter_protocolIcED2Ev                                                                                                                                                                                                                                                                                                                                                                          
7010d021  _ZN8nlohmann16json_abi_v3_11_26detail28json_sax_dom_callback_parserINS0_10basic_jsonINSt3__13mapENS4_6vectorENS4_12basic_stringIcNS4_11char_traitsIcEENS4_9allocatorIcEEEEbxydSA_NS0_14adl_serializerENS6_IhNSA_IhEEEEvEEE10end_objectEv                                                                                                                                                                                                       
70110ce1  _ZN8nlohmann16json_abi_v3_11_26detail28json_sax_dom_callback_parserINS0_10basic_jsonINSt3__13mapENS4_6vectorENS4_12basic_stringIcNS4_11char_traitsIcEENS4_9allocatorIcEEEEbxydSA_NS0_14adl_serializerENS6_IhNSA_IhEEEEvEEE11start_arrayEj                                                                                                                                                                                                      
70109fd1  _ZN8nlohmann16json_abi_v3_11_26detail28json_sax_dom_callback_parserINS0_10basic_jsonINSt3__13mapENS4_6vectorENS4_12basic_stringIcNS4_11char_traitsIcEENS4_9allocatorIcEEEEbxydSA_NS0_14adl_serializerENS6_IhNSA_IhEEEEvEEE12handle_valueIDnEENS4_4pairIbPSG_EEOT_b                                                                                                                                                                             
7010a1d1  _ZN8nlohmann16json_abi_v3_11_26detail28json_sax_dom_callback_parserINS0_10basic_jsonINSt3__13mapENS4_6vectorENS4_12basic_stringIcNS4_11char_traitsIcEENS4_9allocatorIcEEEEbxydSA_NS0_14adl_serializerENS6_IhNSA_IhEEEEvEEE12handle_valueINS1_7value_tEEENS4_4pairIbPSG_EEOT_b                                                                                                                                                                  
70109dd1  _ZN8nlohmann16json_abi_v3_11_26detail28json_sax_dom_callback_parserINS0_10basic_jsonINSt3__13mapENS4_6vectorENS4_12basic_stringIcNS4_11char_traitsIcEENS4_9allocatorIcEEEEbxydSA_NS0_14adl_serializerENS6_IhNSA_IhEEEEvEEE12handle_valueIRSC_EENS4_4pairIbPSG_EEOT_b                                                                                                                                                                           
7010a7c1  _ZN8nlohmann16json_abi_v3_11_26detail28json_sax_dom_callback_parserINS0_10basic_jsonINSt3__13mapENS4_6vectorENS4_12basic_stringIcNS4_11char_traitsIcEENS4_9allocatorIcEEEEbxydSA_NS0_14adl_serializerENS6_IhNSA_IhEEEEvEEE12handle_valueIRbEENS4_4pairIbPSG_EEOT_b                                                                                                                                                                             
7010a9b1  _ZN8nlohmann16json_abi_v3_11_26detail28json_sax_dom_callback_parserINS0_10basic_jsonINSt3__13mapENS4_6vectorENS4_12basic_stringIcNS4_11char_traitsIcEENS4_9allocatorIcEEEEbxydSA_NS0_14adl_serializerENS6_IhNSA_IhEEEEvEEE12handle_valueIRdEENS4_4pairIbPSG_EEOT_b                                                                                                                                                                             
7010aba1  _ZN8nlohmann16json_abi_v3_11_26detail28json_sax_dom_callback_parserINS0_10basic_jsonINSt3__13mapENS4_6vectorENS4_12basic_stringIcNS4_11char_traitsIcEENS4_9allocatorIcEEEEbxydSA_NS0_14adl_serializerENS6_IhNSA_IhEEEEvEEE12handle_valueIRxEENS4_4pairIbPSG_EEOT_b                                                                                                                                                                             
7010ad91  _ZN8nlohmann16json_abi_v3_11_26detail28json_sax_dom_callback_parserINS0_10basic_jsonINSt3__13mapENS4_6vectorENS4_12basic_stringIcNS4_11char_traitsIcEENS4_9allocatorIcEEEEbxydSA_NS0_14adl_serializerENS6_IhNSA_IhEEEEvEEE12handle_valueIRyEENS4_4pairIbPSG_EEOT_b                                                                                                                                                                             
70110ee1  _ZN8nlohmann16json_abi_v3_11_26detail28json_sax_dom_callback_parserINS0_10basic_jsonINSt3__13mapENS4_6vectorENS4_12basic_stringIcNS4_11char_traitsIcEENS4_9allocatorIcEEEEbxydSA_NS0_14adl_serializerENS6_IhNSA_IhEEEEvEEE12start_objectEj                                                                                                                                                                                                     
70112cf1  _ZN8nlohmann16json_abi_v3_11_26detail28json_sax_dom_callback_parserINS0_10basic_jsonINSt3__13mapENS4_6vectorENS4_12basic_stringIcNS4_11char_traitsIcEENS4_9allocatorIcEEEEbxydSA_NS0_14adl_serializerENS6_IhNSA_IhEEEEvEEE3keyERSC_                                                                                                                                                                                                            
701129b1  _ZN8nlohmann16json_abi_v3_11_26detail28json_sax_dom_callback_parserINS0_10basic_jsonINSt3__13mapENS4_6vectorENS4_12basic_stringIcNS4_11char_traitsIcEENS4_9allocatorIcEEEEbxydSA_NS0_14adl_serializerENS6_IhNSA_IhEEEEvEEE9end_arrayEv                                                                                                                                                                                                         
70118e11  _ZN8nlohmann16json_abi_v3_11_26detail28json_sax_dom_callback_parserINS0_10basic_jsonINSt3__13mapENS4_6vectorENS4_12basic_stringIcNS4_11char_traitsIcEENS4_9allocatorIcEEEEbxydSA_NS0_14adl_serializerENS6_IhNSA_IhEEEEvEEEC2ERSG_NS4_8functionIFbiNS1_13parse_event_tESI_EEEb                                                                                                                                                                  
701197b1  _ZN8nlohmann16json_abi_v3_11_26detail28json_sax_dom_callback_parserINS0_10basic_jsonINSt3__13mapENS4_6vectorENS4_12basic_stringIcNS4_11char_traitsIcEENS4_9allocatorIcEEEEbxydSA_NS0_14adl_serializerENS6_IhNSA_IhEEEEvEEED2Ev                                                                                                                                                                                                                 
701069b1  _ZN8nlohmann16json_abi_v3_11_26detail5lexerINS0_10basic_jsonINSt3__13mapENS4_6vectorENS4_12basic_stringIcNS4_11char_traitsIcEENS4_9allocatorIcEEEEbxydSA_NS0_14adl_serializerENS6_IhNSA_IhEEEEvEENS1_22iterator_input_adapterIPKcEEE11scan_numberEv                                                                                                                                                                                            
701017c1  _ZN8nlohmann16json_abi_v3_11_26detail5lexerINS0_10basic_jsonINSt3__13mapENS4_6vectorENS4_12basic_stringIcNS4_11char_traitsIcEENS4_9allocatorIcEEEEbxydSA_NS0_14adl_serializerENS6_IhNSA_IhEEEEvEENS1_22iterator_input_adapterIPKcEEE11scan_stringEv                                                                                                                                                                                            
70117311  _ZN8nlohmann16json_abi_v3_11_26detail5lexerINS0_10basic_jsonINSt3__13mapENS4_6vectorENS4_12basic_stringIcNS4_11char_traitsIcEENS4_9allocatorIcEEEEbxydSA_NS0_14adl_serializerENS6_IhNSA_IhEEEEvEENS1_22iterator_input_adapterIPKcEEE12scan_commentEv                                                                                                                                                                                           
70117e81  _ZN8nlohmann16json_abi_v3_11_26detail5lexerINS0_10basic_jsonINSt3__13mapENS4_6vectorENS4_12basic_stringIcNS4_11char_traitsIcEENS4_9allocatorIcEEEEbxydSA_NS0_14adl_serializerENS6_IhNSA_IhEEEEvEENS1_22iterator_input_adapterIPKcEEE12scan_literalESJ_jNS1_10lexer_baseISG_E10token_typeE                                                                                                                                                      
70114751  _ZN8nlohmann16json_abi_v3_11_26detail5lexerINS0_10basic_jsonINSt3__13mapENS4_6vectorENS4_12basic_stringIcNS4_11char_traitsIcEENS4_9allocatorIcEEEEbxydSA_NS0_14adl_serializerENS6_IhNSA_IhEEEEvEENS1_22iterator_input_adapterIPKcEEE13get_codepointEv                                                                                                                                                                                          
7011baf1  _ZN8nlohmann16json_abi_v3_11_26detail5lexerINS0_10basic_jsonINSt3__13mapENS4_6vectorENS4_12basic_stringIcNS4_11char_traitsIcEENS4_9allocatorIcEEEEbxydSA_NS0_14adl_serializerENS6_IhNSA_IhEEEEvEENS1_22iterator_input_adapterIPKcEEE17get_decimal_pointEv                                                                                                                                                                                      
70116a51  _ZN8nlohmann16json_abi_v3_11_26detail5lexerINS0_10basic_jsonINSt3__13mapENS4_6vectorENS4_12basic_stringIcNS4_11char_traitsIcEENS4_9allocatorIcEEEEbxydSA_NS0_14adl_serializerENS6_IhNSA_IhEEEEvEENS1_22iterator_input_adapterIPKcEEE18next_byte_in_rangeESt16initializer_listIiE                                                                                                                                                               
70112dc1  _ZN8nlohmann16json_abi_v3_11_26detail5lexerINS0_10basic_jsonINSt3__13mapENS4_6vectorENS4_12basic_stringIcNS4_11char_traitsIcEENS4_9allocatorIcEEEEbxydSA_NS0_14adl_serializerENS6_IhNSA_IhEEEEvEENS1_22iterator_input_adapterIPKcEEE3getEv                                                                                                                                                                                                     
7010de51  _ZN8nlohmann16json_abi_v3_11_26detail5lexerINS0_10basic_jsonINSt3__13mapENS4_6vectorENS4_12basic_stringIcNS4_11char_traitsIcEENS4_9allocatorIcEEEEbxydSA_NS0_14adl_serializerENS6_IhNSA_IhEEEEvEENS1_22iterator_input_adapterIPKcEEE4scanEv                                                                                                                                                                                                    
70117381  _ZN8nlohmann16json_abi_v3_11_26detail5lexerINS0_10basic_jsonINSt3__13mapENS4_6vectorENS4_12basic_stringIcNS4_11char_traitsIcEENS4_9allocatorIcEEEEbxydSA_NS0_14adl_serializerENS6_IhNSA_IhEEEEvEENS1_22iterator_input_adapterIPKcEEE5resetEv                                                                                                                                                                                                   
70119491  _ZN8nlohmann16json_abi_v3_11_26detail5lexerINS0_10basic_jsonINSt3__13mapENS4_6vectorENS4_12basic_stringIcNS4_11char_traitsIcEENS4_9allocatorIcEEEEbxydSA_NS0_14adl_serializerENS6_IhNSA_IhEEEEvEENS1_22iterator_input_adapterIPKcEEE5ungetEv                                                                                                                                                                                                   
7011b481  _ZN8nlohmann16json_abi_v3_11_26detail5lexerINS0_10basic_jsonINSt3__13mapENS4_6vectorENS4_12basic_stringIcNS4_11char_traitsIcEENS4_9allocatorIcEEEEbxydSA_NS0_14adl_serializerENS6_IhNSA_IhEEEEvEENS1_22iterator_input_adapterIPKcEEE8skip_bomEv                                                                                                                                                                                                
7011cab1  _ZN8nlohmann16json_abi_v3_11_26detail5lexerINS0_10basic_jsonINSt3__13mapENS4_6vectorENS4_12basic_stringIcNS4_11char_traitsIcEENS4_9allocatorIcEEEEbxydSA_NS0_14adl_serializerENS6_IhNSA_IhEEEEvEENS1_22iterator_input_adapterIPKcEEED2Ev                                                                                                                                                                                                       
70106c81  _ZN8nlohmann16json_abi_v3_11_26detail5lexerINS0_10basic_jsonINSt3__13mapENS4_6vectorENS4_12basic_stringIcNS4_11char_traitsIcEENS4_9allocatorIcEEEEbxydSA_NS0_14adl_serializerENS6_IhNSA_IhEEEEvEENS1_22iterator_input_adapterIPcEEE11scan_numberEv                                                                                                                                                                                             
70101d71  _ZN8nlohmann16json_abi_v3_11_26detail5lexerINS0_10basic_jsonINSt3__13mapENS4_6vectorENS4_12basic_stringIcNS4_11char_traitsIcEENS4_9allocatorIcEEEEbxydSA_NS0_14adl_serializerENS6_IhNSA_IhEEEEvEENS1_22iterator_input_adapterIPcEEE11scan_stringEv                                                                                                                                                                                             
701173f1  _ZN8nlohmann16json_abi_v3_11_26detail5lexerINS0_10basic_jsonINSt3__13mapENS4_6vectorENS4_12basic_stringIcNS4_11char_traitsIcEENS4_9allocatorIcEEEEbxydSA_NS0_14adl_serializerENS6_IhNSA_IhEEEEvEENS1_22iterator_input_adapterIPcEEE12scan_commentEv                                                                                                                                                                                            
70117ee1  _ZN8nlohmann16json_abi_v3_11_26detail5lexerINS0_10basic_jsonINSt3__13mapENS4_6vectorENS4_12basic_stringIcNS4_11char_traitsIcEENS4_9allocatorIcEEEEbxydSA_NS0_14adl_serializerENS6_IhNSA_IhEEEEvEENS1_22iterator_input_adapterIPcEEE12scan_literalEPKcjNS1_10lexer_baseISG_E10token_typeE                                                                                                                                                       
701147f1  _ZN8nlohmann16json_abi_v3_11_26detail5lexerINS0_10basic_jsonINSt3__13mapENS4_6vectorENS4_12basic_stringIcNS4_11char_traitsIcEENS4_9allocatorIcEEEEbxydSA_NS0_14adl_serializerENS6_IhNSA_IhEEEEvEENS1_22iterator_input_adapterIPcEEE13get_codepointEv                                                                                                                                                                                           
7011bb21  _ZN8nlohmann16json_abi_v3_11_26detail5lexerINS0_10basic_jsonINSt3__13mapENS4_6vectorENS4_12basic_stringIcNS4_11char_traitsIcEENS4_9allocatorIcEEEEbxydSA_NS0_14adl_serializerENS6_IhNSA_IhEEEEvEENS1_22iterator_input_adapterIPcEEE17get_decimal_pointEv                                                                                                                                                                                       
70116ad1  _ZN8nlohmann16json_abi_v3_11_26detail5lexerINS0_10basic_jsonINSt3__13mapENS4_6vectorENS4_12basic_stringIcNS4_11char_traitsIcEENS4_9allocatorIcEEEEbxydSA_NS0_14adl_serializerENS6_IhNSA_IhEEEEvEENS1_22iterator_input_adapterIPcEEE18next_byte_in_rangeESt16initializer_listIiE                                                                                                                                                                
70112e91  _ZN8nlohmann16json_abi_v3_11_26detail5lexerINS0_10basic_jsonINSt3__13mapENS4_6vectorENS4_12basic_stringIcNS4_11char_traitsIcEENS4_9allocatorIcEEEEbxydSA_NS0_14adl_serializerENS6_IhNSA_IhEEEEvEENS1_22iterator_input_adapterIPcEEE3getEv                                                                                                                                                                                                      
7010dfa1  _ZN8nlohmann16json_abi_v3_11_26detail5lexerINS0_10basic_jsonINSt3__13mapENS4_6vectorENS4_12basic_stringIcNS4_11char_traitsIcEENS4_9allocatorIcEEEEbxydSA_NS0_14adl_serializerENS6_IhNSA_IhEEEEvEENS1_22iterator_input_adapterIPcEEE4scanEv                                                                                                                                                                                                     
70117461  _ZN8nlohmann16json_abi_v3_11_26detail5lexerINS0_10basic_jsonINSt3__13mapENS4_6vectorENS4_12basic_stringIcNS4_11char_traitsIcEENS4_9allocatorIcEEEEbxydSA_NS0_14adl_serializerENS6_IhNSA_IhEEEEvEENS1_22iterator_input_adapterIPcEEE5resetEv                                                                                                                                                                                                    
701194e1  _ZN8nlohmann16json_abi_v3_11_26detail5lexerINS0_10basic_jsonINSt3__13mapENS4_6vectorENS4_12basic_stringIcNS4_11char_traitsIcEENS4_9allocatorIcEEEEbxydSA_NS0_14adl_serializerENS6_IhNSA_IhEEEEvEENS1_22iterator_input_adapterIPcEEE5ungetEv                                                                                                                                                                                                    
7011b4c1  _ZN8nlohmann16json_abi_v3_11_26detail5lexerINS0_10basic_jsonINSt3__13mapENS4_6vectorENS4_12basic_stringIcNS4_11char_traitsIcEENS4_9allocatorIcEEEEbxydSA_NS0_14adl_serializerENS6_IhNSA_IhEEEEvEENS1_22iterator_input_adapterIPcEEE8skip_bomEv                                                                                                                                                                                                 
7011cad1  _ZN8nlohmann16json_abi_v3_11_26detail5lexerINS0_10basic_jsonINSt3__13mapENS4_6vectorENS4_12basic_stringIcNS4_11char_traitsIcEENS4_9allocatorIcEEEEbxydSA_NS0_14adl_serializerENS6_IhNSA_IhEEEEvEENS1_22iterator_input_adapterIPcEEED2Ev                                                                                                                                                                                                        
70114891  _ZN8nlohmann16json_abi_v3_11_26detail6concatINSt3__112basic_stringIcNS3_11char_traitsIcEENS3_9allocatorIcEEEEJRA10_KcS9_SC_S9_EEET_DpOT0_                                                                                                                                                                                                                                                                                                      
70113a81  _ZN8nlohmann16json_abi_v3_11_26detail6concatINSt3__112basic_stringIcNS3_11char_traitsIcEENS3_9allocatorIcEEEEJRA17_KcRKS9_cS9_RA3_SA_EEET_DpOT0_                                                                                                                                                                                                                                                                                               
70118601  _ZN8nlohmann16json_abi_v3_11_26detail6concatINSt3__112basic_stringIcNS3_11char_traitsIcEENS3_9allocatorIcEEEEJRA26_KcS9_cEEET_DpOT0_                                                                                                                                                                                                                                                                                                           
701111e1  _ZN8nlohmann16json_abi_v3_11_26detail6concatINSt3__112basic_stringIcNS3_11char_traitsIcEENS3_9allocatorIcEEEEJS9_RA12_KcS9_RA3_SA_S9_RKS9_EEET_DpOT0_                                                                                                                                                                                                                                                                                          
70109391  _ZN8nlohmann16json_abi_v3_11_26detail6parserINS0_10basic_jsonINSt3__13mapENS4_6vectorENS4_12basic_stringIcNS4_11char_traitsIcEENS4_9allocatorIcEEEEbxydSA_NS0_14adl_serializerENS6_IhNSA_IhEEEEvEENS1_22iterator_input_adapterIPKcEEE17exception_messageENS1_10lexer_baseISG_E10token_typeERKSC_                                                                                                                                               
701040a1  _ZN8nlohmann16json_abi_v3_11_26detail6parserINS0_10basic_jsonINSt3__13mapENS4_6vectorENS4_12basic_stringIcNS4_11char_traitsIcEENS4_9allocatorIcEEEEbxydSA_NS0_14adl_serializerENS6_IhNSA_IhEEEEvEENS1_22iterator_input_adapterIPKcEEE18sax_parse_internalINS1_19json_sax_dom_parserISG_EEEEbPT_                                                                                                                                                
701037a1  _ZN8nlohmann16json_abi_v3_11_26detail6parserINS0_10basic_jsonINSt3__13mapENS4_6vectorENS4_12basic_stringIcNS4_11char_traitsIcEENS4_9allocatorIcEEEEbxydSA_NS0_14adl_serializerENS6_IhNSA_IhEEEEvEENS1_22iterator_input_adapterIPKcEEE18sax_parse_internalINS1_28json_sax_dom_callback_parserISG_EEEEbPT_                                                                                                                                       
70107221  _ZN8nlohmann16json_abi_v3_11_26detail6parserINS0_10basic_jsonINSt3__13mapENS4_6vectorENS4_12basic_stringIcNS4_11char_traitsIcEENS4_9allocatorIcEEEEbxydSA_NS0_14adl_serializerENS6_IhNSA_IhEEEEvEENS1_22iterator_input_adapterIPKcEEE5parseEbRSG_                                                                                                                                                                                              
70117701  _ZN8nlohmann16json_abi_v3_11_26detail6parserINS0_10basic_jsonINSt3__13mapENS4_6vectorENS4_12basic_stringIcNS4_11char_traitsIcEENS4_9allocatorIcEEEEbxydSA_NS0_14adl_serializerENS6_IhNSA_IhEEEEvEENS1_22iterator_input_adapterIPKcEEEC2EOSK_NS4_8functionIFbiNS1_13parse_event_tERSG_EEEbb                                                                                                                                                     
701095a1  _ZN8nlohmann16json_abi_v3_11_26detail6parserINS0_10basic_jsonINSt3__13mapENS4_6vectorENS4_12basic_stringIcNS4_11char_traitsIcEENS4_9allocatorIcEEEEbxydSA_NS0_14adl_serializerENS6_IhNSA_IhEEEEvEENS1_22iterator_input_adapterIPcEEE17exception_messageENS1_10lexer_baseISG_E10token_typeERKSC_                                                                                                                                                
70104501  _ZN8nlohmann16json_abi_v3_11_26detail6parserINS0_10basic_jsonINSt3__13mapENS4_6vectorENS4_12basic_stringIcNS4_11char_traitsIcEENS4_9allocatorIcEEEEbxydSA_NS0_14adl_serializerENS6_IhNSA_IhEEEEvEENS1_22iterator_input_adapterIPcEEE18sax_parse_internalINS1_19json_sax_dom_parserISG_EEEEbPT_                                                                                                                                                 
70103c21  _ZN8nlohmann16json_abi_v3_11_26detail6parserINS0_10basic_jsonINSt3__13mapENS4_6vectorENS4_12basic_stringIcNS4_11char_traitsIcEENS4_9allocatorIcEEEEbxydSA_NS0_14adl_serializerENS6_IhNSA_IhEEEEvEENS1_22iterator_input_adapterIPcEEE18sax_parse_internalINS1_28json_sax_dom_callback_parserISG_EEEEbPT_                                                                                                                                        
701074d1  _ZN8nlohmann16json_abi_v3_11_26detail6parserINS0_10basic_jsonINSt3__13mapENS4_6vectorENS4_12basic_stringIcNS4_11char_traitsIcEENS4_9allocatorIcEEEEbxydSA_NS0_14adl_serializerENS6_IhNSA_IhEEEEvEENS1_22iterator_input_adapterIPcEEE5parseEbRSG_                                                                                                                                                                                               
70117771  _ZN8nlohmann16json_abi_v3_11_26detail6parserINS0_10basic_jsonINSt3__13mapENS4_6vectorENS4_12basic_stringIcNS4_11char_traitsIcEENS4_9allocatorIcEEEEbxydSA_NS0_14adl_serializerENS6_IhNSA_IhEEEEvEENS1_22iterator_input_adapterIPcEEEC2EOSJ_NS4_8functionIFbiNS1_13parse_event_tERSG_EEEbb                                                                                                                                                      
7010edd1  _ZN8nlohmann16json_abi_v3_11_26detail8to_charsIdEEPcS3_PKcT_                                                                                                                                                                                                                                                                                                                                                                                   
7010d761  _ZN8nlohmann16json_abi_v3_11_26detail9dtoa_impl12grisu2_roundEPciyyyy                                                                                                                                                                                                                                                                                                                                                                          
7010b161  _ZN8nlohmann16json_abi_v3_11_26detail9dtoa_impl13format_bufferEPciiii                                                                                                                                                                                                                                                                                                                                                                          
70104dc1  _ZN8nlohmann16json_abi_v3_11_26detail9dtoa_impl16grisu2_digit_genEPcRiS4_NS2_5diyfpES5_S5_                                                                                                                                                                                                                                                                                                                                                     
7010fed1  _ZN8nlohmann16json_abi_v3_11_26detail9dtoa_impl18compute_boundariesIdEENS2_10boundariesET_                                                                                                                                                                                                                                                                                                                                                     
70110351  _ZN8nlohmann16json_abi_v3_11_26detail9dtoa_impl36get_cached_power_for_binary_exponentEi                                                                                                                                                                                                                                                                                                                                                        
70115811  _ZN8nlohmann16json_abi_v3_11_26detail9dtoa_impl5diyfp12normalize_toERKS3_i                                                                                                                                                                                                                                                                                                                                                                     
701174d1  _ZN8nlohmann16json_abi_v3_11_26detail9dtoa_impl5diyfp3subERKS3_S5_                                                                                                                                                                                                                                                                                                                                                                             
70118e71  _ZN8nlohmann16json_abi_v3_11_26detail9dtoa_impl5diyfp9normalizeES3_                                                                                                                                                                                                                                                                                                                                                                            
7010ec91  _ZN8nlohmann16json_abi_v3_11_26detail9dtoa_impl6grisu2EPcRiS4_NS2_5diyfpES5_S5_                                                                                                                                                                                                                                                                                                                                                                
70112f61  _ZN8nlohmann16json_abi_v3_11_26detail9dtoa_impl6grisu2IdEEvPcRiS5_T_                                                                                                                                                                                                                                                                                                                                                                           
70119bc1  _ZN8nlohmann16json_abi_v3_11_26detail9exception4nameERKNSt3__112basic_stringIcNS3_11char_traitsIcEENS3_9allocatorIcEEEEi                                                                                                                                                                                                                                                                                                                       
7011c391  _ZN8nlohmann16json_abi_v3_11_26detail9exceptionD0Ev                                                                                                                                                                                                                                                                                                                                                                                            
7011c651  _ZN8nlohmann16json_abi_v3_11_26detail9exceptionD2Ev                                                                                                                                                                                                                                                                                                                                                                                            
7011a471  _ZN8nlohmann16json_abi_v3_11_26detail9iter_implIKNS0_10basic_jsonINSt3__13mapENS4_6vectorENS4_12basic_stringIcNS4_11char_traitsIcEENS4_9allocatorIcEEEEbxydSA_NS0_14adl_serializerENS6_IhNSA_IhEEEEvEEE7set_endEv                                                                                                                                                                                                                              
70119d51  _ZN8nlohmann16json_abi_v3_11_26detail9iter_implIKNS0_10basic_jsonINSt3__13mapENS4_6vectorENS4_12basic_stringIcNS4_11char_traitsIcEENS4_9allocatorIcEEEEbxydSA_NS0_14adl_serializerENS6_IhNSA_IhEEEEvEEE9set_beginEv                                                                                                                                                                                                                            
7011a011  _ZN8nlohmann16json_abi_v3_11_26detail9iter_implIKNS0_10basic_jsonINSt3__13mapENS4_6vectorENS4_12basic_stringIcNS4_11char_traitsIcEENS4_9allocatorIcEEEEbxydSA_NS0_14adl_serializerENS6_IhNSA_IhEEEEvEEEppEv                                                                                                                                                                                                                                    
7011a4c1  _ZN8nlohmann16json_abi_v3_11_26detail9iter_implINS0_10basic_jsonINSt3__13mapENS4_6vectorENS4_12basic_stringIcNS4_11char_traitsIcEENS4_9allocatorIcEEEEbxydSA_NS0_14adl_serializerENS6_IhNSA_IhEEEEvEEE7set_endEv                                                                                                                                                                                                                               
70119da1  _ZN8nlohmann16json_abi_v3_11_26detail9iter_implINS0_10basic_jsonINSt3__13mapENS4_6vectorENS4_12basic_stringIcNS4_11char_traitsIcEENS4_9allocatorIcEEEEbxydSA_NS0_14adl_serializerENS6_IhNSA_IhEEEEvEEE9set_beginEv                                                                                                                                                                                                                             
70119801  _ZN8nlohmann16json_abi_v3_11_26detail9iter_implINS0_10basic_jsonINSt3__13mapENS4_6vectorENS4_12basic_stringIcNS4_11char_traitsIcEENS4_9allocatorIcEEEEbxydSA_NS0_14adl_serializerENS6_IhNSA_IhEEEEvEEEC2EPSG_                                                                                                                                                                                                                                  
7011a061  _ZN8nlohmann16json_abi_v3_11_26detail9iter_implINS0_10basic_jsonINSt3__13mapENS4_6vectorENS4_12basic_stringIcNS4_11char_traitsIcEENS4_9allocatorIcEEEEbxydSA_NS0_14adl_serializerENS6_IhNSA_IhEEEEvEEEppEv                                                                                                                                                                                                                                     
701180c1  _ZN9RealTopic11unsubscribeE16ConsumerMetadata                                                                                                                                                                                                                                                                                                                                                                                                  
70110de1  _ZN9RealTopic4pollE16ConsumerMetadata                                                                                                                                                                                                                                                                                                                                                                                                          
7011d191  _ZN9RealTopic4readE16ConsumerMetadata                                                                                                                                                                                                                                                                                                                                                                                                          
7011c681  _ZN9RealTopic7publishE16ProducerMetadata6Record                                                                                                                                                                                                                                                                                                                                                                                                
70117ae1  _ZN9RealTopic9subscribeE16ConsumerMetadata                                                                                                                                                                                                                                                                                                                                                                                                     
70119a31  _ZN9RealTopicC1E13TopicMetadataRK6Logger                                                                                                                                                                                                                                                                                                                                                                                                       
70119a31  _ZN9RealTopicC2E13TopicMetadataRK6Logger                                                                                                                                                                                                                                                                                                                                                                                                       
7011d251  _ZN9RealTopicD0Ev                                                                                                                                                                                                                                                                                                                                                                                                                              
7011bb51  _ZN9RealTopicD1Ev                                                                                                                                                                                                                                                                                                                                                                                                                              
7011bb51  _ZN9RealTopicD2Ev                                                                                                                                                                                                                                                                                                                                                                                                                              
7011d610  _ZNK10__cxxabiv116__shim_type_info5noop1Ev                                                                                                                                                                                                                                                                                                                                                                                                     
7011d620  _ZNK10__cxxabiv116__shim_type_info5noop2Ev                                                                                                                                                                                                                                                                                                                                                                                                     
70110230  _ZNK10__cxxabiv117__class_type_info16search_above_dstEPNS_19__dynamic_cast_infoEPKvS4_ib                                                                                                                                                                                                                                                                                                                                                       
7010dcf0  _ZNK10__cxxabiv117__class_type_info16search_below_dstEPNS_19__dynamic_cast_infoEPKvib                                                                                                                                                                                                                                                                                                                                                          
70115500  _ZNK10__cxxabiv117__class_type_info27has_unambiguous_public_baseEPNS_19__dynamic_cast_infoEPvi                                                                                                                                                                                                                                                                                                                                                 
7010a5d0  _ZNK10__cxxabiv117__class_type_info9can_catchEPKNS_16__shim_type_infoERPv                                                                                                                                                                                                                                                                                                                                                                      
7010fa10  _ZNK10__cxxabiv120__si_class_type_info16search_above_dstEPNS_19__dynamic_cast_infoEPKvS4_ib                                                                                                                                                                                                                                                                                                                                                    
70109180  _ZNK10__cxxabiv120__si_class_type_info16search_below_dstEPNS_19__dynamic_cast_infoEPKvib                                                                                                                                                                                                                                                                                                                                                       
70114360  _ZNK10__cxxabiv120__si_class_type_info27has_unambiguous_public_baseEPNS_19__dynamic_cast_infoEPvi                                                                                                                                                                                                                                                                                                                                              
7011c821  _ZNK11UDPEndpoint24printEndpointInformationERK6Logger                                                                                                                                                                                                                                                                                                                                                                                          
7010b8b1  _ZNK11UDPEndpoint7to_jsonERN8nlohmann16json_abi_v3_11_210basic_jsonINSt3__13mapENS3_6vectorENS3_12basic_stringIcNS3_11char_traitsIcEENS3_9allocatorIcEEEEbxydS9_NS1_14adl_serializerENS5_IhNS9_IhEEEEvEE                                                                                                                                                                                                                                       
7011d371  _ZNK13SystemManager18getClusterMetadataEv                                                                                                                                                                                                                                                                                                                                                                                                      
7011d791  _ZNK13TopicMetadata7getNameEv                                                                                                                                                                                                                                                                                                                                                                                                                  
70112341  _ZNK13TopicMetadata7to_jsonERN8nlohmann16json_abi_v3_11_210basic_jsonINSt3__13mapENS3_6vectorENS3_12basic_stringIcNS3_11char_traitsIcEENS3_9allocatorIcEEEEbxydS9_NS1_14adl_serializerENS5_IhNS9_IhEEEEvEE                                                                                                                                                                                                                                     
7011d631  _ZNK14BrokerMetadata11getEndpointEv                                                                                                                                                                                                                                                                                                                                                                                                            
7011d381  _ZNK14BrokerMetadata17getTopicsMetadataEv                                                                                                                                                                                                                                                                                                                                                                                                      
7010ef11  _ZNK14BrokerMetadata7to_jsonERN8nlohmann16json_abi_v3_11_210basic_jsonINSt3__13mapENS3_6vectorENS3_12basic_stringIcNS3_11char_traitsIcEENS3_9allocatorIcEEEEbxydS9_NS1_14adl_serializerENS5_IhNS9_IhEEEEvEE                                                                                                                                                                                                                                    
7011d3d1  _ZNK14ProducerRecord16getTopicMetadataEv                                                                                                                                                                                                                                                                                                                                                                                                       
7011d391  _ZNK14ProducerRecord9getRecordEv                                                                                                                                                                                                                                                                                                                                                                                                               
70117151  _ZNK14TI_DebugLogger3logEPKcz                                                                                                                                                                                                                                                                                                                                                                                                                  
701171c1  _ZNK14TI_DebugLogger8logErrorEPKcz                                                                                                                                                                                                                                                                                                                                                                                                             
70112411  _ZNK15ClusterMetadata7to_jsonERN8nlohmann16json_abi_v3_11_210basic_jsonINSt3__13mapENS3_6vectorENS3_12basic_stringIcNS3_11char_traitsIcEENS3_9allocatorIcEEEEbxydS9_NS1_14adl_serializerENS5_IhNS9_IhEEEEvEE                                                                                                                                                                                                                                   
7011d641  _ZNK16ConsumerMetadata11getEndpointEv                                                                                                                                                                                                                                                                                                                                                                                                          
7011d651  _ZNK16ConsumerMetadata5getIdEv                                                                                                                                                                                                                                                                                                                                                                                                                 
7010f8e1  _ZNK16ConsumerMetadata7to_jsonERN8nlohmann16json_abi_v3_11_210basic_jsonINSt3__13mapENS3_6vectorENS3_12basic_stringIcNS3_11char_traitsIcEENS3_9allocatorIcEEEEbxydS9_NS1_14adl_serializerENS5_IhNS9_IhEEEEvEE                                                                                                                                                                                                                                  
7011d261  _ZNK16ConsumerMetadataltERKS_                                                                                                                                                                                                                                                                                                                                                                                                                  
70113621  _ZNK16ProducerMetadata7to_jsonERN8nlohmann16json_abi_v3_11_210basic_jsonINSt3__13mapENS3_6vectorENS3_12basic_stringIcNS3_11char_traitsIcEENS3_9allocatorIcEEEEbxydS9_NS1_14adl_serializerENS5_IhNS9_IhEEEEvEE                                                                                                                                                                                                                                  
7011d661  _ZNK17RPMessageEndpoint18getServiceEndpointEv                                                                                                                                                                                                                                                                                                                                                                                                  
7011c851  _ZNK17RPMessageEndpoint24printEndpointInformationERK6Logger                                                                                                                                                                                                                                                                                                                                                                                    
7010c171  _ZNK17RPMessageEndpoint7to_jsonERN8nlohmann16json_abi_v3_11_210basic_jsonINSt3__13mapENS3_6vectorENS3_12basic_stringIcNS3_11char_traitsIcEENS3_9allocatorIcEEEEbxydS9_NS1_14adl_serializerENS5_IhNS9_IhEEEEvEE                                                                                                                                                                                                                                 
7011d671  _ZNK17RPMessageEndpoint9getCoreIdEv                                                                                                                                                                                                                                                                                                                                                                                                            
7011d3a1  _ZNK5Topic16getTopicMetadataEv                                                                                                                                                                                                                                                                                                                                                                                                                 
7011d7a1  _ZNK6Record7getDataEv                                                                                                                                                                                                                                                                                                                                                                                                                          
701124e1  _ZNK6Record7to_jsonERN8nlohmann16json_abi_v3_11_210basic_jsonINSt3__13mapENS3_6vectorENS3_12basic_stringIcNS3_11char_traitsIcEENS3_9allocatorIcEEEEbxydS9_NS1_14adl_serializerENS5_IhNS9_IhEEEEvEE                                                                                                                                                                                                                                             
701156e1  _ZNK8nlohmann16json_abi_v3_11_210basic_jsonINSt3__13mapENS2_6vectorENS2_12basic_stringIcNS2_11char_traitsIcEENS2_9allocatorIcEEEEbxydS8_NS0_14adl_serializerENS4_IhNS8_IhEEEEvE16assert_invariantEb                                                                                                                                                                                                                                            
7011caf1  _ZNK8nlohmann16json_abi_v3_11_210basic_jsonINSt3__13mapENS2_6vectorENS2_12basic_stringIcNS2_11char_traitsIcEENS2_9allocatorIcEEEEbxydS8_NS0_14adl_serializerENS4_IhNS8_IhEEEEvE2atIRA16_KcLi0EEERKSE_OT_                                                                                                                                                                                                                                       
7011cb11  _ZNK8nlohmann16json_abi_v3_11_210basic_jsonINSt3__13mapENS2_6vectorENS2_12basic_stringIcNS2_11char_traitsIcEENS2_9allocatorIcEEEEbxydS8_NS0_14adl_serializerENS4_IhNS8_IhEEEEvE2atIRA3_KcLi0EEERKSE_OT_                                                                                                                                                                                                                                        
7011cb31  _ZNK8nlohmann16json_abi_v3_11_210basic_jsonINSt3__13mapENS2_6vectorENS2_12basic_stringIcNS2_11char_traitsIcEENS2_9allocatorIcEEEEbxydS8_NS0_14adl_serializerENS4_IhNS8_IhEEEEvE2atIRA5_KcLi0EEERKSE_OT_                                                                                                                                                                                                                                        
7011cb51  _ZNK8nlohmann16json_abi_v3_11_210basic_jsonINSt3__13mapENS2_6vectorENS2_12basic_stringIcNS2_11char_traitsIcEENS2_9allocatorIcEEEEbxydS8_NS0_14adl_serializerENS4_IhNS8_IhEEEEvE2atIRA7_KcLi0EEERKSE_OT_                                                                                                                                                                                                                                        
7011cb71  _ZNK8nlohmann16json_abi_v3_11_210basic_jsonINSt3__13mapENS2_6vectorENS2_12basic_stringIcNS2_11char_traitsIcEENS2_9allocatorIcEEEEbxydS8_NS0_14adl_serializerENS4_IhNS8_IhEEEEvE2atIRA8_KcLi0EEERKSE_OT_                                                                                                                                                                                                                                        
7011cb91  _ZNK8nlohmann16json_abi_v3_11_210basic_jsonINSt3__13mapENS2_6vectorENS2_12basic_stringIcNS2_11char_traitsIcEENS2_9allocatorIcEEEEbxydS8_NS0_14adl_serializerENS4_IhNS8_IhEEEEvE2atIRA9_KcLi0EEERKSE_OT_                                                                                                                                                                                                                                        
70113b31  _ZNK8nlohmann16json_abi_v3_11_210basic_jsonINSt3__13mapENS2_6vectorENS2_12basic_stringIcNS2_11char_traitsIcEENS2_9allocatorIcEEEEbxydS8_NS0_14adl_serializerENS4_IhNS8_IhEEEEvE4dumpEicbNS0_6detail15error_handler_tE                                                                                                                                                                                                                          
7011ad41  _ZNK8nlohmann16json_abi_v3_11_210basic_jsonINSt3__13mapENS2_6vectorENS2_12basic_stringIcNS2_11char_traitsIcEENS2_9allocatorIcEEEEbxydS8_NS0_14adl_serializerENS4_IhNS8_IhEEEEvEixERKSA_                                                                                                                                                                                                                                                        
7011bd61  _ZNK8nlohmann16json_abi_v3_11_210basic_jsonINSt3__13mapENS2_6vectorENS2_12basic_stringIcNS2_11char_traitsIcEENS2_9allocatorIcEEEEbxydS8_NS0_14adl_serializerENS4_IhNS8_IhEEEEvEixIKcEERKSE_PT_                                                                                                                                                                                                                                                 
7011bd91  _ZNK8nlohmann16json_abi_v3_11_26detail12from_json_fnclINS0_10basic_jsonINSt3__13mapENS5_6vectorENS5_12basic_stringIcNS5_11char_traitsIcEENS5_9allocatorIcEEEEbxydSB_NS0_14adl_serializerENS7_IhNSB_IhEEEEvEERiEEDTcl9from_jsonfp_clsr3stdE7forwardIT0_Efp0_EEERKT_OSJ_                                                                                                                                                                         
70118661  _ZNK8nlohmann16json_abi_v3_11_26detail5lexerINS0_10basic_jsonINSt3__13mapENS4_6vectorENS4_12basic_stringIcNS4_11char_traitsIcEENS4_9allocatorIcEEEEbxydSA_NS0_14adl_serializerENS6_IhNSA_IhEEEEvEENS1_22iterator_input_adapterIPKcEEE16get_token_stringEv                                                                                                                                                                                      
701186c1  _ZNK8nlohmann16json_abi_v3_11_26detail5lexerINS0_10basic_jsonINSt3__13mapENS4_6vectorENS4_12basic_stringIcNS4_11char_traitsIcEENS4_9allocatorIcEEEEbxydSA_NS0_14adl_serializerENS6_IhNSA_IhEEEEvEENS1_22iterator_input_adapterIPcEEE16get_token_stringEv                                                                                                                                                                                       
7011b081  _ZNK8nlohmann16json_abi_v3_11_26detail8json_refINS0_10basic_jsonINSt3__13mapENS4_6vectorENS4_12basic_stringIcNS4_11char_traitsIcEENS4_9allocatorIcEEEEbxydSA_NS0_14adl_serializerENS6_IhNSA_IhEEEEvEEE15moved_or_copiedEv                                                                                                                                                                                                                      
7011d491  _ZNK8nlohmann16json_abi_v3_11_26detail9exception4whatEv                                                                                                                                                                                                                                                                                                                                                                                        
70115e41  _ZNK8nlohmann16json_abi_v3_11_26detail9iter_implIKNS0_10basic_jsonINSt3__13mapENS4_6vectorENS4_12basic_stringIcNS4_11char_traitsIcEENS4_9allocatorIcEEEEbxydSA_NS0_14adl_serializerENS6_IhNSA_IhEEEEvEEEdeEv                                                                                                                                                                                                                                   
70119221  _ZNK8nlohmann16json_abi_v3_11_26detail9iter_implIKNS0_10basic_jsonINSt3__13mapENS4_6vectorENS4_12basic_stringIcNS4_11char_traitsIcEENS4_9allocatorIcEEEEbxydSA_NS0_14adl_serializerENS6_IhNSA_IhEEEEvEEEeqISI_LDn0EEEbRKT_                                                                                                                                                                                                                     
70115ed1  _ZNK8nlohmann16json_abi_v3_11_26detail9iter_implINS0_10basic_jsonINSt3__13mapENS4_6vectorENS4_12basic_stringIcNS4_11char_traitsIcEENS4_9allocatorIcEEEEbxydSA_NS0_14adl_serializerENS6_IhNSA_IhEEEEvEEEdeEv                                                                                                                                                                                                                                    
70119281  _ZNK8nlohmann16json_abi_v3_11_26detail9iter_implINS0_10basic_jsonINSt3__13mapENS4_6vectorENS4_12basic_stringIcNS4_11char_traitsIcEENS4_9allocatorIcEEEEbxydSA_NS0_14adl_serializerENS6_IhNSA_IhEEEEvEEEeqISH_LDn0EEEbRKT_                                                                                                                                                                                                                      
701160f1  _ZNK8nlohmann16json_abi_v3_11_26detail9iter_implINS0_10basic_jsonINSt3__13mapENS4_6vectorENS4_12basic_stringIcNS4_11char_traitsIcEENS4_9allocatorIcEEEEbxydSA_NS0_14adl_serializerENS6_IhNSA_IhEEEEvEEEptEv                                                                                                                                                                                                                                    
7011c881  _ZNK9RealTopic12getConsumersEv                                                                                                                                                                                                                                                                                                                                                                                                                 
7011d3e0  _ZNKSt13runtime_error4whatEv                                                                                                                                                                                                                                                                                                                                                                                                                   
70114ed0  _ZNKSt3__112basic_stringIcNS_11char_traitsIcEENS_9allocatorIcEEE7compareEPKc                                                                                                                                                                                                                                                                                                                                                                   
70114000  _ZNKSt3__112basic_stringIcNS_11char_traitsIcEENS_9allocatorIcEEE7compareEjjPKcj                                                                                                                                                                                                                                                                                                                                                                
7011d3f0  _ZNKSt3__119__shared_weak_count13__get_deleterERKSt9type_info                                                                                                                                                                                                                                                                                                                                                                                  
70118721  _ZNKSt3__14lessIvEclIRKNS_12basic_stringIcNS_11char_traitsIcEENS_9allocatorIcEEEESA_EEDTltclsr3stdE7forwardIT_Efp_Eclsr3stdE7forwardIT0_Efp0_EEOSB_OSC_                                                                                                                                                                                                                                                                                        
7011c6b1  _ZNKSt3__18functionIFbiN8nlohmann16json_abi_v3_11_26detail13parse_event_tERNS2_10basic_jsonINS_3mapENS_6vectorENS_12basic_stringIcNS_11char_traitsIcEENS_9allocatorIcEEEEbxydSB_NS2_14adl_serializerENS7_IhNSB_IhEEEEvEEEEclEiS4_SI_                                                                                                                                                                                                           
70118ed0  _ZNSt11range_errorD1Ev                                                                                                                                                                                                                                                                                                                                                                                                                         
70118ed0  _ZNSt11range_errorD2Ev                                                                                                                                                                                                                                                                                                                                                                                                                         
7011d6b0  _ZNSt13bad_exceptionD1Ev                                                                                                                                                                                                                                                                                                                                                                                                                       
7011d6b0  _ZNSt13bad_exceptionD2Ev                                                                                                                                                                                                                                                                                                                                                                                                                       
70113be0  _ZNSt13runtime_errorC1EPKc                                                                                                                                                                                                                                                                                                                                                                                                                     
70113be0  _ZNSt13runtime_errorC2EPKc                                                                                                                                                                                                                                                                                                                                                                                                                     
70118780  _ZNSt13runtime_errorD0Ev                                                                                                                                                                                                                                                                                                                                                                                                                       
70118ed0  _ZNSt13runtime_errorD1Ev                                                                                                                                                                                                                                                                                                                                                                                                                       
70118ed0  _ZNSt13runtime_errorD2Ev                                                                                                                                                                                                                                                                                                                                                                                                                       
70118ed0  _ZNSt14overflow_errorD1Ev                                                                                                                                                                                                                                                                                                                                                                                                                      
70118ed0  _ZNSt14overflow_errorD2Ev                                                                                                                                                                                                                                                                                                                                                                                                                      
70118ed0  _ZNSt15underflow_errorD1Ev                                                                                                                                                                                                                                                                                                                                                                                                                     
70118ed0  _ZNSt15underflow_errorD2Ev                                                                                                                                                                                                                                                                                                                                                                                                                     
7011d6b0  _ZNSt20bad_array_new_lengthD1Ev                                                                                                                                                                                                                                                                                                                                                                                                                
7011d6b0  _ZNSt20bad_array_new_lengthD2Ev                                                                                                                                                                                                                                                                                                                                                                                                                
7011bdc1  _ZNSt3__110__function12__value_funcIFbiN8nlohmann16json_abi_v3_11_26detail13parse_event_tERNS3_10basic_jsonINS_3mapENS_6vectorENS_12basic_stringIcNS_11char_traitsIcEENS_9allocatorIcEEEEbxydSC_NS3_14adl_serializerENS8_IhNSC_IhEEEEvEEEEC2ERKSL_                                                                                                                                                                                             
7011c8b1  _ZNSt3__110shared_ptrIN8nlohmann16json_abi_v3_11_26detail21output_string_adapterIcNS_12basic_stringIcNS_11char_traitsIcEENS_9allocatorIcEEEEEEED2Ev                                                                                                                                                                                                                                                                                            
7011c8e1  _ZNSt3__110shared_ptrIN8nlohmann16json_abi_v3_11_26detail23output_adapter_protocolIcEEED2Ev                                                                                                                                                                                                                                                                                                                                                    
7010c6a0  _ZNSt3__112basic_stringIcNS_11char_traitsIcEENS_9allocatorIcEEE6appendEPKc                                                                                                                                                                                                                                                                                                                                                                     
